(lp0
(dp1
VnDim
p2
I54
sVpr
p3
F0.72937922293212931
sS'pyConfig'
p4
(dp5
S'ADMMlocalEpsilon'
p6
I-1
sS'broadcastDelay'
p7
I-1
sS'pointCloudDim'
p8
I-1
sS'algorithm'
p9
S'GD'
p10
sS'regParam'
p11
I10
sS'numPartitions'
p12
I128
sS'wikipediaTargetWordToken'
p13
I4690
sS'dblpSplitYear'
p14
I2007
sS'localTimeout'
p15
I-1
sS'dataset'
p16
S'bismarck'
p17
sS'ADMMmaxLocalIterations'
p18
I100000
sS'datasetConfigStr'
p19
S' --input /user/root/bismarck_data/forest* '
p20
sS'command'
p21
S'cd /mnt/spark; sbin/stop-all.sh; sleep 5; sbin/start-all.sh; sleep 3;./bin/spark-submit --driver-memory 52g --class org.apache.spark.examples.mllib.research.SynchronousADMMTests examples/target/scala-*/spark-examples-*.jar --algorithm GD --regType L2 --regParam 10 --format bismarck --numPartitions 128 --runtimeMS 1000 --ADMMmaxLocalIterations 100000 --ADMMepsilon 0.0 --ADMMLocalepsilon -1 --ADMMrho 1000 --ADMMLagrangianrho 1000 --broadcastDelayMs -1 --dblpSplitYear 2007 --wikipediaTargetWordToken 4690 --inputTokenHashKernelDimension 100 --localTimeout -1  --input /user/root/bismarck_data/forest*   '
p22
sS'ADMMrho'
p23
I1000
sS'ADMMepsilon'
p24
F0.0
sS'inputTokenHashKernelDimension'
p25
I100
sS'regType'
p26
S'L2'
p27
sS'line'
p28
S'RESULT: {"trainingLoss": 422553.9210417072, "stats": {"iterations": 2, "runtime": 5549}, "params": {"format": "bismarck", "algParams": {"usePorkChop": false, "lagrangianRho": 1000.0, "rho0": 1000.0, "maxWorkerIterations": 100000, "useLBFGS": false, "maxIterations": 1000, "eta0": 1.0, "runtimeMS": 1000, "adaptiveRho": false, "broadcastDelayMS": -1, "regParam": 1.72113484747303E-5, "tol": 0.0, "displayIncrementalStats": false, "localTimeout": -1, "useLineSearch": false, "workerTol": -1.0, "miniBatchSize": 10}, "wikipediaTargetWordToken": 4690, "dblpSplitYear": 2007, "regType": "L2", "algorithm": "GD", "inputTokenHashKernelDimension": 100, "useLR": false, "pointCloudPoints": 10000, "pointCloudDim": 10, "pointCloudSize": 1.0, "pointCloudSkew": 0.0, "input": "/user/root/bismarck_data/forest*", "numPartitions": 128, "pointCloudNoise": 0.2}, "nDim": 54, "algorithm": "GD", "pr": 0.7293792229321293, "totalLoss": 422553.9210446505, "nExamples": 581012, "runtimeMS": 5549, "regPenalty": 2.9432993051728597E-6, "trainingError": 0.3149900518405816, "maxW": 0.1970896260302258, "minW": -0.2115334245666337, "iterations": 2, "roc": 0.7565102197656808}\n'
p29
sS'ADMMlagrangianRho'
p30
I1000
sS'pointCloudSkew'
p31
I-1
ssVstats
p32
(dp33
Vruntime
p34
I5549
sViterations
p35
I2
ssVtotalLoss
p36
F422553.92104465049
sValgorithm
p37
VGD
p38
sVregPenalty
p39
F2.9432993051728597e-06
sVroc
p40
F0.75651021976568078
sVmaxW
p41
F0.19708962603022581
sVnExamples
p42
I581012
sVruntimeMS
p43
I5549
sVparams
p44
(dp45
VpointCloudDim
p46
I10
sVinput
p47
V/user/root/bismarck_data/forest*
p48
sValgorithm
p49
VGD
p50
sVformat
p51
Vbismarck
p52
sVpointCloudSize
p53
F1.0
sVwikipediaTargetWordToken
p54
I4690
sVdblpSplitYear
p55
I2007
sVnumPartitions
p56
I128
sValgParams
p57
(dp58
VregParam
p59
F1.7211348474730298e-05
sVmaxIterations
p60
I1000
sVusePorkChop
p61
I00
sVtol
p62
F0.0
sVworkerTol
p63
F-1.0
sVadaptiveRho
p64
I00
sVuseLBFGS
p65
I00
sVrho0
p66
F1000.0
sVdisplayIncrementalStats
p67
I00
sVminiBatchSize
p68
I10
sVlocalTimeout
p69
I-1
sVmaxWorkerIterations
p70
I100000
sVruntimeMS
p71
I1000
sVbroadcastDelayMS
p72
I-1
sVeta0
p73
F1.0
sVlagrangianRho
p74
F1000.0
sVuseLineSearch
p75
I00
ssVinputTokenHashKernelDimension
p76
I100
sVpointCloudPoints
p77
I10000
sVregType
p78
VL2
p79
sVuseLR
p80
I00
sVpointCloudNoise
p81
F0.20000000000000001
sVpointCloudSkew
p82
F0.0
ssViterations
p83
I2
sVtrainingLoss
p84
F422553.92104170722
sVminW
p85
F-0.21153342456663371
sVtrainingError
p86
F0.3149900518405816
sa(dp87
VnDim
p88
I54
sVpr
p89
F0.72937922293212964
sg4
(dp90
g6
I-1
sg7
I-1
sg8
I-1
sg9
g10
sg11
I10
sg12
I128
sg13
I4690
sg14
I2007
sg15
I-1
sg16
g17
sg18
I100000
sg19
g20
sg21
S'cd /mnt/spark; sbin/stop-all.sh; sleep 5; sbin/start-all.sh; sleep 3;./bin/spark-submit --driver-memory 52g --class org.apache.spark.examples.mllib.research.SynchronousADMMTests examples/target/scala-*/spark-examples-*.jar --algorithm GD --regType L2 --regParam 10 --format bismarck --numPartitions 128 --runtimeMS 5000 --ADMMmaxLocalIterations 100000 --ADMMepsilon 0.0 --ADMMLocalepsilon -1 --ADMMrho 1000 --ADMMLagrangianrho 1000 --broadcastDelayMs -1 --dblpSplitYear 2007 --wikipediaTargetWordToken 4690 --inputTokenHashKernelDimension 100 --localTimeout -1  --input /user/root/bismarck_data/forest*   '
p91
sg23
I1000
sg24
F0.0
sg25
I100
sg26
g27
sg28
S'RESULT: {"trainingLoss": 422553.92104170716, "stats": {"iterations": 2, "runtime": 5484}, "params": {"format": "bismarck", "algParams": {"usePorkChop": false, "lagrangianRho": 1000.0, "rho0": 1000.0, "maxWorkerIterations": 100000, "useLBFGS": false, "maxIterations": 1000, "eta0": 1.0, "runtimeMS": 5000, "adaptiveRho": false, "broadcastDelayMS": -1, "regParam": 1.72113484747303E-5, "tol": 0.0, "displayIncrementalStats": false, "localTimeout": -1, "useLineSearch": false, "workerTol": -1.0, "miniBatchSize": 10}, "wikipediaTargetWordToken": 4690, "dblpSplitYear": 2007, "regType": "L2", "algorithm": "GD", "inputTokenHashKernelDimension": 100, "useLR": false, "pointCloudPoints": 10000, "pointCloudDim": 10, "pointCloudSize": 1.0, "pointCloudSkew": 0.0, "input": "/user/root/bismarck_data/forest*", "numPartitions": 128, "pointCloudNoise": 0.2}, "nDim": 54, "algorithm": "GD", "pr": 0.7293792229321296, "totalLoss": 422553.92104465043, "nExamples": 581012, "runtimeMS": 5484, "regPenalty": 2.9432993051728597E-6, "trainingError": 0.3149900518405816, "maxW": 0.1970896260302258, "minW": -0.21153342456663368, "iterations": 2, "roc": 0.756510219765681}\n'
p92
sg30
I1000
sg31
I-1
ssVstats
p93
(dp94
Vruntime
p95
I5484
sViterations
p96
I2
ssVtotalLoss
p97
F422553.92104465043
sValgorithm
p98
VGD
p99
sVregPenalty
p100
F2.9432993051728597e-06
sVroc
p101
F0.756510219765681
sVmaxW
p102
F0.19708962603022581
sVnExamples
p103
I581012
sVruntimeMS
p104
I5484
sVparams
p105
(dp106
VpointCloudDim
p107
I10
sVinput
p108
V/user/root/bismarck_data/forest*
p109
sValgorithm
p110
VGD
p111
sVformat
p112
Vbismarck
p113
sVpointCloudSize
p114
F1.0
sVwikipediaTargetWordToken
p115
I4690
sVdblpSplitYear
p116
I2007
sVnumPartitions
p117
I128
sValgParams
p118
(dp119
VregParam
p120
F1.7211348474730298e-05
sVmaxIterations
p121
I1000
sVusePorkChop
p122
I00
sVtol
p123
F0.0
sVworkerTol
p124
F-1.0
sVadaptiveRho
p125
I00
sVuseLBFGS
p126
I00
sVrho0
p127
F1000.0
sVdisplayIncrementalStats
p128
I00
sVminiBatchSize
p129
I10
sVlocalTimeout
p130
I-1
sVmaxWorkerIterations
p131
I100000
sVruntimeMS
p132
I5000
sVbroadcastDelayMS
p133
I-1
sVeta0
p134
F1.0
sVlagrangianRho
p135
F1000.0
sVuseLineSearch
p136
I00
ssVinputTokenHashKernelDimension
p137
I100
sVpointCloudPoints
p138
I10000
sVregType
p139
VL2
p140
sVuseLR
p141
I00
sVpointCloudNoise
p142
F0.20000000000000001
sVpointCloudSkew
p143
F0.0
ssViterations
p144
I2
sVtrainingLoss
p145
F422553.92104170716
sVminW
p146
F-0.21153342456663368
sVtrainingError
p147
F0.3149900518405816
sa(dp148
VnDim
p149
I54
sVpr
p150
F0.77178177744626608
sg4
(dp151
g6
I-1
sg7
I-1
sg8
I-1
sg9
g10
sg11
I10
sg12
I128
sg13
I4690
sg14
I2007
sg15
I-1
sg16
g17
sg18
I100000
sg19
g20
sg21
S'cd /mnt/spark; sbin/stop-all.sh; sleep 5; sbin/start-all.sh; sleep 3;./bin/spark-submit --driver-memory 52g --class org.apache.spark.examples.mllib.research.SynchronousADMMTests examples/target/scala-*/spark-examples-*.jar --algorithm GD --regType L2 --regParam 10 --format bismarck --numPartitions 128 --runtimeMS 10000 --ADMMmaxLocalIterations 100000 --ADMMepsilon 0.0 --ADMMLocalepsilon -1 --ADMMrho 1000 --ADMMLagrangianrho 1000 --broadcastDelayMs -1 --dblpSplitYear 2007 --wikipediaTargetWordToken 4690 --inputTokenHashKernelDimension 100 --localTimeout -1  --input /user/root/bismarck_data/forest*   '
p152
sg23
I1000
sg24
F0.0
sg25
I100
sg26
g27
sg28
S'RESULT: {"trainingLoss": 365606.66566905513, "stats": {"iterations": 8, "runtime": 11539}, "params": {"format": "bismarck", "algParams": {"usePorkChop": false, "lagrangianRho": 1000.0, "rho0": 1000.0, "maxWorkerIterations": 100000, "useLBFGS": false, "maxIterations": 1000, "eta0": 1.0, "runtimeMS": 10000, "adaptiveRho": false, "broadcastDelayMS": -1, "regParam": 1.72113484747303E-5, "tol": 0.0, "displayIncrementalStats": false, "localTimeout": -1, "useLineSearch": false, "workerTol": -1.0, "miniBatchSize": 10}, "wikipediaTargetWordToken": 4690, "dblpSplitYear": 2007, "regType": "L2", "algorithm": "GD", "inputTokenHashKernelDimension": 100, "useLR": false, "pointCloudPoints": 10000, "pointCloudDim": 10, "pointCloudSize": 1.0, "pointCloudSkew": 0.0, "input": "/user/root/bismarck_data/forest*", "numPartitions": 128, "pointCloudNoise": 0.2}, "nDim": 54, "algorithm": "GD", "pr": 0.7717817774462661, "totalLoss": 365606.6656761852, "nExamples": 581012, "runtimeMS": 11539, "regPenalty": 7.130093916661674E-6, "trainingError": 0.30540333074015685, "maxW": 0.27148930830628004, "minW": -0.3668314930196034, "iterations": 8, "roc": 0.7906958128306829}\n'
p153
sg30
I1000
sg31
I-1
ssVstats
p154
(dp155
Vruntime
p156
I11539
sViterations
p157
I8
ssVtotalLoss
p158
F365606.66567618522
sValgorithm
p159
VGD
p160
sVregPenalty
p161
F7.1300939166616743e-06
sVroc
p162
F0.79069581283068291
sVmaxW
p163
F0.27148930830628004
sVnExamples
p164
I581012
sVruntimeMS
p165
I11539
sVparams
p166
(dp167
VpointCloudDim
p168
I10
sVinput
p169
V/user/root/bismarck_data/forest*
p170
sValgorithm
p171
VGD
p172
sVformat
p173
Vbismarck
p174
sVpointCloudSize
p175
F1.0
sVwikipediaTargetWordToken
p176
I4690
sVdblpSplitYear
p177
I2007
sVnumPartitions
p178
I128
sValgParams
p179
(dp180
VregParam
p181
F1.7211348474730298e-05
sVmaxIterations
p182
I1000
sVusePorkChop
p183
I00
sVtol
p184
F0.0
sVworkerTol
p185
F-1.0
sVadaptiveRho
p186
I00
sVuseLBFGS
p187
I00
sVrho0
p188
F1000.0
sVdisplayIncrementalStats
p189
I00
sVminiBatchSize
p190
I10
sVlocalTimeout
p191
I-1
sVmaxWorkerIterations
p192
I100000
sVruntimeMS
p193
I10000
sVbroadcastDelayMS
p194
I-1
sVeta0
p195
F1.0
sVlagrangianRho
p196
F1000.0
sVuseLineSearch
p197
I00
ssVinputTokenHashKernelDimension
p198
I100
sVpointCloudPoints
p199
I10000
sVregType
p200
VL2
p201
sVuseLR
p202
I00
sVpointCloudNoise
p203
F0.20000000000000001
sVpointCloudSkew
p204
F0.0
ssViterations
p205
I8
sVtrainingLoss
p206
F365606.66566905513
sVminW
p207
F-0.36683149301960338
sVtrainingError
p208
F0.30540333074015685
sa(dp209
VnDim
p210
I54
sVpr
p211
F0.78313144068426221
sg4
(dp212
g6
I-1
sg7
I-1
sg8
I-1
sg9
g10
sg11
I10
sg12
I128
sg13
I4690
sg14
I2007
sg15
I-1
sg16
g17
sg18
I100000
sg19
g20
sg21
S'cd /mnt/spark; sbin/stop-all.sh; sleep 5; sbin/start-all.sh; sleep 3;./bin/spark-submit --driver-memory 52g --class org.apache.spark.examples.mllib.research.SynchronousADMMTests examples/target/scala-*/spark-examples-*.jar --algorithm GD --regType L2 --regParam 10 --format bismarck --numPartitions 128 --runtimeMS 20000 --ADMMmaxLocalIterations 100000 --ADMMepsilon 0.0 --ADMMLocalepsilon -1 --ADMMrho 1000 --ADMMLagrangianrho 1000 --broadcastDelayMs -1 --dblpSplitYear 2007 --wikipediaTargetWordToken 4690 --inputTokenHashKernelDimension 100 --localTimeout -1  --input /user/root/bismarck_data/forest*   '
p213
sg23
I1000
sg24
F0.0
sg25
I100
sg26
g27
sg28
S'RESULT: {"trainingLoss": 352465.73323166464, "stats": {"iterations": 54, "runtime": 20070}, "params": {"format": "bismarck", "algParams": {"usePorkChop": false, "lagrangianRho": 1000.0, "rho0": 1000.0, "maxWorkerIterations": 100000, "useLBFGS": false, "maxIterations": 1000, "eta0": 1.0, "runtimeMS": 20000, "adaptiveRho": false, "broadcastDelayMS": -1, "regParam": 1.72113484747303E-5, "tol": 0.0, "displayIncrementalStats": false, "localTimeout": -1, "useLineSearch": false, "workerTol": -1.0, "miniBatchSize": 10}, "wikipediaTargetWordToken": 4690, "dblpSplitYear": 2007, "regType": "L2", "algorithm": "GD", "inputTokenHashKernelDimension": 100, "useLR": false, "pointCloudPoints": 10000, "pointCloudDim": 10, "pointCloudSize": 1.0, "pointCloudSkew": 0.0, "input": "/user/root/bismarck_data/forest*", "numPartitions": 128, "pointCloudNoise": 0.2}, "nDim": 54, "algorithm": "GD", "pr": 0.7831314406842622, "totalLoss": 352465.7332435764, "nExamples": 581012, "runtimeMS": 20070, "regPenalty": 1.19117961501456E-5, "trainingError": 0.2932211382897427, "maxW": 0.27159508481841405, "minW": -0.6565145091291347, "iterations": 54, "roc": 0.8067714246863521}\n'
p214
sg30
I1000
sg31
I-1
ssVstats
p215
(dp216
Vruntime
p217
I20070
sViterations
p218
I54
ssVtotalLoss
p219
F352465.73324357643
sValgorithm
p220
VGD
p221
sVregPenalty
p222
F1.19117961501456e-05
sVroc
p223
F0.8067714246863521
sVmaxW
p224
F0.27159508481841405
sVnExamples
p225
I581012
sVruntimeMS
p226
I20070
sVparams
p227
(dp228
VpointCloudDim
p229
I10
sVinput
p230
V/user/root/bismarck_data/forest*
p231
sValgorithm
p232
VGD
p233
sVformat
p234
Vbismarck
p235
sVpointCloudSize
p236
F1.0
sVwikipediaTargetWordToken
p237
I4690
sVdblpSplitYear
p238
I2007
sVnumPartitions
p239
I128
sValgParams
p240
(dp241
VregParam
p242
F1.7211348474730298e-05
sVmaxIterations
p243
I1000
sVusePorkChop
p244
I00
sVtol
p245
F0.0
sVworkerTol
p246
F-1.0
sVadaptiveRho
p247
I00
sVuseLBFGS
p248
I00
sVrho0
p249
F1000.0
sVdisplayIncrementalStats
p250
I00
sVminiBatchSize
p251
I10
sVlocalTimeout
p252
I-1
sVmaxWorkerIterations
p253
I100000
sVruntimeMS
p254
I20000
sVbroadcastDelayMS
p255
I-1
sVeta0
p256
F1.0
sVlagrangianRho
p257
F1000.0
sVuseLineSearch
p258
I00
ssVinputTokenHashKernelDimension
p259
I100
sVpointCloudPoints
p260
I10000
sVregType
p261
VL2
p262
sVuseLR
p263
I00
sVpointCloudNoise
p264
F0.20000000000000001
sVpointCloudSkew
p265
F0.0
ssViterations
p266
I54
sVtrainingLoss
p267
F352465.73323166464
sVminW
p268
F-0.65651450912913467
sVtrainingError
p269
F0.29322113828974272
sa(dp270
VnDim
p271
I54
sVpr
p272
F0.78272731895490921
sg4
(dp273
g6
I-1
sg7
I-1
sg8
I-1
sg9
g10
sg11
I10
sg12
I128
sg13
I4690
sg14
I2007
sg15
I-1
sg16
g17
sg18
I100000
sg19
g20
sg21
S'cd /mnt/spark; sbin/stop-all.sh; sleep 5; sbin/start-all.sh; sleep 3;./bin/spark-submit --driver-memory 52g --class org.apache.spark.examples.mllib.research.SynchronousADMMTests examples/target/scala-*/spark-examples-*.jar --algorithm GD --regType L2 --regParam 10 --format bismarck --numPartitions 128 --runtimeMS 40000 --ADMMmaxLocalIterations 100000 --ADMMepsilon 0.0 --ADMMLocalepsilon -1 --ADMMrho 1000 --ADMMLagrangianrho 1000 --broadcastDelayMs -1 --dblpSplitYear 2007 --wikipediaTargetWordToken 4690 --inputTokenHashKernelDimension 100 --localTimeout -1  --input /user/root/bismarck_data/forest*   '
p274
sg23
I1000
sg24
F0.0
sg25
I100
sg26
g27
sg28
S'RESULT: {"trainingLoss": 344526.52210236544, "stats": {"iterations": 192, "runtime": 40050}, "params": {"format": "bismarck", "algParams": {"usePorkChop": false, "lagrangianRho": 1000.0, "rho0": 1000.0, "maxWorkerIterations": 100000, "useLBFGS": false, "maxIterations": 1000, "eta0": 1.0, "runtimeMS": 40000, "adaptiveRho": false, "broadcastDelayMS": -1, "regParam": 1.72113484747303E-5, "tol": 0.0, "displayIncrementalStats": false, "localTimeout": -1, "useLineSearch": false, "workerTol": -1.0, "miniBatchSize": 10}, "wikipediaTargetWordToken": 4690, "dblpSplitYear": 2007, "regType": "L2", "algorithm": "GD", "inputTokenHashKernelDimension": 100, "useLR": false, "pointCloudPoints": 10000, "pointCloudDim": 10, "pointCloudSize": 1.0, "pointCloudSkew": 0.0, "input": "/user/root/bismarck_data/forest*", "numPartitions": 128, "pointCloudNoise": 0.2}, "nDim": 54, "algorithm": "GD", "pr": 0.7827273189549092, "totalLoss": 344526.52212082024, "nExamples": 581012, "runtimeMS": 40050, "regPenalty": 1.845481179641374E-5, "trainingError": 0.26057293136802684, "maxW": 0.23153077204650893, "minW": -0.9536413213887971, "iterations": 192, "roc": 0.8150093931930492}\n'
p275
sg30
I1000
sg31
I-1
ssVstats
p276
(dp277
Vruntime
p278
I40050
sViterations
p279
I192
ssVtotalLoss
p280
F344526.52212082024
sValgorithm
p281
VGD
p282
sVregPenalty
p283
F1.8454811796413742e-05
sVroc
p284
F0.81500939319304921
sVmaxW
p285
F0.23153077204650893
sVnExamples
p286
I581012
sVruntimeMS
p287
I40050
sVparams
p288
(dp289
VpointCloudDim
p290
I10
sVinput
p291
V/user/root/bismarck_data/forest*
p292
sValgorithm
p293
VGD
p294
sVformat
p295
Vbismarck
p296
sVpointCloudSize
p297
F1.0
sVwikipediaTargetWordToken
p298
I4690
sVdblpSplitYear
p299
I2007
sVnumPartitions
p300
I128
sValgParams
p301
(dp302
VregParam
p303
F1.7211348474730298e-05
sVmaxIterations
p304
I1000
sVusePorkChop
p305
I00
sVtol
p306
F0.0
sVworkerTol
p307
F-1.0
sVadaptiveRho
p308
I00
sVuseLBFGS
p309
I00
sVrho0
p310
F1000.0
sVdisplayIncrementalStats
p311
I00
sVminiBatchSize
p312
I10
sVlocalTimeout
p313
I-1
sVmaxWorkerIterations
p314
I100000
sVruntimeMS
p315
I40000
sVbroadcastDelayMS
p316
I-1
sVeta0
p317
F1.0
sVlagrangianRho
p318
F1000.0
sVuseLineSearch
p319
I00
ssVinputTokenHashKernelDimension
p320
I100
sVpointCloudPoints
p321
I10000
sVregType
p322
VL2
p323
sVuseLR
p324
I00
sVpointCloudNoise
p325
F0.20000000000000001
sVpointCloudSkew
p326
F0.0
ssViterations
p327
I192
sVtrainingLoss
p328
F344526.52210236544
sVminW
p329
F-0.95364132138879709
sVtrainingError
p330
F0.26057293136802684
sa(dp331
VnDim
p332
I54
sVpr
p333
F0.7840481517451019
sg4
(dp334
g6
I-1
sg7
I-1
sg8
I-1
sg9
g10
sg11
I10
sg12
I128
sg13
I4690
sg14
I2007
sg15
I-1
sg16
g17
sg18
I100000
sg19
g20
sg21
S'cd /mnt/spark; sbin/stop-all.sh; sleep 5; sbin/start-all.sh; sleep 3;./bin/spark-submit --driver-memory 52g --class org.apache.spark.examples.mllib.research.SynchronousADMMTests examples/target/scala-*/spark-examples-*.jar --algorithm GD --regType L2 --regParam 10 --format bismarck --numPartitions 128 --runtimeMS 80000 --ADMMmaxLocalIterations 100000 --ADMMepsilon 0.0 --ADMMLocalepsilon -1 --ADMMrho 1000 --ADMMLagrangianrho 1000 --broadcastDelayMs -1 --dblpSplitYear 2007 --wikipediaTargetWordToken 4690 --inputTokenHashKernelDimension 100 --localTimeout -1  --input /user/root/bismarck_data/forest*   '
p335
sg23
I1000
sg24
F0.0
sg25
I100
sg26
g27
sg28
S'RESULT: {"trainingLoss": 339511.43388561346, "stats": {"iterations": 578, "runtime": 80019}, "params": {"format": "bismarck", "algParams": {"usePorkChop": false, "lagrangianRho": 1000.0, "rho0": 1000.0, "maxWorkerIterations": 100000, "useLBFGS": false, "maxIterations": 1000, "eta0": 1.0, "runtimeMS": 80000, "adaptiveRho": false, "broadcastDelayMS": -1, "regParam": 1.72113484747303E-5, "tol": 0.0, "displayIncrementalStats": false, "localTimeout": -1, "useLineSearch": false, "workerTol": -1.0, "miniBatchSize": 10}, "wikipediaTargetWordToken": 4690, "dblpSplitYear": 2007, "regType": "L2", "algorithm": "GD", "inputTokenHashKernelDimension": 100, "useLR": false, "pointCloudPoints": 10000, "pointCloudDim": 10, "pointCloudSize": 1.0, "pointCloudSkew": 0.0, "input": "/user/root/bismarck_data/forest*", "numPartitions": 128, "pointCloudNoise": 0.2}, "nDim": 54, "algorithm": "GD", "pr": 0.7840481517451019, "totalLoss": 339511.43391312164, "nExamples": 581012, "runtimeMS": 80019, "regPenalty": 2.750817105612662E-5, "trainingError": 0.24007077306492808, "maxW": 0.24354666710541034, "minW": -1.266015331156577, "iterations": 578, "roc": 0.820080252793432}\n'
p336
sg30
I1000
sg31
I-1
ssVstats
p337
(dp338
Vruntime
p339
I80019
sViterations
p340
I578
ssVtotalLoss
p341
F339511.43391312164
sValgorithm
p342
VGD
p343
sVregPenalty
p344
F2.7508171056126622e-05
sVroc
p345
F0.820080252793432
sVmaxW
p346
F0.24354666710541034
sVnExamples
p347
I581012
sVruntimeMS
p348
I80019
sVparams
p349
(dp350
VpointCloudDim
p351
I10
sVinput
p352
V/user/root/bismarck_data/forest*
p353
sValgorithm
p354
VGD
p355
sVformat
p356
Vbismarck
p357
sVpointCloudSize
p358
F1.0
sVwikipediaTargetWordToken
p359
I4690
sVdblpSplitYear
p360
I2007
sVnumPartitions
p361
I128
sValgParams
p362
(dp363
VregParam
p364
F1.7211348474730298e-05
sVmaxIterations
p365
I1000
sVusePorkChop
p366
I00
sVtol
p367
F0.0
sVworkerTol
p368
F-1.0
sVadaptiveRho
p369
I00
sVuseLBFGS
p370
I00
sVrho0
p371
F1000.0
sVdisplayIncrementalStats
p372
I00
sVminiBatchSize
p373
I10
sVlocalTimeout
p374
I-1
sVmaxWorkerIterations
p375
I100000
sVruntimeMS
p376
I80000
sVbroadcastDelayMS
p377
I-1
sVeta0
p378
F1.0
sVlagrangianRho
p379
F1000.0
sVuseLineSearch
p380
I00
ssVinputTokenHashKernelDimension
p381
I100
sVpointCloudPoints
p382
I10000
sVregType
p383
VL2
p384
sVuseLR
p385
I00
sVpointCloudNoise
p386
F0.20000000000000001
sVpointCloudSkew
p387
F0.0
ssViterations
p388
I578
sVtrainingLoss
p389
F339511.43388561346
sVminW
p390
F-1.2660153311565769
sVtrainingError
p391
F0.24007077306492808
sa.