(lp0
(dp1
VnDim
p2
I100
sVpr
p3
F7.2287504615844493e-06
sS'pyConfig'
p4
(dp5
S'ADMMlocalEpsilon'
p6
I-1
sS'broadcastDelay'
p7
I-1
sS'pointCloudDim'
p8
I-1
sS'algorithm'
p9
S'GD'
p10
sS'regParam'
p11
I10
sS'numPartitions'
p12
I128
sS'wikipediaTargetWordToken'
p13
I4690
sS'dblpSplitYear'
p14
I2007
sS'localTimeout'
p15
I-1
sS'dataset'
p16
S'wikipedia'
p17
sS'ADMMmaxLocalIterations'
p18
I100000
sS'datasetConfigStr'
p19
S' --input /user/root/wiki/en-wiki-8-7-2014-tokenized.txt'
p20
sS'command'
p21
S'cd /mnt/spark; sbin/stop-all.sh; sleep 5; sbin/start-all.sh; sleep 3;./bin/spark-submit --driver-memory 52g --class org.apache.spark.examples.mllib.research.SynchronousADMMTests examples/target/scala-*/spark-examples-*.jar --algorithm GD --regType L2 --regParam 10 --format wikipedia --numPartitions 128 --runtimeMS 1000 --ADMMmaxLocalIterations 100000 --ADMMepsilon 0.0 --ADMMLocalepsilon -1 --ADMMrho 1000 --ADMMLagrangianrho 1000 --broadcastDelayMs -1 --dblpSplitYear 2007 --wikipediaTargetWordToken 4690 --inputTokenHashKernelDimension 100 --localTimeout -1  --input /user/root/wiki/en-wiki-8-7-2014-tokenized.txt  '
p22
sS'ADMMrho'
p23
I1000
sS'ADMMepsilon'
p24
F0.0
sS'inputTokenHashKernelDimension'
p25
I100
sS'regType'
p26
S'L2'
p27
sS'line'
p28
S'RESULT: {"trainingLoss": 1.3987747914948544E7, "stats": {"iterations": 2, "runtime": 1602}, "params": {"format": "wikipedia", "algParams": {"usePorkChop": false, "lagrangianRho": 1000.0, "rho0": 1000.0, "maxWorkerIterations": 100000, "useLBFGS": false, "maxIterations": 1000, "eta0": 1.0, "runtimeMS": 1000, "adaptiveRho": false, "broadcastDelayMS": -1, "regParam": 1.4823887033679426E-6, "tol": 0.0, "displayIncrementalStats": false, "localTimeout": -1, "useLineSearch": false, "workerTol": -1.0, "miniBatchSize": 10}, "wikipediaTargetWordToken": 4690, "dblpSplitYear": 2007, "regType": "L2", "algorithm": "GD", "inputTokenHashKernelDimension": 100, "useLR": false, "pointCloudPoints": 10000, "pointCloudDim": 10, "pointCloudSize": 1.0, "pointCloudSkew": 0.0, "input": "/user/root/wiki/en-wiki-8-7-2014-tokenized.txt", "numPartitions": 128, "pointCloudNoise": 0.2}, "nDim": 100, "algorithm": "GD", "pr": 7.228750461584449E-6, "totalLoss": 1.3987747915255386E7, "nExamples": 6745869, "runtimeMS": 1602, "regPenalty": 3.068431794418727E-4, "trainingError": 0.05883244990378556, "maxW": 5.344163516961269, "minW": -12.031082726332219, "iterations": 2, "roc": 0.20748810313464872}\n'
p29
sS'ADMMlagrangianRho'
p30
I1000
sS'pointCloudSkew'
p31
I-1
ssVstats
p32
(dp33
Vruntime
p34
I1602
sViterations
p35
I2
ssVtotalLoss
p36
F13987747.915255386
sValgorithm
p37
VGD
p38
sVregPenalty
p39
F0.00030684317944187271
sVroc
p40
F0.20748810313464872
sVmaxW
p41
F5.3441635169612693
sVnExamples
p42
I6745869
sVruntimeMS
p43
I1602
sVparams
p44
(dp45
VpointCloudDim
p46
I10
sVinput
p47
V/user/root/wiki/en-wiki-8-7-2014-tokenized.txt
p48
sValgorithm
p49
VGD
p50
sVformat
p51
Vwikipedia
p52
sVpointCloudSize
p53
F1.0
sVwikipediaTargetWordToken
p54
I4690
sVdblpSplitYear
p55
I2007
sVnumPartitions
p56
I128
sValgParams
p57
(dp58
VregParam
p59
F1.4823887033679426e-06
sVmaxIterations
p60
I1000
sVusePorkChop
p61
I00
sVtol
p62
F0.0
sVworkerTol
p63
F-1.0
sVadaptiveRho
p64
I00
sVuseLBFGS
p65
I00
sVrho0
p66
F1000.0
sVdisplayIncrementalStats
p67
I00
sVminiBatchSize
p68
I10
sVlocalTimeout
p69
I-1
sVmaxWorkerIterations
p70
I100000
sVruntimeMS
p71
I1000
sVbroadcastDelayMS
p72
I-1
sVeta0
p73
F1.0
sVlagrangianRho
p74
F1000.0
sVuseLineSearch
p75
I00
ssVinputTokenHashKernelDimension
p76
I100
sVpointCloudPoints
p77
I10000
sVregType
p78
VL2
p79
sVuseLR
p80
I00
sVpointCloudNoise
p81
F0.20000000000000001
sVpointCloudSkew
p82
F0.0
ssViterations
p83
I2
sVtrainingLoss
p84
F13987747.914948544
sVminW
p85
F-12.031082726332219
sVtrainingError
p86
F0.058832449903785562
sa(dp87
VnDim
p88
I100
sVpr
p89
F7.299212590077748e-06
sg4
(dp90
g6
I-1
sg7
I-1
sg8
I-1
sg9
g10
sg11
I10
sg12
I128
sg13
I4690
sg14
I2007
sg15
I-1
sg16
g17
sg18
I100000
sg19
g20
sg21
S'cd /mnt/spark; sbin/stop-all.sh; sleep 5; sbin/start-all.sh; sleep 3;./bin/spark-submit --driver-memory 52g --class org.apache.spark.examples.mllib.research.SynchronousADMMTests examples/target/scala-*/spark-examples-*.jar --algorithm GD --regType L2 --regParam 10 --format wikipedia --numPartitions 128 --runtimeMS 5000 --ADMMmaxLocalIterations 100000 --ADMMepsilon 0.0 --ADMMLocalepsilon -1 --ADMMrho 1000 --ADMMLagrangianrho 1000 --broadcastDelayMs -1 --dblpSplitYear 2007 --wikipediaTargetWordToken 4690 --inputTokenHashKernelDimension 100 --localTimeout -1  --input /user/root/wiki/en-wiki-8-7-2014-tokenized.txt  '
p91
sg23
I1000
sg24
F0.0
sg25
I100
sg26
g27
sg28
S'RESULT: {"trainingLoss": 1.1242548403472256E7, "stats": {"iterations": 15, "runtime": 5177}, "params": {"format": "wikipedia", "algParams": {"usePorkChop": false, "lagrangianRho": 1000.0, "rho0": 1000.0, "maxWorkerIterations": 100000, "useLBFGS": false, "maxIterations": 1000, "eta0": 1.0, "runtimeMS": 5000, "adaptiveRho": false, "broadcastDelayMS": -1, "regParam": 1.4823887033679426E-6, "tol": 0.0, "displayIncrementalStats": false, "localTimeout": -1, "useLineSearch": false, "workerTol": -1.0, "miniBatchSize": 10}, "wikipediaTargetWordToken": 4690, "dblpSplitYear": 2007, "regType": "L2", "algorithm": "GD", "inputTokenHashKernelDimension": 100, "useLR": false, "pointCloudPoints": 10000, "pointCloudDim": 10, "pointCloudSize": 1.0, "pointCloudSkew": 0.0, "input": "/user/root/wiki/en-wiki-8-7-2014-tokenized.txt", "numPartitions": 128, "pointCloudNoise": 0.2}, "nDim": 100, "algorithm": "GD", "pr": 7.299212590077748E-6, "totalLoss": 1.1242548403765447E7, "nExamples": 6745869, "runtimeMS": 5177, "regPenalty": 2.9319156869816364E-4, "trainingError": 0.05439610523121632, "maxW": 5.081953697354841, "minW": -11.577882300133997, "iterations": 15, "roc": 0.20868738102034917}\n'
p92
sg30
I1000
sg31
I-1
ssVstats
p93
(dp94
Vruntime
p95
I5177
sViterations
p96
I15
ssVtotalLoss
p97
F11242548.403765447
sValgorithm
p98
VGD
p99
sVregPenalty
p100
F0.00029319156869816364
sVroc
p101
F0.20868738102034917
sVmaxW
p102
F5.0819536973548409
sVnExamples
p103
I6745869
sVruntimeMS
p104
I5177
sVparams
p105
(dp106
VpointCloudDim
p107
I10
sVinput
p108
V/user/root/wiki/en-wiki-8-7-2014-tokenized.txt
p109
sValgorithm
p110
VGD
p111
sVformat
p112
Vwikipedia
p113
sVpointCloudSize
p114
F1.0
sVwikipediaTargetWordToken
p115
I4690
sVdblpSplitYear
p116
I2007
sVnumPartitions
p117
I128
sValgParams
p118
(dp119
VregParam
p120
F1.4823887033679426e-06
sVmaxIterations
p121
I1000
sVusePorkChop
p122
I00
sVtol
p123
F0.0
sVworkerTol
p124
F-1.0
sVadaptiveRho
p125
I00
sVuseLBFGS
p126
I00
sVrho0
p127
F1000.0
sVdisplayIncrementalStats
p128
I00
sVminiBatchSize
p129
I10
sVlocalTimeout
p130
I-1
sVmaxWorkerIterations
p131
I100000
sVruntimeMS
p132
I5000
sVbroadcastDelayMS
p133
I-1
sVeta0
p134
F1.0
sVlagrangianRho
p135
F1000.0
sVuseLineSearch
p136
I00
ssVinputTokenHashKernelDimension
p137
I100
sVpointCloudPoints
p138
I10000
sVregType
p139
VL2
p140
sVuseLR
p141
I00
sVpointCloudNoise
p142
F0.20000000000000001
sVpointCloudSkew
p143
F0.0
ssViterations
p144
I15
sVtrainingLoss
p145
F11242548.403472256
sVminW
p146
F-11.577882300133997
sVtrainingError
p147
F0.054396105231216317
sa(dp148
VnDim
p149
I100
sVpr
p150
F7.3358525707037565e-06
sg4
(dp151
g6
I-1
sg7
I-1
sg8
I-1
sg9
g10
sg11
I10
sg12
I128
sg13
I4690
sg14
I2007
sg15
I-1
sg16
g17
sg18
I100000
sg19
g20
sg21
S'cd /mnt/spark; sbin/stop-all.sh; sleep 5; sbin/start-all.sh; sleep 3;./bin/spark-submit --driver-memory 52g --class org.apache.spark.examples.mllib.research.SynchronousADMMTests examples/target/scala-*/spark-examples-*.jar --algorithm GD --regType L2 --regParam 10 --format wikipedia --numPartitions 128 --runtimeMS 10000 --ADMMmaxLocalIterations 100000 --ADMMepsilon 0.0 --ADMMLocalepsilon -1 --ADMMrho 1000 --ADMMLagrangianrho 1000 --broadcastDelayMs -1 --dblpSplitYear 2007 --wikipediaTargetWordToken 4690 --inputTokenHashKernelDimension 100 --localTimeout -1  --input /user/root/wiki/en-wiki-8-7-2014-tokenized.txt  '
p152
sg23
I1000
sg24
F0.0
sg25
I100
sg26
g27
sg28
S'RESULT: {"trainingLoss": 9999259.260055473, "stats": {"iterations": 31, "runtime": 10127}, "params": {"format": "wikipedia", "algParams": {"usePorkChop": false, "lagrangianRho": 1000.0, "rho0": 1000.0, "maxWorkerIterations": 100000, "useLBFGS": false, "maxIterations": 1000, "eta0": 1.0, "runtimeMS": 10000, "adaptiveRho": false, "broadcastDelayMS": -1, "regParam": 1.4823887033679426E-6, "tol": 0.0, "displayIncrementalStats": false, "localTimeout": -1, "useLineSearch": false, "workerTol": -1.0, "miniBatchSize": 10}, "wikipediaTargetWordToken": 4690, "dblpSplitYear": 2007, "regType": "L2", "algorithm": "GD", "inputTokenHashKernelDimension": 100, "useLR": false, "pointCloudPoints": 10000, "pointCloudDim": 10, "pointCloudSize": 1.0, "pointCloudSkew": 0.0, "input": "/user/root/wiki/en-wiki-8-7-2014-tokenized.txt", "numPartitions": 128, "pointCloudNoise": 0.2}, "nDim": 100, "algorithm": "GD", "pr": 7.3358525707037565E-6, "totalLoss": 9999259.260340989, "nExamples": 6745869, "runtimeMS": 10127, "regPenalty": 2.855157744463499E-4, "trainingError": 0.05222351634756026, "maxW": 4.92774591279854, "minW": -11.298632953526793, "iterations": 31, "roc": 0.20946442066040147}\n'
p153
sg30
I1000
sg31
I-1
ssVstats
p154
(dp155
Vruntime
p156
I10127
sViterations
p157
I31
ssVtotalLoss
p158
F9999259.2603409886
sValgorithm
p159
VGD
p160
sVregPenalty
p161
F0.0002855157744463499
sVroc
p162
F0.20946442066040147
sVmaxW
p163
F4.9277459127985397
sVnExamples
p164
I6745869
sVruntimeMS
p165
I10127
sVparams
p166
(dp167
VpointCloudDim
p168
I10
sVinput
p169
V/user/root/wiki/en-wiki-8-7-2014-tokenized.txt
p170
sValgorithm
p171
VGD
p172
sVformat
p173
Vwikipedia
p174
sVpointCloudSize
p175
F1.0
sVwikipediaTargetWordToken
p176
I4690
sVdblpSplitYear
p177
I2007
sVnumPartitions
p178
I128
sValgParams
p179
(dp180
VregParam
p181
F1.4823887033679426e-06
sVmaxIterations
p182
I1000
sVusePorkChop
p183
I00
sVtol
p184
F0.0
sVworkerTol
p185
F-1.0
sVadaptiveRho
p186
I00
sVuseLBFGS
p187
I00
sVrho0
p188
F1000.0
sVdisplayIncrementalStats
p189
I00
sVminiBatchSize
p190
I10
sVlocalTimeout
p191
I-1
sVmaxWorkerIterations
p192
I100000
sVruntimeMS
p193
I10000
sVbroadcastDelayMS
p194
I-1
sVeta0
p195
F1.0
sVlagrangianRho
p196
F1000.0
sVuseLineSearch
p197
I00
ssVinputTokenHashKernelDimension
p198
I100
sVpointCloudPoints
p199
I10000
sVregType
p200
VL2
p201
sVuseLR
p202
I00
sVpointCloudNoise
p203
F0.20000000000000001
sVpointCloudSkew
p204
F0.0
ssViterations
p205
I31
sVtrainingLoss
p206
F9999259.2600554731
sVminW
p207
F-11.298632953526793
sVtrainingError
p208
F0.052223516347560263
sa(dp209
VnDim
p210
I100
sVpr
p211
F7.4063613882845989e-06
sg4
(dp212
g6
I-1
sg7
I-1
sg8
I-1
sg9
g10
sg11
I10
sg12
I128
sg13
I4690
sg14
I2007
sg15
I-1
sg16
g17
sg18
I100000
sg19
g20
sg21
S'cd /mnt/spark; sbin/stop-all.sh; sleep 5; sbin/start-all.sh; sleep 3;./bin/spark-submit --driver-memory 52g --class org.apache.spark.examples.mllib.research.SynchronousADMMTests examples/target/scala-*/spark-examples-*.jar --algorithm GD --regType L2 --regParam 10 --format wikipedia --numPartitions 128 --runtimeMS 20000 --ADMMmaxLocalIterations 100000 --ADMMepsilon 0.0 --ADMMLocalepsilon -1 --ADMMrho 1000 --ADMMLagrangianrho 1000 --broadcastDelayMs -1 --dblpSplitYear 2007 --wikipediaTargetWordToken 4690 --inputTokenHashKernelDimension 100 --localTimeout -1  --input /user/root/wiki/en-wiki-8-7-2014-tokenized.txt  '
p213
sg23
I1000
sg24
F0.0
sg25
I100
sg26
g27
sg28
S'RESULT: {"trainingLoss": 8042213.64310472, "stats": {"iterations": 88, "runtime": 20156}, "params": {"format": "wikipedia", "algParams": {"usePorkChop": false, "lagrangianRho": 1000.0, "rho0": 1000.0, "maxWorkerIterations": 100000, "useLBFGS": false, "maxIterations": 1000, "eta0": 1.0, "runtimeMS": 20000, "adaptiveRho": false, "broadcastDelayMS": -1, "regParam": 1.4823887033679426E-6, "tol": 0.0, "displayIncrementalStats": false, "localTimeout": -1, "useLineSearch": false, "workerTol": -1.0, "miniBatchSize": 10}, "wikipediaTargetWordToken": 4690, "dblpSplitYear": 2007, "regType": "L2", "algorithm": "GD", "inputTokenHashKernelDimension": 100, "useLR": false, "pointCloudPoints": 10000, "pointCloudDim": 10, "pointCloudSize": 1.0, "pointCloudSkew": 0.0, "input": "/user/root/wiki/en-wiki-8-7-2014-tokenized.txt", "numPartitions": 128, "pointCloudNoise": 0.2}, "nDim": 100, "algorithm": "GD", "pr": 7.406361388284599E-6, "totalLoss": 8042213.643375832, "nExamples": 6745869, "runtimeMS": 20156, "regPenalty": 2.7111201746103175E-4, "trainingError": 0.048762138725196115, "maxW": 4.6243510758080575, "minW": -10.72882051736487, "iterations": 88, "roc": 0.21097558788152485}\n'
p214
sg30
I1000
sg31
I-1
ssVstats
p215
(dp216
Vruntime
p217
I20156
sViterations
p218
I88
ssVtotalLoss
p219
F8042213.6433758317
sValgorithm
p220
VGD
p221
sVregPenalty
p222
F0.00027111201746103175
sVroc
p223
F0.21097558788152485
sVmaxW
p224
F4.6243510758080575
sVnExamples
p225
I6745869
sVruntimeMS
p226
I20156
sVparams
p227
(dp228
VpointCloudDim
p229
I10
sVinput
p230
V/user/root/wiki/en-wiki-8-7-2014-tokenized.txt
p231
sValgorithm
p232
VGD
p233
sVformat
p234
Vwikipedia
p235
sVpointCloudSize
p236
F1.0
sVwikipediaTargetWordToken
p237
I4690
sVdblpSplitYear
p238
I2007
sVnumPartitions
p239
I128
sValgParams
p240
(dp241
VregParam
p242
F1.4823887033679426e-06
sVmaxIterations
p243
I1000
sVusePorkChop
p244
I00
sVtol
p245
F0.0
sVworkerTol
p246
F-1.0
sVadaptiveRho
p247
I00
sVuseLBFGS
p248
I00
sVrho0
p249
F1000.0
sVdisplayIncrementalStats
p250
I00
sVminiBatchSize
p251
I10
sVlocalTimeout
p252
I-1
sVmaxWorkerIterations
p253
I100000
sVruntimeMS
p254
I20000
sVbroadcastDelayMS
p255
I-1
sVeta0
p256
F1.0
sVlagrangianRho
p257
F1000.0
sVuseLineSearch
p258
I00
ssVinputTokenHashKernelDimension
p259
I100
sVpointCloudPoints
p260
I10000
sVregType
p261
VL2
p262
sVuseLR
p263
I00
sVpointCloudNoise
p264
F0.20000000000000001
sVpointCloudSkew
p265
F0.0
ssViterations
p266
I88
sVtrainingLoss
p267
F8042213.6431047199
sVminW
p268
F-10.72882051736487
sVtrainingError
p269
F0.048762138725196115
sa(dp270
VnDim
p271
I100
sVpr
p272
F7.4658579968977639e-06
sg4
(dp273
g6
I-1
sg7
I-1
sg8
I-1
sg9
g10
sg11
I10
sg12
I128
sg13
I4690
sg14
I2007
sg15
I-1
sg16
g17
sg18
I100000
sg19
g20
sg21
S'cd /mnt/spark; sbin/stop-all.sh; sleep 5; sbin/start-all.sh; sleep 3;./bin/spark-submit --driver-memory 52g --class org.apache.spark.examples.mllib.research.SynchronousADMMTests examples/target/scala-*/spark-examples-*.jar --algorithm GD --regType L2 --regParam 10 --format wikipedia --numPartitions 128 --runtimeMS 40000 --ADMMmaxLocalIterations 100000 --ADMMepsilon 0.0 --ADMMLocalepsilon -1 --ADMMrho 1000 --ADMMLagrangianrho 1000 --broadcastDelayMs -1 --dblpSplitYear 2007 --wikipediaTargetWordToken 4690 --inputTokenHashKernelDimension 100 --localTimeout -1  --input /user/root/wiki/en-wiki-8-7-2014-tokenized.txt  '
p274
sg23
I1000
sg24
F0.0
sg25
I100
sg26
g27
sg28
S'RESULT: {"trainingLoss": 6642352.35667163, "stats": {"iterations": 190, "runtime": 40051}, "params": {"format": "wikipedia", "algParams": {"usePorkChop": false, "lagrangianRho": 1000.0, "rho0": 1000.0, "maxWorkerIterations": 100000, "useLBFGS": false, "maxIterations": 1000, "eta0": 1.0, "runtimeMS": 40000, "adaptiveRho": false, "broadcastDelayMS": -1, "regParam": 1.4823887033679426E-6, "tol": 0.0, "displayIncrementalStats": false, "localTimeout": -1, "useLineSearch": false, "workerTol": -1.0, "miniBatchSize": 10}, "wikipediaTargetWordToken": 4690, "dblpSplitYear": 2007, "regType": "L2", "algorithm": "GD", "inputTokenHashKernelDimension": 100, "useLR": false, "pointCloudPoints": 10000, "pointCloudDim": 10, "pointCloudSize": 1.0, "pointCloudSkew": 0.0, "input": "/user/root/wiki/en-wiki-8-7-2014-tokenized.txt", "numPartitions": 128, "pointCloudNoise": 0.2}, "nDim": 100, "algorithm": "GD", "pr": 7.465857996897764E-6, "totalLoss": 6642352.356929336, "nExamples": 6745869, "runtimeMS": 40051, "regPenalty": 2.5770522596839276E-4, "trainingError": 0.04618352357568758, "maxW": 4.318409624823533, "minW": -10.158871126082941, "iterations": 190, "roc": 0.21223111948672546}\n'
p275
sg30
I1000
sg31
I-1
ssVstats
p276
(dp277
Vruntime
p278
I40051
sViterations
p279
I190
ssVtotalLoss
p280
F6642352.3569293357
sValgorithm
p281
VGD
p282
sVregPenalty
p283
F0.00025770522596839276
sVroc
p284
F0.21223111948672546
sVmaxW
p285
F4.3184096248235333
sVnExamples
p286
I6745869
sVruntimeMS
p287
I40051
sVparams
p288
(dp289
VpointCloudDim
p290
I10
sVinput
p291
V/user/root/wiki/en-wiki-8-7-2014-tokenized.txt
p292
sValgorithm
p293
VGD
p294
sVformat
p295
Vwikipedia
p296
sVpointCloudSize
p297
F1.0
sVwikipediaTargetWordToken
p298
I4690
sVdblpSplitYear
p299
I2007
sVnumPartitions
p300
I128
sValgParams
p301
(dp302
VregParam
p303
F1.4823887033679426e-06
sVmaxIterations
p304
I1000
sVusePorkChop
p305
I00
sVtol
p306
F0.0
sVworkerTol
p307
F-1.0
sVadaptiveRho
p308
I00
sVuseLBFGS
p309
I00
sVrho0
p310
F1000.0
sVdisplayIncrementalStats
p311
I00
sVminiBatchSize
p312
I10
sVlocalTimeout
p313
I-1
sVmaxWorkerIterations
p314
I100000
sVruntimeMS
p315
I40000
sVbroadcastDelayMS
p316
I-1
sVeta0
p317
F1.0
sVlagrangianRho
p318
F1000.0
sVuseLineSearch
p319
I00
ssVinputTokenHashKernelDimension
p320
I100
sVpointCloudPoints
p321
I10000
sVregType
p322
VL2
p323
sVuseLR
p324
I00
sVpointCloudNoise
p325
F0.20000000000000001
sVpointCloudSkew
p326
F0.0
ssViterations
p327
I190
sVtrainingLoss
p328
F6642352.3566716304
sVminW
p329
F-10.158871126082941
sVtrainingError
p330
F0.046183523575687578
sa(dp331
VnDim
p332
I100
sVpr
p333
F7.5870390400888365e-06
sg4
(dp334
g6
I-1
sg7
I-1
sg8
I-1
sg9
g10
sg11
I10
sg12
I128
sg13
I4690
sg14
I2007
sg15
I-1
sg16
g17
sg18
I100000
sg19
g20
sg21
S'cd /mnt/spark; sbin/stop-all.sh; sleep 5; sbin/start-all.sh; sleep 3;./bin/spark-submit --driver-memory 52g --class org.apache.spark.examples.mllib.research.SynchronousADMMTests examples/target/scala-*/spark-examples-*.jar --algorithm GD --regType L2 --regParam 10 --format wikipedia --numPartitions 128 --runtimeMS 80000 --ADMMmaxLocalIterations 100000 --ADMMepsilon 0.0 --ADMMLocalepsilon -1 --ADMMrho 1000 --ADMMLagrangianrho 1000 --broadcastDelayMs -1 --dblpSplitYear 2007 --wikipediaTargetWordToken 4690 --inputTokenHashKernelDimension 100 --localTimeout -1  --input /user/root/wiki/en-wiki-8-7-2014-tokenized.txt  '
p335
sg23
I1000
sg24
F0.0
sg25
I100
sg26
g27
sg28
S'RESULT: {"trainingLoss": 5499802.093933765, "stats": {"iterations": 437, "runtime": 80037}, "params": {"format": "wikipedia", "algParams": {"usePorkChop": false, "lagrangianRho": 1000.0, "rho0": 1000.0, "maxWorkerIterations": 100000, "useLBFGS": false, "maxIterations": 1000, "eta0": 1.0, "runtimeMS": 80000, "adaptiveRho": false, "broadcastDelayMS": -1, "regParam": 1.4823887033679426E-6, "tol": 0.0, "displayIncrementalStats": false, "localTimeout": -1, "useLineSearch": false, "workerTol": -1.0, "miniBatchSize": 10}, "wikipediaTargetWordToken": 4690, "dblpSplitYear": 2007, "regType": "L2", "algorithm": "GD", "inputTokenHashKernelDimension": 100, "useLR": false, "pointCloudPoints": 10000, "pointCloudDim": 10, "pointCloudSize": 1.0, "pointCloudSkew": 0.0, "input": "/user/root/wiki/en-wiki-8-7-2014-tokenized.txt", "numPartitions": 128, "pointCloudNoise": 0.2}, "nDim": 100, "algorithm": "GD", "pr": 7.5870390400888365E-6, "totalLoss": 5499802.09417379, "nExamples": 6745869, "runtimeMS": 80037, "regPenalty": 2.4002481155160766E-4, "trainingError": 0.043065911893634456, "maxW": 3.884670826655902, "minW": -9.350716691648103, "iterations": 437, "roc": 0.2138402050953502}\n'
p336
sg30
I1000
sg31
I-1
ssVstats
p337
(dp338
Vruntime
p339
I80037
sViterations
p340
I437
ssVtotalLoss
p341
F5499802.09417379
sValgorithm
p342
VGD
p343
sVregPenalty
p344
F0.00024002481155160766
sVroc
p345
F0.21384020509535021
sVmaxW
p346
F3.8846708266559018
sVnExamples
p347
I6745869
sVruntimeMS
p348
I80037
sVparams
p349
(dp350
VpointCloudDim
p351
I10
sVinput
p352
V/user/root/wiki/en-wiki-8-7-2014-tokenized.txt
p353
sValgorithm
p354
VGD
p355
sVformat
p356
Vwikipedia
p357
sVpointCloudSize
p358
F1.0
sVwikipediaTargetWordToken
p359
I4690
sVdblpSplitYear
p360
I2007
sVnumPartitions
p361
I128
sValgParams
p362
(dp363
VregParam
p364
F1.4823887033679426e-06
sVmaxIterations
p365
I1000
sVusePorkChop
p366
I00
sVtol
p367
F0.0
sVworkerTol
p368
F-1.0
sVadaptiveRho
p369
I00
sVuseLBFGS
p370
I00
sVrho0
p371
F1000.0
sVdisplayIncrementalStats
p372
I00
sVminiBatchSize
p373
I10
sVlocalTimeout
p374
I-1
sVmaxWorkerIterations
p375
I100000
sVruntimeMS
p376
I80000
sVbroadcastDelayMS
p377
I-1
sVeta0
p378
F1.0
sVlagrangianRho
p379
F1000.0
sVuseLineSearch
p380
I00
ssVinputTokenHashKernelDimension
p381
I100
sVpointCloudPoints
p382
I10000
sVregType
p383
VL2
p384
sVuseLR
p385
I00
sVpointCloudNoise
p386
F0.20000000000000001
sVpointCloudSkew
p387
F0.0
ssViterations
p388
I437
sVtrainingLoss
p389
F5499802.0939337648
sVminW
p390
F-9.3507166916481026
sVtrainingError
p391
F0.043065911893634456
sa.