(lp0
(dp1
VnDim
p2
I3
sVpr
p3
F0.93618467256770033
sS'pyConfig'
p4
(dp5
S'ADMMlocalEpsilon'
p6
I0
sS'broadcastDelay'
p7
I-1
sS'pointCloudDim'
p8
I3
sS'algorithm'
p9
S'AVG'
p10
sS'regParam'
p11
I10
sS'numPartitions'
p12
I128
sS'wikipediaTargetWordToken'
p13
I4690
sS'dblpSplitYear'
p14
I2007
sS'localTimeout'
p15
I10000000
sS'dataset'
p16
S'cloud'
p17
sS'ADMMmaxLocalIterations'
p18
I1000000
sS'datasetConfigStr'
p19
S'--pointCloudPointsPerPartition 500000 --pointCloudPartitionSkew 0 --pointCloudLabelNoise 0.05 --pointCloudDimension 3 '
p20
sS'command'
p21
S'cd /mnt/spark; sbin/stop-all.sh; sleep 5; sbin/start-all.sh; sleep 3;./bin/spark-submit --driver-memory 52g --class org.apache.spark.examples.mllib.research.SynchronousADMMTests examples/target/scala-*/spark-examples-*.jar --algorithm ADMM --regType L2 --regParam 10 --format cloud --numPartitions 128 --runtimeMS 1000 --ADMMmaxLocalIterations 1000000 --ADMMepsilon 0.0 --ADMMLocalepsilon 0 --ADMMrho 1000 --ADMMLagrangianrho 1000 --broadcastDelayMs -1 --dblpSplitYear 2007 --wikipediaTargetWordToken 4690 --inputTokenHashKernelDimension 100 --localTimeout 10000000 --pointCloudPointsPerPartition 500000 --pointCloudPartitionSkew 0 --pointCloudLabelNoise 0.05 --pointCloudDimension 3   '
p22
sS'ADMMrho'
p23
I1000
sS'ADMMepsilon'
p24
F0.0
sS'inputTokenHashKernelDimension'
p25
I100
sS'regType'
p26
S'L2'
p27
sS'line'
p28
S'RESULT: {"trainingLoss": 6.132470477509806E7, "stats": {"dualAvgNorm": 0.0, "stats": {"avgDualUpdates": [1.0, 1.0, 1.0], "primalAvg": [0.009270355138908322, 0.009310580062722925, -0.1470658892946436], "dualAvg": [0.0, 0.0, 0.0], "avgResidual": [4.013134418378073E-6, 0.0024297345546960723, 0.042330123455682586], "avgMsgsSent": [0.0, 0.0, 0.0], "avgMsgsRcvd": [0.0, 0.0, 0.0], "avgLocalIters": [0.0, 0.0, 0.0], "avgSGDIters": [82200.0, 105798.4375, 134000.0]}, "dualUpdates": [1.0, 1.0, 1.0], "primalAvgNorm": 0.14765162437145832, "avgSGDIters": [82200.0, 105798.4375, 134000.0], "iterations": 1, "runtime": 1256, "consensusNorm": 0.14764008998942788}, "params": {"format": "cloud", "algParams": {"usePorkChop": false, "lagrangianRho": 1000.0, "rho0": 1000.0, "maxWorkerIterations": 1000000, "useLBFGS": false, "maxIterations": 1000, "eta0": 1.0, "runtimeMS": 1000, "adaptiveRho": false, "broadcastDelayMS": -1, "regParam": 10.0, "tol": 0.0, "displayIncrementalStats": false, "localTimeout": 10000000, "useLineSearch": false, "workerTol": 0.0, "miniBatchSize": 10}, "wikipediaTargetWordToken": 4690, "dblpSplitYear": 2007, "regType": "L2", "algorithm": "ADMM", "inputTokenHashKernelDimension": 100, "useLR": false, "pointCloudPoints": 500000, "pointCloudDim": 3, "pointCloudSize": 1.0, "pointCloudSkew": 0.0, "input": "null", "numPartitions": 128, "pointCloudNoise": 0.05}, "nDim": 3, "algorithm": "ADMM", "pr": 0.9361846725677003, "totalLoss": 6.132470488408604E7, "nExamples": 64000000, "runtimeMS": 1256, "regPenalty": 0.10898798086043181, "trainingError": 0.050731125, "maxW": 0.009309852730478357, "minW": -0.14705440066959127, "iterations": 1, "roc": 0.9499754208402937}\n'
p29
sS'ADMMlagrangianRho'
p30
I1000
sS'pointCloudSkew'
p31
I0
ssVstats
p32
(dp33
Vstats
p34
(dp35
VavgMsgsRcvd
p36
(lp37
F0.0
aF0.0
aF0.0
asVavgMsgsSent
p38
(lp39
F0.0
aF0.0
aF0.0
asVavgDualUpdates
p40
(lp41
F1.0
aF1.0
aF1.0
asVavgLocalIters
p42
(lp43
F0.0
aF0.0
aF0.0
asVavgResidual
p44
(lp45
F4.013134418378073e-06
aF0.0024297345546960723
aF0.042330123455682586
asVprimalAvg
p46
(lp47
F0.0092703551389083216
aF0.0093105800627229247
aF-0.14706588929464359
asVdualAvg
p48
(lp49
F0.0
aF0.0
aF0.0
asVavgSGDIters
p50
(lp51
F82200.0
aF105798.4375
aF134000.0
assVconsensusNorm
p52
F0.14764008998942788
sVdualUpdates
p53
(lp54
F1.0
aF1.0
aF1.0
asVdualAvgNorm
p55
F0.0
sVprimalAvgNorm
p56
F0.14765162437145832
sViterations
p57
I1
sVruntime
p58
I1256
sVavgSGDIters
p59
(lp60
F82200.0
aF105798.4375
aF134000.0
assVtotalLoss
p61
F61324704.884086043
sValgorithm
p62
VADMM
p63
sVregPenalty
p64
F0.10898798086043181
sVroc
p65
F0.94997542084029374
sVmaxW
p66
F0.009309852730478357
sVnExamples
p67
I64000000
sVruntimeMS
p68
I1256
sVparams
p69
(dp70
VpointCloudDim
p71
I3
sVinput
p72
Vnull
p73
sValgorithm
p74
VADMM
p75
sVformat
p76
Vcloud
p77
sVpointCloudSize
p78
F1.0
sVwikipediaTargetWordToken
p79
I4690
sVdblpSplitYear
p80
I2007
sVnumPartitions
p81
I128
sValgParams
p82
(dp83
VregParam
p84
F10.0
sVmaxIterations
p85
I1000
sVusePorkChop
p86
I00
sVtol
p87
F0.0
sVworkerTol
p88
F0.0
sVadaptiveRho
p89
I00
sVuseLBFGS
p90
I00
sVrho0
p91
F1000.0
sVdisplayIncrementalStats
p92
I00
sVminiBatchSize
p93
I10
sVlocalTimeout
p94
I10000000
sVmaxWorkerIterations
p95
I1000000
sVruntimeMS
p96
I1000
sVbroadcastDelayMS
p97
I-1
sVeta0
p98
F1.0
sVlagrangianRho
p99
F1000.0
sVuseLineSearch
p100
I00
ssVinputTokenHashKernelDimension
p101
I100
sVpointCloudPoints
p102
I500000
sVregType
p103
VL2
p104
sVuseLR
p105
I00
sVpointCloudNoise
p106
F0.050000000000000003
sVpointCloudSkew
p107
F0.0
ssViterations
p108
I1
sVtrainingLoss
p109
F61324704.775098063
sVminW
p110
F-0.14705440066959127
sVtrainingError
p111
F0.050731125000000002
sa(dp112
VnDim
p113
I3
sVpr
p114
F0.93618476284817442
sg4
(dp115
g6
I-1
sg7
I-1
sg8
I3
sg9
S'GD'
p116
sg11
I10
sg12
I128
sg13
I4690
sg14
I2007
sg15
I-1
sg16
g17
sg18
I100000
sg19
S'--pointCloudPointsPerPartition 500000 --pointCloudPartitionSkew 0 --pointCloudLabelNoise 0.05 --pointCloudDimension 3 '
p117
sg21
S'cd /mnt/spark; sbin/stop-all.sh; sleep 5; sbin/start-all.sh; sleep 3;./bin/spark-submit --driver-memory 52g --class org.apache.spark.examples.mllib.research.SynchronousADMMTests examples/target/scala-*/spark-examples-*.jar --algorithm GD --regType L2 --regParam 10 --format cloud --numPartitions 128 --runtimeMS 1000 --ADMMmaxLocalIterations 100000 --ADMMepsilon 0.0 --ADMMLocalepsilon -1 --ADMMrho 1000 --ADMMLagrangianrho 1000 --broadcastDelayMs -1 --dblpSplitYear 2007 --wikipediaTargetWordToken 4690 --inputTokenHashKernelDimension 100 --localTimeout -1 --pointCloudPointsPerPartition 500000 --pointCloudPartitionSkew 0 --pointCloudLabelNoise 0.05 --pointCloudDimension 3   '
p118
sg23
I1000
sg24
F0.0
sg25
I100
sg26
g27
sg28
S'RESULT: {"trainingLoss": 7.880554519116822E8, "stats": {"iterations": 2, "runtime": 2453}, "params": {"format": "cloud", "algParams": {"usePorkChop": false, "lagrangianRho": 1000.0, "rho0": 1000.0, "maxWorkerIterations": 100000, "useLBFGS": false, "maxIterations": 1000, "eta0": 1.0, "runtimeMS": 1000, "adaptiveRho": false, "broadcastDelayMS": -1, "regParam": 1.5625E-7, "tol": 0.0, "displayIncrementalStats": false, "localTimeout": -1, "useLineSearch": false, "workerTol": -1.0, "miniBatchSize": 10}, "wikipediaTargetWordToken": 4690, "dblpSplitYear": 2007, "regType": "L2", "algorithm": "GD", "inputTokenHashKernelDimension": 100, "useLR": false, "pointCloudPoints": 500000, "pointCloudDim": 3, "pointCloudSize": 1.0, "pointCloudSkew": 0.0, "input": "null", "numPartitions": 128, "pointCloudNoise": 0.05}, "nDim": 3, "algorithm": "GD", "pr": 0.9361847628481744, "totalLoss": 7.880554519116831E8, "nExamples": 64000000, "runtimeMS": 2453, "regPenalty": 7.912539867879556E-7, "trainingError": 0.499970578125, "maxW": 2.2504602068330577, "minW": 5.884375E-5, "iterations": 2, "roc": 0.9499754230281252}\n'
p119
sg30
I1000
sg31
I0
ssVstats
p120
(dp121
Vruntime
p122
I2453
sViterations
p123
I2
ssVtotalLoss
p124
F788055451.91168308
sValgorithm
p125
VGD
p126
sVregPenalty
p127
F7.9125398678795558e-07
sVroc
p128
F0.94997542302812521
sVmaxW
p129
F2.2504602068330577
sVnExamples
p130
I64000000
sVruntimeMS
p131
I2453
sVparams
p132
(dp133
VpointCloudDim
p134
I3
sVinput
p135
Vnull
p136
sValgorithm
p137
VGD
p138
sVformat
p139
Vcloud
p140
sVpointCloudSize
p141
F1.0
sVwikipediaTargetWordToken
p142
I4690
sVdblpSplitYear
p143
I2007
sVnumPartitions
p144
I128
sValgParams
p145
(dp146
VregParam
p147
F1.5625000000000001e-07
sVmaxIterations
p148
I1000
sVusePorkChop
p149
I00
sVtol
p150
F0.0
sVworkerTol
p151
F-1.0
sVadaptiveRho
p152
I00
sVuseLBFGS
p153
I00
sVrho0
p154
F1000.0
sVdisplayIncrementalStats
p155
I00
sVminiBatchSize
p156
I10
sVlocalTimeout
p157
I-1
sVmaxWorkerIterations
p158
I100000
sVruntimeMS
p159
I1000
sVbroadcastDelayMS
p160
I-1
sVeta0
p161
F1.0
sVlagrangianRho
p162
F1000.0
sVuseLineSearch
p163
I00
ssVinputTokenHashKernelDimension
p164
I100
sVpointCloudPoints
p165
I500000
sVregType
p166
VL2
p167
sVuseLR
p168
I00
sVpointCloudNoise
p169
F0.050000000000000003
sVpointCloudSkew
p170
F0.0
ssViterations
p171
I2
sVtrainingLoss
p172
F788055451.91168225
sVminW
p173
F5.8843749999999997e-05
sVtrainingError
p174
F0.49997057812500001
sa(dp175
VnDim
p176
I3
sVpr
p177
F0.93618402662769484
sg4
(dp178
g6
I0
sg7
I-1
sg8
I3
sg9
g10
sg11
I10
sg12
I128
sg13
I4690
sg14
I2007
sg15
I10000000
sg16
g17
sg18
I1000000
sg19
S'--pointCloudPointsPerPartition 500000 --pointCloudPartitionSkew 0 --pointCloudLabelNoise 0.05 --pointCloudDimension 3 '
p179
sg21
S'cd /mnt/spark; sbin/stop-all.sh; sleep 5; sbin/start-all.sh; sleep 3;./bin/spark-submit --driver-memory 52g --class org.apache.spark.examples.mllib.research.SynchronousADMMTests examples/target/scala-*/spark-examples-*.jar --algorithm ADMM --regType L2 --regParam 10 --format cloud --numPartitions 128 --runtimeMS 5000 --ADMMmaxLocalIterations 1000000 --ADMMepsilon 0.0 --ADMMLocalepsilon 0 --ADMMrho 1000 --ADMMLagrangianrho 1000 --broadcastDelayMs -1 --dblpSplitYear 2007 --wikipediaTargetWordToken 4690 --inputTokenHashKernelDimension 100 --localTimeout 10000000 --pointCloudPointsPerPartition 500000 --pointCloudPartitionSkew 0 --pointCloudLabelNoise 0.05 --pointCloudDimension 3   '
p180
sg23
I1000
sg24
F0.0
sg25
I100
sg26
g27
sg28
S'RESULT: {"trainingLoss": 6.286219449836216E7, "stats": {"dualAvgNorm": 0.0, "stats": {"avgDualUpdates": [1.0, 1.0, 1.0], "primalAvg": [0.003880521613297448, 0.004021829779976597, -0.057551971286869355], "dualAvg": [0.0, 0.0, 0.0], "avgResidual": [2.1950790177887367E-6, 0.001873468386127911, 0.01983610643290058], "avgMsgsSent": [0.0, 0.0, 0.0], "avgMsgsRcvd": [0.0, 0.0, 0.0], "avgLocalIters": [0.0, 0.0, 0.0], "avgSGDIters": [519100.0, 585124.21875, 659800.0]}, "dualUpdates": [1.0, 1.0, 1.0], "primalAvgNorm": 0.0578226855289082, "avgSGDIters": [519100.0, 585124.21875, 659800.0], "iterations": 1, "runtime": 5256, "consensusNorm": 0.05781816848449534}, "params": {"format": "cloud", "algParams": {"usePorkChop": false, "lagrangianRho": 1000.0, "rho0": 1000.0, "maxWorkerIterations": 1000000, "useLBFGS": false, "maxIterations": 1000, "eta0": 1.0, "runtimeMS": 5000, "adaptiveRho": false, "broadcastDelayMS": -1, "regParam": 10.0, "tol": 0.0, "displayIncrementalStats": false, "localTimeout": 10000000, "useLineSearch": false, "workerTol": 0.0, "miniBatchSize": 10}, "wikipediaTargetWordToken": 4690, "dblpSplitYear": 2007, "regType": "L2", "algorithm": "ADMM", "inputTokenHashKernelDimension": 100, "useLR": false, "pointCloudPoints": 500000, "pointCloudDim": 3, "pointCloudSize": 1.0, "pointCloudSkew": 0.0, "input": "null", "numPartitions": 128, "pointCloudNoise": 0.05}, "nDim": 3, "algorithm": "ADMM", "pr": 0.9361840266276948, "totalLoss": 6.286219451507686E7, "nExamples": 64000000, "runtimeMS": 5256, "regPenalty": 0.016714703034507453, "trainingError": 0.05031196875, "maxW": 0.00402151559907042, "minW": -0.05754747539035448, "iterations": 1, "roc": 0.9499754046584791}\n'
p181
sg30
I1000
sg31
I0
ssVstats
p182
(dp183
Vstats
p184
(dp185
VavgMsgsRcvd
p186
(lp187
F0.0
aF0.0
aF0.0
asVavgMsgsSent
p188
(lp189
F0.0
aF0.0
aF0.0
asVavgDualUpdates
p190
(lp191
F1.0
aF1.0
aF1.0
asVavgLocalIters
p192
(lp193
F0.0
aF0.0
aF0.0
asVavgResidual
p194
(lp195
F2.1950790177887367e-06
aF0.001873468386127911
aF0.019836106432900579
asVprimalAvg
p196
(lp197
F0.003880521613297448
aF0.0040218297799765974
aF-0.057551971286869355
asVdualAvg
p198
(lp199
F0.0
aF0.0
aF0.0
asVavgSGDIters
p200
(lp201
F519100.0
aF585124.21875
aF659800.0
assVconsensusNorm
p202
F0.057818168484495343
sVdualUpdates
p203
(lp204
F1.0
aF1.0
aF1.0
asVdualAvgNorm
p205
F0.0
sVprimalAvgNorm
p206
F0.057822685528908201
sViterations
p207
I1
sVruntime
p208
I5256
sVavgSGDIters
p209
(lp210
F519100.0
aF585124.21875
aF659800.0
assVtotalLoss
p211
F62862194.515076861
sValgorithm
p212
VADMM
p213
sVregPenalty
p214
F0.016714703034507453
sVroc
p215
F0.94997540465847907
sVmaxW
p216
F0.0040215155990704198
sVnExamples
p217
I64000000
sVruntimeMS
p218
I5256
sVparams
p219
(dp220
VpointCloudDim
p221
I3
sVinput
p222
Vnull
p223
sValgorithm
p224
VADMM
p225
sVformat
p226
Vcloud
p227
sVpointCloudSize
p228
F1.0
sVwikipediaTargetWordToken
p229
I4690
sVdblpSplitYear
p230
I2007
sVnumPartitions
p231
I128
sValgParams
p232
(dp233
VregParam
p234
F10.0
sVmaxIterations
p235
I1000
sVusePorkChop
p236
I00
sVtol
p237
F0.0
sVworkerTol
p238
F0.0
sVadaptiveRho
p239
I00
sVuseLBFGS
p240
I00
sVrho0
p241
F1000.0
sVdisplayIncrementalStats
p242
I00
sVminiBatchSize
p243
I10
sVlocalTimeout
p244
I10000000
sVmaxWorkerIterations
p245
I1000000
sVruntimeMS
p246
I5000
sVbroadcastDelayMS
p247
I-1
sVeta0
p248
F1.0
sVlagrangianRho
p249
F1000.0
sVuseLineSearch
p250
I00
ssVinputTokenHashKernelDimension
p251
I100
sVpointCloudPoints
p252
I500000
sVregType
p253
VL2
p254
sVuseLR
p255
I00
sVpointCloudNoise
p256
F0.050000000000000003
sVpointCloudSkew
p257
F0.0
ssViterations
p258
I1
sVtrainingLoss
p259
F62862194.498362161
sVminW
p260
F-0.057547475390354479
sVtrainingError
p261
F0.050311968749999998
sa(dp262
VnDim
p263
I3
sVpr
p264
F0.93618475702028092
sg4
(dp265
g6
I-1
sg7
I-1
sg8
I3
sg9
g116
sg11
I10
sg12
I128
sg13
I4690
sg14
I2007
sg15
I-1
sg16
g17
sg18
I100000
sg19
S'--pointCloudPointsPerPartition 500000 --pointCloudPartitionSkew 0 --pointCloudLabelNoise 0.05 --pointCloudDimension 3 '
p266
sg21
S'cd /mnt/spark; sbin/stop-all.sh; sleep 5; sbin/start-all.sh; sleep 3;./bin/spark-submit --driver-memory 52g --class org.apache.spark.examples.mllib.research.SynchronousADMMTests examples/target/scala-*/spark-examples-*.jar --algorithm GD --regType L2 --regParam 10 --format cloud --numPartitions 128 --runtimeMS 5000 --ADMMmaxLocalIterations 100000 --ADMMepsilon 0.0 --ADMMLocalepsilon -1 --ADMMrho 1000 --ADMMLagrangianrho 1000 --broadcastDelayMs -1 --dblpSplitYear 2007 --wikipediaTargetWordToken 4690 --inputTokenHashKernelDimension 100 --localTimeout -1 --pointCloudPointsPerPartition 500000 --pointCloudPartitionSkew 0 --pointCloudLabelNoise 0.05 --pointCloudDimension 3   '
p267
sg23
I1000
sg24
F0.0
sg25
I100
sg26
g27
sg28
S'RESULT: {"trainingLoss": 4.6175007963403326E8, "stats": {"iterations": 5, "runtime": 5205}, "params": {"format": "cloud", "algParams": {"usePorkChop": false, "lagrangianRho": 1000.0, "rho0": 1000.0, "maxWorkerIterations": 100000, "useLBFGS": false, "maxIterations": 1000, "eta0": 1.0, "runtimeMS": 5000, "adaptiveRho": false, "broadcastDelayMS": -1, "regParam": 1.5625E-7, "tol": 0.0, "displayIncrementalStats": false, "localTimeout": -1, "useLineSearch": false, "workerTol": -1.0, "miniBatchSize": 10}, "wikipediaTargetWordToken": 4690, "dblpSplitYear": 2007, "regType": "L2", "algorithm": "GD", "inputTokenHashKernelDimension": 100, "useLR": false, "pointCloudPoints": 500000, "pointCloudDim": 3, "pointCloudSize": 1.0, "pointCloudSkew": 0.0, "input": "null", "numPartitions": 128, "pointCloudNoise": 0.05}, "nDim": 3, "algorithm": "GD", "pr": 0.9361847570202809, "totalLoss": 4.6175007963403356E8, "nExamples": 64000000, "runtimeMS": 5205, "regPenalty": 2.82807073122074E-7, "trainingError": 0.499970578125, "maxW": 1.3167111186176876, "minW": -0.39211705221305876, "iterations": 5, "roc": 0.9499754228409715}\n'
p268
sg30
I1000
sg31
I0
ssVstats
p269
(dp270
Vruntime
p271
I5205
sViterations
p272
I5
ssVtotalLoss
p273
F461750079.63403356
sValgorithm
p274
VGD
p275
sVregPenalty
p276
F2.8280707312207402e-07
sVroc
p277
F0.94997542284097147
sVmaxW
p278
F1.3167111186176876
sVnExamples
p279
I64000000
sVruntimeMS
p280
I5205
sVparams
p281
(dp282
VpointCloudDim
p283
I3
sVinput
p284
Vnull
p285
sValgorithm
p286
VGD
p287
sVformat
p288
Vcloud
p289
sVpointCloudSize
p290
F1.0
sVwikipediaTargetWordToken
p291
I4690
sVdblpSplitYear
p292
I2007
sVnumPartitions
p293
I128
sValgParams
p294
(dp295
VregParam
p296
F1.5625000000000001e-07
sVmaxIterations
p297
I1000
sVusePorkChop
p298
I00
sVtol
p299
F0.0
sVworkerTol
p300
F-1.0
sVadaptiveRho
p301
I00
sVuseLBFGS
p302
I00
sVrho0
p303
F1000.0
sVdisplayIncrementalStats
p304
I00
sVminiBatchSize
p305
I10
sVlocalTimeout
p306
I-1
sVmaxWorkerIterations
p307
I100000
sVruntimeMS
p308
I5000
sVbroadcastDelayMS
p309
I-1
sVeta0
p310
F1.0
sVlagrangianRho
p311
F1000.0
sVuseLineSearch
p312
I00
ssVinputTokenHashKernelDimension
p313
I100
sVpointCloudPoints
p314
I500000
sVregType
p315
VL2
p316
sVuseLR
p317
I00
sVpointCloudNoise
p318
F0.050000000000000003
sVpointCloudSkew
p319
F0.0
ssViterations
p320
I5
sVtrainingLoss
p321
F461750079.63403326
sVminW
p322
F-0.39211705221305876
sVtrainingError
p323
F0.49997057812500001
sa(dp324
VnDim
p325
I3
sVpr
p326
F0.93618487342461709
sg4
(dp327
g6
I0
sg7
I-1
sg8
I3
sg9
g10
sg11
I10
sg12
I128
sg13
I4690
sg14
I2007
sg15
I10000000
sg16
g17
sg18
I1000000
sg19
S'--pointCloudPointsPerPartition 500000 --pointCloudPartitionSkew 0 --pointCloudLabelNoise 0.05 --pointCloudDimension 3 '
p328
sg21
S'cd /mnt/spark; sbin/stop-all.sh; sleep 5; sbin/start-all.sh; sleep 3;./bin/spark-submit --driver-memory 52g --class org.apache.spark.examples.mllib.research.SynchronousADMMTests examples/target/scala-*/spark-examples-*.jar --algorithm ADMM --regType L2 --regParam 10 --format cloud --numPartitions 128 --runtimeMS 10000 --ADMMmaxLocalIterations 1000000 --ADMMepsilon 0.0 --ADMMLocalepsilon 0 --ADMMrho 1000 --ADMMLagrangianrho 1000 --broadcastDelayMs -1 --dblpSplitYear 2007 --wikipediaTargetWordToken 4690 --inputTokenHashKernelDimension 100 --localTimeout 10000000 --pointCloudPointsPerPartition 500000 --pointCloudPartitionSkew 0 --pointCloudLabelNoise 0.05 --pointCloudDimension 3   '
p329
sg23
I1000
sg24
F0.0
sg25
I100
sg26
g27
sg28
S'RESULT: {"trainingLoss": 5.8695789328156285E7, "stats": {"dualAvgNorm": 0.0, "stats": {"avgDualUpdates": [2.0, 2.0, 2.0], "primalAvg": [0.018468717777993103, 0.018371218427837076, -0.29851630038270116], "dualAvg": [0.0, 0.0, 0.0], "avgResidual": [4.040291129216638E-6, 0.004599266840980827, 0.06847209345024692], "avgMsgsSent": [0.0, 0.0, 0.0], "avgMsgsRcvd": [0.0, 0.0, 0.0], "avgLocalIters": [0.0, 0.0, 0.0], "avgSGDIters": [22700.0, 34713.28125, 44600.0]}, "dualUpdates": [2.0, 2.0, 2.0], "primalAvgNorm": 0.29965075804519753, "avgSGDIters": [22700.0, 34713.28125, 44600.0], "iterations": 2, "runtime": 10204, "consensusNorm": 0.29962734965850546}, "params": {"format": "cloud", "algParams": {"usePorkChop": false, "lagrangianRho": 1000.0, "rho0": 1000.0, "maxWorkerIterations": 1000000, "useLBFGS": false, "maxIterations": 1000, "eta0": 1.0, "runtimeMS": 10000, "adaptiveRho": false, "broadcastDelayMS": -1, "regParam": 10.0, "tol": 0.0, "displayIncrementalStats": false, "localTimeout": 10000000, "useLineSearch": false, "workerTol": 0.0, "miniBatchSize": 10}, "wikipediaTargetWordToken": 4690, "dblpSplitYear": 2007, "regType": "L2", "algorithm": "ADMM", "inputTokenHashKernelDimension": 100, "useLR": false, "pointCloudPoints": 500000, "pointCloudDim": 3, "pointCloudSize": 1.0, "pointCloudSkew": 0.0, "input": "null", "numPartitions": 128, "pointCloudNoise": 0.05}, "nDim": 3, "algorithm": "ADMM", "pr": 0.9361848734246171, "totalLoss": 5.869578977703903E7, "nExamples": 64000000, "runtimeMS": 10204, "regPenalty": 0.4488827433169015, "trainingError": 0.051654078125, "maxW": 0.018467275022132, "minW": -0.2984929806185903, "iterations": 2, "roc": 0.9499754269429819}\n'
p330
sg30
I1000
sg31
I0
ssVstats
p331
(dp332
Vstats
p333
(dp334
VavgMsgsRcvd
p335
(lp336
F0.0
aF0.0
aF0.0
asVavgMsgsSent
p337
(lp338
F0.0
aF0.0
aF0.0
asVavgDualUpdates
p339
(lp340
F2.0
aF2.0
aF2.0
asVavgLocalIters
p341
(lp342
F0.0
aF0.0
aF0.0
asVavgResidual
p343
(lp344
F4.0402911292166384e-06
aF0.0045992668409808269
aF0.068472093450246921
asVprimalAvg
p345
(lp346
F0.018468717777993103
aF0.018371218427837076
aF-0.29851630038270116
asVdualAvg
p347
(lp348
F0.0
aF0.0
aF0.0
asVavgSGDIters
p349
(lp350
F22700.0
aF34713.28125
aF44600.0
assVconsensusNorm
p351
F0.29962734965850546
sVdualUpdates
p352
(lp353
F2.0
aF2.0
aF2.0
asVdualAvgNorm
p354
F0.0
sVprimalAvgNorm
p355
F0.29965075804519753
sViterations
p356
I2
sVruntime
p357
I10204
sVavgSGDIters
p358
(lp359
F22700.0
aF34713.28125
aF44600.0
assVtotalLoss
p360
F58695789.777039029
sValgorithm
p361
VADMM
p362
sVregPenalty
p363
F0.44888274331690148
sVroc
p364
F0.94997542694298187
sVmaxW
p365
F0.018467275022131999
sVnExamples
p366
I64000000
sVruntimeMS
p367
I10204
sVparams
p368
(dp369
VpointCloudDim
p370
I3
sVinput
p371
Vnull
p372
sValgorithm
p373
VADMM
p374
sVformat
p375
Vcloud
p376
sVpointCloudSize
p377
F1.0
sVwikipediaTargetWordToken
p378
I4690
sVdblpSplitYear
p379
I2007
sVnumPartitions
p380
I128
sValgParams
p381
(dp382
VregParam
p383
F10.0
sVmaxIterations
p384
I1000
sVusePorkChop
p385
I00
sVtol
p386
F0.0
sVworkerTol
p387
F0.0
sVadaptiveRho
p388
I00
sVuseLBFGS
p389
I00
sVrho0
p390
F1000.0
sVdisplayIncrementalStats
p391
I00
sVminiBatchSize
p392
I10
sVlocalTimeout
p393
I10000000
sVmaxWorkerIterations
p394
I1000000
sVruntimeMS
p395
I10000
sVbroadcastDelayMS
p396
I-1
sVeta0
p397
F1.0
sVlagrangianRho
p398
F1000.0
sVuseLineSearch
p399
I00
ssVinputTokenHashKernelDimension
p400
I100
sVpointCloudPoints
p401
I500000
sVregType
p402
VL2
p403
sVuseLR
p404
I00
sVpointCloudNoise
p405
F0.050000000000000003
sVpointCloudSkew
p406
F0.0
ssViterations
p407
I2
sVtrainingLoss
p408
F58695789.328156285
sVminW
p409
F-0.29849298061859031
sVtrainingError
p410
F0.051654078125000003
sa(dp411
VnDim
p412
I3
sVpr
p413
F0.9361847517473656
sg4
(dp414
g6
I-1
sg7
I-1
sg8
I3
sg9
g116
sg11
I10
sg12
I128
sg13
I4690
sg14
I2007
sg15
I-1
sg16
g17
sg18
I100000
sg19
S'--pointCloudPointsPerPartition 500000 --pointCloudPartitionSkew 0 --pointCloudLabelNoise 0.05 --pointCloudDimension 3 '
p415
sg21
S'cd /mnt/spark; sbin/stop-all.sh; sleep 5; sbin/start-all.sh; sleep 3;./bin/spark-submit --driver-memory 52g --class org.apache.spark.examples.mllib.research.SynchronousADMMTests examples/target/scala-*/spark-examples-*.jar --algorithm GD --regType L2 --regParam 10 --format cloud --numPartitions 128 --runtimeMS 10000 --ADMMmaxLocalIterations 100000 --ADMMepsilon 0.0 --ADMMLocalepsilon -1 --ADMMrho 1000 --ADMMLagrangianrho 1000 --broadcastDelayMs -1 --dblpSplitYear 2007 --wikipediaTargetWordToken 4690 --inputTokenHashKernelDimension 100 --localTimeout -1 --pointCloudPointsPerPartition 500000 --pointCloudPartitionSkew 0 --pointCloudLabelNoise 0.05 --pointCloudDimension 3   '
p416
sg23
I1000
sg24
F0.0
sg25
I100
sg26
g27
sg28
S'RESULT: {"trainingLoss": 4.819300614442784E8, "stats": {"iterations": 12, "runtime": 10097}, "params": {"format": "cloud", "algParams": {"usePorkChop": false, "lagrangianRho": 1000.0, "rho0": 1000.0, "maxWorkerIterations": 100000, "useLBFGS": false, "maxIterations": 1000, "eta0": 1.0, "runtimeMS": 10000, "adaptiveRho": false, "broadcastDelayMS": -1, "regParam": 1.5625E-7, "tol": 0.0, "displayIncrementalStats": false, "localTimeout": -1, "useLineSearch": false, "workerTol": -1.0, "miniBatchSize": 10}, "wikipediaTargetWordToken": 4690, "dblpSplitYear": 2007, "regType": "L2", "algorithm": "GD", "inputTokenHashKernelDimension": 100, "useLR": false, "pointCloudPoints": 500000, "pointCloudDim": 3, "pointCloudSize": 1.0, "pointCloudSkew": 0.0, "input": "null", "numPartitions": 128, "pointCloudNoise": 0.05}, "nDim": 3, "algorithm": "GD", "pr": 0.9361847517473656, "totalLoss": 4.819300614442788E8, "nExamples": 64000000, "runtimeMS": 10097, "regPenalty": 3.641011381844577E-7, "trainingError": 0.499970578125, "maxW": 1.4164251507299954, "minW": -0.806478334373723, "iterations": 12, "roc": 0.9499754226891235}\n'
p417
sg30
I1000
sg31
I0
ssVstats
p418
(dp419
Vruntime
p420
I10097
sViterations
p421
I12
ssVtotalLoss
p422
F481930061.44427878
sValgorithm
p423
VGD
p424
sVregPenalty
p425
F3.6410113818445771e-07
sVroc
p426
F0.94997542268912349
sVmaxW
p427
F1.4164251507299954
sVnExamples
p428
I64000000
sVruntimeMS
p429
I10097
sVparams
p430
(dp431
VpointCloudDim
p432
I3
sVinput
p433
Vnull
p434
sValgorithm
p435
VGD
p436
sVformat
p437
Vcloud
p438
sVpointCloudSize
p439
F1.0
sVwikipediaTargetWordToken
p440
I4690
sVdblpSplitYear
p441
I2007
sVnumPartitions
p442
I128
sValgParams
p443
(dp444
VregParam
p445
F1.5625000000000001e-07
sVmaxIterations
p446
I1000
sVusePorkChop
p447
I00
sVtol
p448
F0.0
sVworkerTol
p449
F-1.0
sVadaptiveRho
p450
I00
sVuseLBFGS
p451
I00
sVrho0
p452
F1000.0
sVdisplayIncrementalStats
p453
I00
sVminiBatchSize
p454
I10
sVlocalTimeout
p455
I-1
sVmaxWorkerIterations
p456
I100000
sVruntimeMS
p457
I10000
sVbroadcastDelayMS
p458
I-1
sVeta0
p459
F1.0
sVlagrangianRho
p460
F1000.0
sVuseLineSearch
p461
I00
ssVinputTokenHashKernelDimension
p462
I100
sVpointCloudPoints
p463
I500000
sVregType
p464
VL2
p465
sVuseLR
p466
I00
sVpointCloudNoise
p467
F0.050000000000000003
sVpointCloudSkew
p468
F0.0
ssViterations
p469
I12
sVtrainingLoss
p470
F481930061.44427842
sVminW
p471
F-0.80647833437372296
sVtrainingError
p472
F0.49997057812500001
sa(dp473
VnDim
p474
I3
sVpr
p475
F0.93618346816005948
sg4
(dp476
g6
I0
sg7
I-1
sg8
I3
sg9
g10
sg11
I10
sg12
I128
sg13
I4690
sg14
I2007
sg15
I10000000
sg16
g17
sg18
I1000000
sg19
S'--pointCloudPointsPerPartition 500000 --pointCloudPartitionSkew 0 --pointCloudLabelNoise 0.05 --pointCloudDimension 3 '
p477
sg21
S'cd /mnt/spark; sbin/stop-all.sh; sleep 5; sbin/start-all.sh; sleep 3;./bin/spark-submit --driver-memory 52g --class org.apache.spark.examples.mllib.research.SynchronousADMMTests examples/target/scala-*/spark-examples-*.jar --algorithm ADMM --regType L2 --regParam 10 --format cloud --numPartitions 128 --runtimeMS 20000 --ADMMmaxLocalIterations 1000000 --ADMMepsilon 0.0 --ADMMLocalepsilon 0 --ADMMrho 1000 --ADMMLagrangianrho 1000 --broadcastDelayMs -1 --dblpSplitYear 2007 --wikipediaTargetWordToken 4690 --inputTokenHashKernelDimension 100 --localTimeout 10000000 --pointCloudPointsPerPartition 500000 --pointCloudPartitionSkew 0 --pointCloudLabelNoise 0.05 --pointCloudDimension 3   '
p478
sg23
I1000
sg24
F0.0
sg25
I100
sg26
g27
sg28
S'RESULT: {"trainingLoss": 6.2794273860858135E7, "stats": {"dualAvgNorm": 0.0, "stats": {"avgDualUpdates": [3.0, 3.0, 3.0], "primalAvg": [0.004054898372478482, 0.004319479004050186, -0.07268594354047991], "dualAvg": [0.0, 0.0, 0.0], "avgResidual": [2.732063934080989E-6, 0.001556753159595744, 0.02125374643949115], "avgMsgsSent": [0.0, 0.0, 0.0], "avgMsgsRcvd": [0.0, 0.0, 0.0], "avgLocalIters": [0.0, 0.0, 0.0], "avgSGDIters": [317000.0, 396918.75, 434700.0]}, "dualUpdates": [3.0, 3.0, 3.0], "primalAvgNorm": 0.0729269942342847, "avgSGDIters": [317000.0, 396918.75, 434700.0], "iterations": 3, "runtime": 20205, "consensusNorm": 0.07292129725793642}, "params": {"format": "cloud", "algParams": {"usePorkChop": false, "lagrangianRho": 1000.0, "rho0": 1000.0, "maxWorkerIterations": 1000000, "useLBFGS": false, "maxIterations": 1000, "eta0": 1.0, "runtimeMS": 20000, "adaptiveRho": false, "broadcastDelayMS": -1, "regParam": 10.0, "tol": 0.0, "displayIncrementalStats": false, "localTimeout": 10000000, "useLineSearch": false, "workerTol": 0.0, "miniBatchSize": 10}, "wikipediaTargetWordToken": 4690, "dblpSplitYear": 2007, "regType": "L2", "algorithm": "ADMM", "inputTokenHashKernelDimension": 100, "useLR": false, "pointCloudPoints": 500000, "pointCloudDim": 3, "pointCloudSize": 1.0, "pointCloudSkew": 0.0, "input": "null", "numPartitions": 128, "pointCloudNoise": 0.05}, "nDim": 3, "algorithm": "ADMM", "pr": 0.9361834681600595, "totalLoss": 6.279427388744571E7, "nExamples": 64000000, "runtimeMS": 20205, "regPenalty": 0.026587577968901627, "trainingError": 0.0639634375, "maxW": 0.004319141571114942, "minW": -0.07268026539474595, "iterations": 3, "roc": 0.9499753959755607}\n'
p479
sg30
I1000
sg31
I0
ssVstats
p480
(dp481
Vstats
p482
(dp483
VavgMsgsRcvd
p484
(lp485
F0.0
aF0.0
aF0.0
asVavgMsgsSent
p486
(lp487
F0.0
aF0.0
aF0.0
asVavgDualUpdates
p488
(lp489
F3.0
aF3.0
aF3.0
asVavgLocalIters
p490
(lp491
F0.0
aF0.0
aF0.0
asVavgResidual
p492
(lp493
F2.7320639340809889e-06
aF0.0015567531595957441
aF0.021253746439491149
asVprimalAvg
p494
(lp495
F0.0040548983724784816
aF0.0043194790040501857
aF-0.072685943540479914
asVdualAvg
p496
(lp497
F0.0
aF0.0
aF0.0
asVavgSGDIters
p498
(lp499
F317000.0
aF396918.75
aF434700.0
assVconsensusNorm
p500
F0.072921297257936418
sVdualUpdates
p501
(lp502
F3.0
aF3.0
aF3.0
asVdualAvgNorm
p503
F0.0
sVprimalAvgNorm
p504
F0.072926994234284698
sViterations
p505
I3
sVruntime
p506
I20205
sVavgSGDIters
p507
(lp508
F317000.0
aF396918.75
aF434700.0
assVtotalLoss
p509
F62794273.887445711
sValgorithm
p510
VADMM
p511
sVregPenalty
p512
F0.026587577968901627
sVroc
p513
F0.94997539597556069
sVmaxW
p514
F0.0043191415711149421
sVnExamples
p515
I64000000
sVruntimeMS
p516
I20205
sVparams
p517
(dp518
VpointCloudDim
p519
I3
sVinput
p520
Vnull
p521
sValgorithm
p522
VADMM
p523
sVformat
p524
Vcloud
p525
sVpointCloudSize
p526
F1.0
sVwikipediaTargetWordToken
p527
I4690
sVdblpSplitYear
p528
I2007
sVnumPartitions
p529
I128
sValgParams
p530
(dp531
VregParam
p532
F10.0
sVmaxIterations
p533
I1000
sVusePorkChop
p534
I00
sVtol
p535
F0.0
sVworkerTol
p536
F0.0
sVadaptiveRho
p537
I00
sVuseLBFGS
p538
I00
sVrho0
p539
F1000.0
sVdisplayIncrementalStats
p540
I00
sVminiBatchSize
p541
I10
sVlocalTimeout
p542
I10000000
sVmaxWorkerIterations
p543
I1000000
sVruntimeMS
p544
I20000
sVbroadcastDelayMS
p545
I-1
sVeta0
p546
F1.0
sVlagrangianRho
p547
F1000.0
sVuseLineSearch
p548
I00
ssVinputTokenHashKernelDimension
p549
I100
sVpointCloudPoints
p550
I500000
sVregType
p551
VL2
p552
sVuseLR
p553
I00
sVpointCloudNoise
p554
F0.050000000000000003
sVpointCloudSkew
p555
F0.0
ssViterations
p556
I3
sVtrainingLoss
p557
F62794273.860858135
sVminW
p558
F-0.072680265394745952
sVtrainingError
p559
F0.063963437499999998
sa(dp560
VnDim
p561
I3
sVpr
p562
F0.3123846382177089
sg4
(dp563
g6
I-1
sg7
I-1
sg8
I3
sg9
g116
sg11
I10
sg12
I128
sg13
I4690
sg14
I2007
sg15
I-1
sg16
g17
sg18
I100000
sg19
S'--pointCloudPointsPerPartition 500000 --pointCloudPartitionSkew 0 --pointCloudLabelNoise 0.05 --pointCloudDimension 3 '
p564
sg21
S'cd /mnt/spark; sbin/stop-all.sh; sleep 5; sbin/start-all.sh; sleep 3;./bin/spark-submit --driver-memory 52g --class org.apache.spark.examples.mllib.research.SynchronousADMMTests examples/target/scala-*/spark-examples-*.jar --algorithm GD --regType L2 --regParam 10 --format cloud --numPartitions 128 --runtimeMS 20000 --ADMMmaxLocalIterations 100000 --ADMMepsilon 0.0 --ADMMLocalepsilon -1 --ADMMrho 1000 --ADMMLagrangianrho 1000 --broadcastDelayMs -1 --dblpSplitYear 2007 --wikipediaTargetWordToken 4690 --inputTokenHashKernelDimension 100 --localTimeout -1 --pointCloudPointsPerPartition 500000 --pointCloudPartitionSkew 0 --pointCloudLabelNoise 0.05 --pointCloudDimension 3   '
p565
sg23
I1000
sg24
F0.0
sg25
I100
sg26
g27
sg28
S'RESULT: {"trainingLoss": 2.12505759867331E8, "stats": {"iterations": 36, "runtime": 20367}, "params": {"format": "cloud", "algParams": {"usePorkChop": false, "lagrangianRho": 1000.0, "rho0": 1000.0, "maxWorkerIterations": 100000, "useLBFGS": false, "maxIterations": 1000, "eta0": 1.0, "runtimeMS": 20000, "adaptiveRho": false, "broadcastDelayMS": -1, "regParam": 1.5625E-7, "tol": 0.0, "displayIncrementalStats": false, "localTimeout": -1, "useLineSearch": false, "workerTol": -1.0, "miniBatchSize": 10}, "wikipediaTargetWordToken": 4690, "dblpSplitYear": 2007, "regType": "L2", "algorithm": "GD", "inputTokenHashKernelDimension": 100, "useLR": false, "pointCloudPoints": 500000, "pointCloudDim": 3, "pointCloudSize": 1.0, "pointCloudSkew": 0.0, "input": "null", "numPartitions": 128, "pointCloudNoise": 0.05}, "nDim": 3, "algorithm": "GD", "pr": 0.3123846382177089, "totalLoss": 2.1250575986733127E8, "nExamples": 64000000, "runtimeMS": 20367, "regPenalty": 2.5948869031812775E-7, "trainingError": 0.500029421875, "maxW": -0.1962363023922404, "minW": -1.8010883936592064, "iterations": 36, "roc": 0.05002457210792078}\n'
p566
sg30
I1000
sg31
I0
ssVstats
p567
(dp568
Vruntime
p569
I20367
sViterations
p570
I36
ssVtotalLoss
p571
F212505759.86733127
sValgorithm
p572
VGD
p573
sVregPenalty
p574
F2.5948869031812775e-07
sVroc
p575
F0.05002457210792078
sVmaxW
p576
F-0.19623630239224041
sVnExamples
p577
I64000000
sVruntimeMS
p578
I20367
sVparams
p579
(dp580
VpointCloudDim
p581
I3
sVinput
p582
Vnull
p583
sValgorithm
p584
VGD
p585
sVformat
p586
Vcloud
p587
sVpointCloudSize
p588
F1.0
sVwikipediaTargetWordToken
p589
I4690
sVdblpSplitYear
p590
I2007
sVnumPartitions
p591
I128
sValgParams
p592
(dp593
VregParam
p594
F1.5625000000000001e-07
sVmaxIterations
p595
I1000
sVusePorkChop
p596
I00
sVtol
p597
F0.0
sVworkerTol
p598
F-1.0
sVadaptiveRho
p599
I00
sVuseLBFGS
p600
I00
sVrho0
p601
F1000.0
sVdisplayIncrementalStats
p602
I00
sVminiBatchSize
p603
I10
sVlocalTimeout
p604
I-1
sVmaxWorkerIterations
p605
I100000
sVruntimeMS
p606
I20000
sVbroadcastDelayMS
p607
I-1
sVeta0
p608
F1.0
sVlagrangianRho
p609
F1000.0
sVuseLineSearch
p610
I00
ssVinputTokenHashKernelDimension
p611
I100
sVpointCloudPoints
p612
I500000
sVregType
p613
VL2
p614
sVuseLR
p615
I00
sVpointCloudNoise
p616
F0.050000000000000003
sVpointCloudSkew
p617
F0.0
ssViterations
p618
I36
sVtrainingLoss
p619
F212505759.867331
sVminW
p620
F-1.8010883936592064
sVtrainingError
p621
F0.50002942187499999
sa(dp622
VnDim
p623
I3
sVpr
p624
F0.93618547051710865
sg4
(dp625
g6
I0
sg7
I-1
sg8
I3
sg9
g10
sg11
I10
sg12
I128
sg13
I4690
sg14
I2007
sg15
I10000000
sg16
g17
sg18
I1000000
sg19
S'--pointCloudPointsPerPartition 500000 --pointCloudPartitionSkew 0 --pointCloudLabelNoise 0.05 --pointCloudDimension 3 '
p626
sg21
S'cd /mnt/spark; sbin/stop-all.sh; sleep 5; sbin/start-all.sh; sleep 3;./bin/spark-submit --driver-memory 52g --class org.apache.spark.examples.mllib.research.SynchronousADMMTests examples/target/scala-*/spark-examples-*.jar --algorithm ADMM --regType L2 --regParam 10 --format cloud --numPartitions 128 --runtimeMS 40000 --ADMMmaxLocalIterations 1000000 --ADMMepsilon 0.0 --ADMMLocalepsilon 0 --ADMMrho 1000 --ADMMLagrangianrho 1000 --broadcastDelayMs -1 --dblpSplitYear 2007 --wikipediaTargetWordToken 4690 --inputTokenHashKernelDimension 100 --localTimeout 10000000 --pointCloudPointsPerPartition 500000 --pointCloudPartitionSkew 0 --pointCloudLabelNoise 0.05 --pointCloudDimension 3   '
p627
sg23
I1000
sg24
F0.0
sg25
I100
sg26
g27
sg28
S'RESULT: {"trainingLoss": 6.317128662898741E7, "stats": {"dualAvgNorm": 0.0, "stats": {"avgDualUpdates": [5.0, 5.0, 5.0], "primalAvg": [0.0029267762631406164, 0.002828982040343659, -0.04651888696147526], "dualAvg": [0.0, 0.0, 0.0], "avgResidual": [1.889931657014285E-6, 9.291194890872577E-4, 0.009605638532572736], "avgMsgsSent": [0.0, 0.0, 0.0], "avgMsgsRcvd": [0.0, 0.0, 0.0], "avgLocalIters": [0.0, 0.0, 0.0], "avgSGDIters": [1000000.0, 1000000.0, 1000000.0]}, "dualUpdates": [5.0, 5.0, 5.0], "primalAvgNorm": 0.04669663802473989, "avgSGDIters": [1000000.0, 1000000.0, 1000000.0], "iterations": 5, "runtime": 40052, "consensusNorm": 0.0466929901348856}, "params": {"format": "cloud", "algParams": {"usePorkChop": false, "lagrangianRho": 1000.0, "rho0": 1000.0, "maxWorkerIterations": 1000000, "useLBFGS": false, "maxIterations": 1000, "eta0": 1.0, "runtimeMS": 40000, "adaptiveRho": false, "broadcastDelayMS": -1, "regParam": 10.0, "tol": 0.0, "displayIncrementalStats": false, "localTimeout": 10000000, "useLineSearch": false, "workerTol": 0.0, "miniBatchSize": 10}, "wikipediaTargetWordToken": 4690, "dblpSplitYear": 2007, "regType": "L2", "algorithm": "ADMM", "inputTokenHashKernelDimension": 100, "useLR": false, "pointCloudPoints": 500000, "pointCloudDim": 3, "pointCloudSize": 1.0, "pointCloudSkew": 0.0, "input": "null", "numPartitions": 128, "pointCloudNoise": 0.05}, "nDim": 3, "algorithm": "ADMM", "pr": 0.9361854705171087, "totalLoss": 6.3171286639888585E7, "nExamples": 64000000, "runtimeMS": 40052, "regPenalty": 0.010901176638682621, "trainingError": 0.051512015625, "maxW": 0.0029265476266072876, "minW": -0.046515252957337966, "iterations": 5, "roc": 0.9499754483122529}\n'
p628
sg30
I1000
sg31
I0
ssVstats
p629
(dp630
Vstats
p631
(dp632
VavgMsgsRcvd
p633
(lp634
F0.0
aF0.0
aF0.0
asVavgMsgsSent
p635
(lp636
F0.0
aF0.0
aF0.0
asVavgDualUpdates
p637
(lp638
F5.0
aF5.0
aF5.0
asVavgLocalIters
p639
(lp640
F0.0
aF0.0
aF0.0
asVavgResidual
p641
(lp642
F1.8899316570142851e-06
aF0.00092911948908725773
aF0.0096056385325727356
asVprimalAvg
p643
(lp644
F0.0029267762631406164
aF0.0028289820403436588
aF-0.046518886961475263
asVdualAvg
p645
(lp646
F0.0
aF0.0
aF0.0
asVavgSGDIters
p647
(lp648
F1000000.0
aF1000000.0
aF1000000.0
assVconsensusNorm
p649
F0.046692990134885599
sVdualUpdates
p650
(lp651
F5.0
aF5.0
aF5.0
asVdualAvgNorm
p652
F0.0
sVprimalAvgNorm
p653
F0.046696638024739889
sViterations
p654
I5
sVruntime
p655
I40052
sVavgSGDIters
p656
(lp657
F1000000.0
aF1000000.0
aF1000000.0
assVtotalLoss
p658
F63171286.639888585
sValgorithm
p659
VADMM
p660
sVregPenalty
p661
F0.010901176638682621
sVroc
p662
F0.94997544831225289
sVmaxW
p663
F0.0029265476266072876
sVnExamples
p664
I64000000
sVruntimeMS
p665
I40052
sVparams
p666
(dp667
VpointCloudDim
p668
I3
sVinput
p669
Vnull
p670
sValgorithm
p671
VADMM
p672
sVformat
p673
Vcloud
p674
sVpointCloudSize
p675
F1.0
sVwikipediaTargetWordToken
p676
I4690
sVdblpSplitYear
p677
I2007
sVnumPartitions
p678
I128
sValgParams
p679
(dp680
VregParam
p681
F10.0
sVmaxIterations
p682
I1000
sVusePorkChop
p683
I00
sVtol
p684
F0.0
sVworkerTol
p685
F0.0
sVadaptiveRho
p686
I00
sVuseLBFGS
p687
I00
sVrho0
p688
F1000.0
sVdisplayIncrementalStats
p689
I00
sVminiBatchSize
p690
I10
sVlocalTimeout
p691
I10000000
sVmaxWorkerIterations
p692
I1000000
sVruntimeMS
p693
I40000
sVbroadcastDelayMS
p694
I-1
sVeta0
p695
F1.0
sVlagrangianRho
p696
F1000.0
sVuseLineSearch
p697
I00
ssVinputTokenHashKernelDimension
p698
I100
sVpointCloudPoints
p699
I500000
sVregType
p700
VL2
p701
sVuseLR
p702
I00
sVpointCloudNoise
p703
F0.050000000000000003
sVpointCloudSkew
p704
F0.0
ssViterations
p705
I5
sVtrainingLoss
p706
F63171286.628987409
sVminW
p707
F-0.046515252957337966
sVtrainingError
p708
F0.051512015624999997
sa(dp709
VnDim
p710
I3
sVpr
p711
F0.93618471727229491
sg4
(dp712
g6
I-1
sg7
I-1
sg8
I3
sg9
g116
sg11
I10
sg12
I128
sg13
I4690
sg14
I2007
sg15
I-1
sg16
g17
sg18
I100000
sg19
S'--pointCloudPointsPerPartition 500000 --pointCloudPartitionSkew 0 --pointCloudLabelNoise 0.05 --pointCloudDimension 3 '
p713
sg21
S'cd /mnt/spark; sbin/stop-all.sh; sleep 5; sbin/start-all.sh; sleep 3;./bin/spark-submit --driver-memory 52g --class org.apache.spark.examples.mllib.research.SynchronousADMMTests examples/target/scala-*/spark-examples-*.jar --algorithm GD --regType L2 --regParam 10 --format cloud --numPartitions 128 --runtimeMS 40000 --ADMMmaxLocalIterations 100000 --ADMMepsilon 0.0 --ADMMLocalepsilon -1 --ADMMrho 1000 --ADMMLagrangianrho 1000 --broadcastDelayMs -1 --dblpSplitYear 2007 --wikipediaTargetWordToken 4690 --inputTokenHashKernelDimension 100 --localTimeout -1 --pointCloudPointsPerPartition 500000 --pointCloudPartitionSkew 0 --pointCloudLabelNoise 0.05 --pointCloudDimension 3   '
p714
sg23
I1000
sg24
F0.0
sg25
I100
sg26
g27
sg28
S'RESULT: {"trainingLoss": 1.1588366712738165E8, "stats": {"iterations": 86, "runtime": 40166}, "params": {"format": "cloud", "algParams": {"usePorkChop": false, "lagrangianRho": 1000.0, "rho0": 1000.0, "maxWorkerIterations": 100000, "useLBFGS": false, "maxIterations": 1000, "eta0": 1.0, "runtimeMS": 40000, "adaptiveRho": false, "broadcastDelayMS": -1, "regParam": 1.5625E-7, "tol": 0.0, "displayIncrementalStats": false, "localTimeout": -1, "useLineSearch": false, "workerTol": -1.0, "miniBatchSize": 10}, "wikipediaTargetWordToken": 4690, "dblpSplitYear": 2007, "regType": "L2", "algorithm": "GD", "inputTokenHashKernelDimension": 100, "useLR": false, "pointCloudPoints": 500000, "pointCloudDim": 3, "pointCloudSize": 1.0, "pointCloudSkew": 0.0, "input": "null", "numPartitions": 128, "pointCloudNoise": 0.05}, "nDim": 3, "algorithm": "GD", "pr": 0.9361847172722949, "totalLoss": 1.1588366712738226E8, "nExamples": 64000000, "runtimeMS": 40166, "regPenalty": 6.065848759050321E-7, "trainingError": 0.49975765625, "maxW": 0.5066907223116848, "minW": -2.6929489827359276, "iterations": 86, "roc": 0.9499754217376325}\n'
p715
sg30
I1000
sg31
I0
ssVstats
p716
(dp717
Vruntime
p718
I40166
sViterations
p719
I86
ssVtotalLoss
p720
F115883667.12738226
sValgorithm
p721
VGD
p722
sVregPenalty
p723
F6.0658487590503207e-07
sVroc
p724
F0.9499754217376325
sVmaxW
p725
F0.50669072231168477
sVnExamples
p726
I64000000
sVruntimeMS
p727
I40166
sVparams
p728
(dp729
VpointCloudDim
p730
I3
sVinput
p731
Vnull
p732
sValgorithm
p733
VGD
p734
sVformat
p735
Vcloud
p736
sVpointCloudSize
p737
F1.0
sVwikipediaTargetWordToken
p738
I4690
sVdblpSplitYear
p739
I2007
sVnumPartitions
p740
I128
sValgParams
p741
(dp742
VregParam
p743
F1.5625000000000001e-07
sVmaxIterations
p744
I1000
sVusePorkChop
p745
I00
sVtol
p746
F0.0
sVworkerTol
p747
F-1.0
sVadaptiveRho
p748
I00
sVuseLBFGS
p749
I00
sVrho0
p750
F1000.0
sVdisplayIncrementalStats
p751
I00
sVminiBatchSize
p752
I10
sVlocalTimeout
p753
I-1
sVmaxWorkerIterations
p754
I100000
sVruntimeMS
p755
I40000
sVbroadcastDelayMS
p756
I-1
sVeta0
p757
F1.0
sVlagrangianRho
p758
F1000.0
sVuseLineSearch
p759
I00
ssVinputTokenHashKernelDimension
p760
I100
sVpointCloudPoints
p761
I500000
sVregType
p762
VL2
p763
sVuseLR
p764
I00
sVpointCloudNoise
p765
F0.050000000000000003
sVpointCloudSkew
p766
F0.0
ssViterations
p767
I86
sVtrainingLoss
p768
F115883667.12738165
sVminW
p769
F-2.6929489827359276
sVtrainingError
p770
F0.49975765625000002
sa(dp771
VnDim
p772
I3
sVpr
p773
F0.9361851006348817
sg4
(dp774
g6
I0
sg7
I-1
sg8
I3
sg9
g10
sg11
I10
sg12
I128
sg13
I4690
sg14
I2007
sg15
I10000000
sg16
g17
sg18
I1000000
sg19
S'--pointCloudPointsPerPartition 500000 --pointCloudPartitionSkew 0 --pointCloudLabelNoise 0.05 --pointCloudDimension 3 '
p775
sg21
S'cd /mnt/spark; sbin/stop-all.sh; sleep 5; sbin/start-all.sh; sleep 3;./bin/spark-submit --driver-memory 52g --class org.apache.spark.examples.mllib.research.SynchronousADMMTests examples/target/scala-*/spark-examples-*.jar --algorithm ADMM --regType L2 --regParam 10 --format cloud --numPartitions 128 --runtimeMS 80000 --ADMMmaxLocalIterations 1000000 --ADMMepsilon 0.0 --ADMMLocalepsilon 0 --ADMMrho 1000 --ADMMLagrangianrho 1000 --broadcastDelayMs -1 --dblpSplitYear 2007 --wikipediaTargetWordToken 4690 --inputTokenHashKernelDimension 100 --localTimeout 10000000 --pointCloudPointsPerPartition 500000 --pointCloudPartitionSkew 0 --pointCloudLabelNoise 0.05 --pointCloudDimension 3   '
p776
sg23
I1000
sg24
F0.0
sg25
I100
sg26
g27
sg28
S'RESULT: {"trainingLoss": 6.222884183578399E7, "stats": {"dualAvgNorm": 0.0, "stats": {"avgDualUpdates": [11.0, 11.0, 11.0], "primalAvg": [0.006200979464075488, 0.006100178118424971, -0.08928291723136414], "dualAvg": [0.0, 0.0, 0.0], "avgResidual": [3.216736364536086E-6, 0.0020062584274764704, 0.02721650632337436], "avgMsgsSent": [0.0, 0.0, 0.0], "avgMsgsRcvd": [0.0, 0.0, 0.0], "avgLocalIters": [0.0, 0.0, 0.0], "avgSGDIters": [237400.0, 265314.0625, 292200.0]}, "dualUpdates": [11.0, 11.0, 11.0], "primalAvgNorm": 0.08970564992648465, "avgSGDIters": [237400.0, 265314.0625, 292200.0], "iterations": 11, "runtime": 80154, "consensusNorm": 0.0896986422200612}, "params": {"format": "cloud", "algParams": {"usePorkChop": false, "lagrangianRho": 1000.0, "rho0": 1000.0, "maxWorkerIterations": 1000000, "useLBFGS": false, "maxIterations": 1000, "eta0": 1.0, "runtimeMS": 80000, "adaptiveRho": false, "broadcastDelayMS": -1, "regParam": 10.0, "tol": 0.0, "displayIncrementalStats": false, "localTimeout": 10000000, "useLineSearch": false, "workerTol": 0.0, "miniBatchSize": 10}, "wikipediaTargetWordToken": 4690, "dblpSplitYear": 2007, "regType": "L2", "algorithm": "ADMM", "inputTokenHashKernelDimension": 100, "useLR": false, "pointCloudPoints": 500000, "pointCloudDim": 3, "pointCloudSize": 1.0, "pointCloudSkew": 0.0, "input": "null", "numPartitions": 128, "pointCloudNoise": 0.05}, "nDim": 3, "algorithm": "ADMM", "pr": 0.9361851006348817, "totalLoss": 6.222884187601322E7, "nExamples": 64000000, "runtimeMS": 80154, "regPenalty": 0.04022923208061273, "trainingError": 0.050344984375, "maxW": 0.006200495050399675, "minW": -0.08927594254835254, "iterations": 11, "roc": 0.9499754343238986}\n'
p777
sg30
I1000
sg31
I0
ssVstats
p778
(dp779
Vstats
p780
(dp781
VavgMsgsRcvd
p782
(lp783
F0.0
aF0.0
aF0.0
asVavgMsgsSent
p784
(lp785
F0.0
aF0.0
aF0.0
asVavgDualUpdates
p786
(lp787
F11.0
aF11.0
aF11.0
asVavgLocalIters
p788
(lp789
F0.0
aF0.0
aF0.0
asVavgResidual
p790
(lp791
F3.2167363645360861e-06
aF0.0020062584274764704
aF0.02721650632337436
asVprimalAvg
p792
(lp793
F0.0062009794640754878
aF0.0061001781184249707
aF-0.089282917231364139
asVdualAvg
p794
(lp795
F0.0
aF0.0
aF0.0
asVavgSGDIters
p796
(lp797
F237400.0
aF265314.0625
aF292200.0
assVconsensusNorm
p798
F0.0896986422200612
sVdualUpdates
p799
(lp800
F11.0
aF11.0
aF11.0
asVdualAvgNorm
p801
F0.0
sVprimalAvgNorm
p802
F0.089705649926484651
sViterations
p803
I11
sVruntime
p804
I80154
sVavgSGDIters
p805
(lp806
F237400.0
aF265314.0625
aF292200.0
assVtotalLoss
p807
F62228841.876013219
sValgorithm
p808
VADMM
p809
sVregPenalty
p810
F0.040229232080612728
sVroc
p811
F0.94997543432389864
sVmaxW
p812
F0.0062004950503996752
sVnExamples
p813
I64000000
sVruntimeMS
p814
I80154
sVparams
p815
(dp816
VpointCloudDim
p817
I3
sVinput
p818
Vnull
p819
sValgorithm
p820
VADMM
p821
sVformat
p822
Vcloud
p823
sVpointCloudSize
p824
F1.0
sVwikipediaTargetWordToken
p825
I4690
sVdblpSplitYear
p826
I2007
sVnumPartitions
p827
I128
sValgParams
p828
(dp829
VregParam
p830
F10.0
sVmaxIterations
p831
I1000
sVusePorkChop
p832
I00
sVtol
p833
F0.0
sVworkerTol
p834
F0.0
sVadaptiveRho
p835
I00
sVuseLBFGS
p836
I00
sVrho0
p837
F1000.0
sVdisplayIncrementalStats
p838
I00
sVminiBatchSize
p839
I10
sVlocalTimeout
p840
I10000000
sVmaxWorkerIterations
p841
I1000000
sVruntimeMS
p842
I80000
sVbroadcastDelayMS
p843
I-1
sVeta0
p844
F1.0
sVlagrangianRho
p845
F1000.0
sVuseLineSearch
p846
I00
ssVinputTokenHashKernelDimension
p847
I100
sVpointCloudPoints
p848
I500000
sVregType
p849
VL2
p850
sVuseLR
p851
I00
sVpointCloudNoise
p852
F0.050000000000000003
sVpointCloudSkew
p853
F0.0
ssViterations
p854
I11
sVtrainingLoss
p855
F62228841.835783988
sVminW
p856
F-0.089275942548352541
sVtrainingError
p857
F0.050344984374999999
sa(dp858
VnDim
p859
I3
sVpr
p860
F0.93618469231422674
sg4
(dp861
g6
I-1
sg7
I-1
sg8
I3
sg9
g116
sg11
I10
sg12
I128
sg13
I4690
sg14
I2007
sg15
I-1
sg16
g17
sg18
I100000
sg19
S'--pointCloudPointsPerPartition 500000 --pointCloudPartitionSkew 0 --pointCloudLabelNoise 0.05 --pointCloudDimension 3 '
p862
sg21
S'cd /mnt/spark; sbin/stop-all.sh; sleep 5; sbin/start-all.sh; sleep 3;./bin/spark-submit --driver-memory 52g --class org.apache.spark.examples.mllib.research.SynchronousADMMTests examples/target/scala-*/spark-examples-*.jar --algorithm GD --regType L2 --regParam 10 --format cloud --numPartitions 128 --runtimeMS 80000 --ADMMmaxLocalIterations 100000 --ADMMepsilon 0.0 --ADMMLocalepsilon -1 --ADMMrho 1000 --ADMMLagrangianrho 1000 --broadcastDelayMs -1 --dblpSplitYear 2007 --wikipediaTargetWordToken 4690 --inputTokenHashKernelDimension 100 --localTimeout -1 --pointCloudPointsPerPartition 500000 --pointCloudPartitionSkew 0 --pointCloudLabelNoise 0.05 --pointCloudDimension 3   '
p863
sg23
I1000
sg24
F0.0
sg25
I100
sg26
g27
sg28
S'RESULT: {"trainingLoss": 2.0473526331574667E7, "stats": {"iterations": 204, "runtime": 80309}, "params": {"format": "cloud", "algParams": {"usePorkChop": false, "lagrangianRho": 1000.0, "rho0": 1000.0, "maxWorkerIterations": 100000, "useLBFGS": false, "maxIterations": 1000, "eta0": 1.0, "runtimeMS": 80000, "adaptiveRho": false, "broadcastDelayMS": -1, "regParam": 1.5625E-7, "tol": 0.0, "displayIncrementalStats": false, "localTimeout": -1, "useLineSearch": false, "workerTol": -1.0, "miniBatchSize": 10}, "wikipediaTargetWordToken": 4690, "dblpSplitYear": 2007, "regType": "L2", "algorithm": "GD", "inputTokenHashKernelDimension": 100, "useLR": false, "pointCloudPoints": 500000, "pointCloudDim": 3, "pointCloudSize": 1.0, "pointCloudSkew": 0.0, "input": "null", "numPartitions": 128, "pointCloudNoise": 0.05}, "nDim": 3, "algorithm": "GD", "pr": 0.9361846923142267, "totalLoss": 2.0473526331575967E7, "nExamples": 64000000, "runtimeMS": 80309, "regPenalty": 1.3011558806065982E-6, "trainingError": 0.084460828125, "maxW": 0.33777963052807564, "minW": -4.0530710812486195, "iterations": 204, "roc": 0.9499754212326695}\n'
p864
sg30
I1000
sg31
I0
ssVstats
p865
(dp866
Vruntime
p867
I80309
sViterations
p868
I204
ssVtotalLoss
p869
F20473526.331575967
sValgorithm
p870
VGD
p871
sVregPenalty
p872
F1.3011558806065982e-06
sVroc
p873
F0.94997542123266954
sVmaxW
p874
F0.33777963052807564
sVnExamples
p875
I64000000
sVruntimeMS
p876
I80309
sVparams
p877
(dp878
VpointCloudDim
p879
I3
sVinput
p880
Vnull
p881
sValgorithm
p882
VGD
p883
sVformat
p884
Vcloud
p885
sVpointCloudSize
p886
F1.0
sVwikipediaTargetWordToken
p887
I4690
sVdblpSplitYear
p888
I2007
sVnumPartitions
p889
I128
sValgParams
p890
(dp891
VregParam
p892
F1.5625000000000001e-07
sVmaxIterations
p893
I1000
sVusePorkChop
p894
I00
sVtol
p895
F0.0
sVworkerTol
p896
F-1.0
sVadaptiveRho
p897
I00
sVuseLBFGS
p898
I00
sVrho0
p899
F1000.0
sVdisplayIncrementalStats
p900
I00
sVminiBatchSize
p901
I10
sVlocalTimeout
p902
I-1
sVmaxWorkerIterations
p903
I100000
sVruntimeMS
p904
I80000
sVbroadcastDelayMS
p905
I-1
sVeta0
p906
F1.0
sVlagrangianRho
p907
F1000.0
sVuseLineSearch
p908
I00
ssVinputTokenHashKernelDimension
p909
I100
sVpointCloudPoints
p910
I500000
sVregType
p911
VL2
p912
sVuseLR
p913
I00
sVpointCloudNoise
p914
F0.050000000000000003
sVpointCloudSkew
p915
F0.0
ssViterations
p916
I204
sVtrainingLoss
p917
F20473526.331574667
sVminW
p918
F-4.0530710812486195
sVtrainingError
p919
F0.084460828124999998
sa(dp920
VnDim
p921
I3
sVpr
p922
F0.93618929960245123
sg4
(dp923
g6
I0
sg7
I-1
sg8
I3
sg9
g10
sg11
I10
sg12
I128
sg13
I4690
sg14
I2007
sg15
I10000000
sg16
g17
sg18
I1000000
sg19
S'--pointCloudPointsPerPartition 500000 --pointCloudPartitionSkew 0.05 --pointCloudLabelNoise 0.05 --pointCloudDimension 3 '
p924
sg21
S'cd /mnt/spark; sbin/stop-all.sh; sleep 5; sbin/start-all.sh; sleep 3;./bin/spark-submit --driver-memory 52g --class org.apache.spark.examples.mllib.research.SynchronousADMMTests examples/target/scala-*/spark-examples-*.jar --algorithm ADMM --regType L2 --regParam 10 --format cloud --numPartitions 128 --runtimeMS 1000 --ADMMmaxLocalIterations 1000000 --ADMMepsilon 0.0 --ADMMLocalepsilon 0 --ADMMrho 1000 --ADMMLagrangianrho 1000 --broadcastDelayMs -1 --dblpSplitYear 2007 --wikipediaTargetWordToken 4690 --inputTokenHashKernelDimension 100 --localTimeout 10000000 --pointCloudPointsPerPartition 500000 --pointCloudPartitionSkew 0.05 --pointCloudLabelNoise 0.05 --pointCloudDimension 3   '
p925
sg23
I1000
sg24
F0.0
sg25
I100
sg26
g27
sg28
S'RESULT: {"trainingLoss": 1.128846962950626E7, "stats": {"dualAvgNorm": 0.0, "stats": {"avgDualUpdates": [1.0, 1.0, 1.0], "primalAvg": [0.2250291778642895, 0.22631238991275535, -3.361370010023795], "dualAvg": [0.0, 0.0, 0.0], "avgResidual": [1.738362801230095E-5, 0.0029113733976308966, 0.010235354943671806], "avgMsgsSent": [0.0, 0.0, 0.0], "avgMsgsRcvd": [0.0, 0.0, 0.0], "avgLocalIters": [0.0, 0.0, 0.0], "avgSGDIters": [84000.0, 105091.40625, 133700.0]}, "dualUpdates": [1.0, 1.0, 1.0], "primalAvgNorm": 3.376486898094774, "avgSGDIters": [84000.0, 105091.40625, 133700.0], "iterations": 1, "runtime": 1256, "consensusNorm": 3.376223130662691}, "params": {"format": "cloud", "algParams": {"usePorkChop": false, "lagrangianRho": 1000.0, "rho0": 1000.0, "maxWorkerIterations": 1000000, "useLBFGS": false, "maxIterations": 1000, "eta0": 1.0, "runtimeMS": 1000, "adaptiveRho": false, "broadcastDelayMS": -1, "regParam": 10.0, "tol": 0.0, "displayIncrementalStats": false, "localTimeout": 10000000, "useLineSearch": false, "workerTol": 0.0, "miniBatchSize": 10}, "wikipediaTargetWordToken": 4690, "dblpSplitYear": 2007, "regType": "L2", "algorithm": "ADMM", "inputTokenHashKernelDimension": 100, "useLR": false, "pointCloudPoints": 500000, "pointCloudDim": 3, "pointCloudSize": 1.0, "pointCloudSkew": 0.05, "input": "null", "numPartitions": 128, "pointCloudNoise": 0.05}, "nDim": 3, "algorithm": "ADMM", "pr": 0.9361892996024512, "totalLoss": 1.12885266239194E7, "nExamples": 64000000, "runtimeMS": 1256, "regPenalty": 56.994413140108904, "trainingError": 0.050194546875, "maxW": 0.22629471063848672, "minW": -3.3611074235063336, "iterations": 1, "roc": 0.9499822062139989}\n'
p926
sg30
I1000
sg31
F0.050000000000000003
ssVstats
p927
(dp928
Vstats
p929
(dp930
VavgMsgsRcvd
p931
(lp932
F0.0
aF0.0
aF0.0
asVavgMsgsSent
p933
(lp934
F0.0
aF0.0
aF0.0
asVavgDualUpdates
p935
(lp936
F1.0
aF1.0
aF1.0
asVavgLocalIters
p937
(lp938
F0.0
aF0.0
aF0.0
asVavgResidual
p939
(lp940
F1.7383628012300949e-05
aF0.0029113733976308966
aF0.010235354943671806
asVprimalAvg
p941
(lp942
F0.2250291778642895
aF0.22631238991275535
aF-3.3613700100237951
asVdualAvg
p943
(lp944
F0.0
aF0.0
aF0.0
asVavgSGDIters
p945
(lp946
F84000.0
aF105091.40625
aF133700.0
assVconsensusNorm
p947
F3.3762231306626909
sVdualUpdates
p948
(lp949
F1.0
aF1.0
aF1.0
asVdualAvgNorm
p950
F0.0
sVprimalAvgNorm
p951
F3.376486898094774
sViterations
p952
I1
sVruntime
p953
I1256
sVavgSGDIters
p954
(lp955
F84000.0
aF105091.40625
aF133700.0
assVtotalLoss
p956
F11288526.623919399
sValgorithm
p957
VADMM
p958
sVregPenalty
p959
F56.994413140108904
sVroc
p960
F0.94998220621399887
sVmaxW
p961
F0.22629471063848672
sVnExamples
p962
I64000000
sVruntimeMS
p963
I1256
sVparams
p964
(dp965
VpointCloudDim
p966
I3
sVinput
p967
Vnull
p968
sValgorithm
p969
VADMM
p970
sVformat
p971
Vcloud
p972
sVpointCloudSize
p973
F1.0
sVwikipediaTargetWordToken
p974
I4690
sVdblpSplitYear
p975
I2007
sVnumPartitions
p976
I128
sValgParams
p977
(dp978
VregParam
p979
F10.0
sVmaxIterations
p980
I1000
sVusePorkChop
p981
I00
sVtol
p982
F0.0
sVworkerTol
p983
F0.0
sVadaptiveRho
p984
I00
sVuseLBFGS
p985
I00
sVrho0
p986
F1000.0
sVdisplayIncrementalStats
p987
I00
sVminiBatchSize
p988
I10
sVlocalTimeout
p989
I10000000
sVmaxWorkerIterations
p990
I1000000
sVruntimeMS
p991
I1000
sVbroadcastDelayMS
p992
I-1
sVeta0
p993
F1.0
sVlagrangianRho
p994
F1000.0
sVuseLineSearch
p995
I00
ssVinputTokenHashKernelDimension
p996
I100
sVpointCloudPoints
p997
I500000
sVregType
p998
VL2
p999
sVuseLR
p1000
I00
sVpointCloudNoise
p1001
F0.050000000000000003
sVpointCloudSkew
p1002
F0.050000000000000003
ssViterations
p1003
I1
sVtrainingLoss
p1004
F11288469.62950626
sVminW
p1005
F-3.3611074235063336
sVtrainingError
p1006
F0.050194546875000003
sa(dp1007
VnDim
p1008
I3
sVpr
p1009
F0.93618943703508428
sg4
(dp1010
g6
I-1
sg7
I-1
sg8
I3
sg9
g116
sg11
I10
sg12
I128
sg13
I4690
sg14
I2007
sg15
I-1
sg16
g17
sg18
I100000
sg19
S'--pointCloudPointsPerPartition 500000 --pointCloudPartitionSkew 0.05 --pointCloudLabelNoise 0.05 --pointCloudDimension 3 '
p1011
sg21
S'cd /mnt/spark; sbin/stop-all.sh; sleep 5; sbin/start-all.sh; sleep 3;./bin/spark-submit --driver-memory 52g --class org.apache.spark.examples.mllib.research.SynchronousADMMTests examples/target/scala-*/spark-examples-*.jar --algorithm GD --regType L2 --regParam 10 --format cloud --numPartitions 128 --runtimeMS 1000 --ADMMmaxLocalIterations 100000 --ADMMepsilon 0.0 --ADMMLocalepsilon -1 --ADMMrho 1000 --ADMMLagrangianrho 1000 --broadcastDelayMs -1 --dblpSplitYear 2007 --wikipediaTargetWordToken 4690 --inputTokenHashKernelDimension 100 --localTimeout -1 --pointCloudPointsPerPartition 500000 --pointCloudPartitionSkew 0.05 --pointCloudLabelNoise 0.05 --pointCloudDimension 3   '
p1012
sg23
I1000
sg24
F0.0
sg25
I100
sg26
g27
sg28
S'RESULT: {"trainingLoss": 7.881221201598402E8, "stats": {"iterations": 2, "runtime": 2271}, "params": {"format": "cloud", "algParams": {"usePorkChop": false, "lagrangianRho": 1000.0, "rho0": 1000.0, "maxWorkerIterations": 100000, "useLBFGS": false, "maxIterations": 1000, "eta0": 1.0, "runtimeMS": 1000, "adaptiveRho": false, "broadcastDelayMS": -1, "regParam": 1.5625E-7, "tol": 0.0, "displayIncrementalStats": false, "localTimeout": -1, "useLineSearch": false, "workerTol": -1.0, "miniBatchSize": 10}, "wikipediaTargetWordToken": 4690, "dblpSplitYear": 2007, "regType": "L2", "algorithm": "GD", "inputTokenHashKernelDimension": 100, "useLR": false, "pointCloudPoints": 500000, "pointCloudDim": 3, "pointCloudSize": 1.0, "pointCloudSkew": 0.05, "input": "null", "numPartitions": 128, "pointCloudNoise": 0.05}, "nDim": 3, "algorithm": "GD", "pr": 0.9361894370350843, "totalLoss": 7.881221201598411E8, "nExamples": 64000000, "runtimeMS": 2271, "regPenalty": 7.914494099945378E-7, "trainingError": 0.499955125, "maxW": 2.250753413615412, "minW": 8.975E-5, "iterations": 2, "roc": 0.9499822052373406}\n'
p1013
sg30
I1000
sg31
F0.050000000000000003
ssVstats
p1014
(dp1015
Vruntime
p1016
I2271
sViterations
p1017
I2
ssVtotalLoss
p1018
F788122120.15984106
sValgorithm
p1019
VGD
p1020
sVregPenalty
p1021
F7.9144940999453784e-07
sVroc
p1022
F0.94998220523734056
sVmaxW
p1023
F2.2507534136154121
sVnExamples
p1024
I64000000
sVruntimeMS
p1025
I2271
sVparams
p1026
(dp1027
VpointCloudDim
p1028
I3
sVinput
p1029
Vnull
p1030
sValgorithm
p1031
VGD
p1032
sVformat
p1033
Vcloud
p1034
sVpointCloudSize
p1035
F1.0
sVwikipediaTargetWordToken
p1036
I4690
sVdblpSplitYear
p1037
I2007
sVnumPartitions
p1038
I128
sValgParams
p1039
(dp1040
VregParam
p1041
F1.5625000000000001e-07
sVmaxIterations
p1042
I1000
sVusePorkChop
p1043
I00
sVtol
p1044
F0.0
sVworkerTol
p1045
F-1.0
sVadaptiveRho
p1046
I00
sVuseLBFGS
p1047
I00
sVrho0
p1048
F1000.0
sVdisplayIncrementalStats
p1049
I00
sVminiBatchSize
p1050
I10
sVlocalTimeout
p1051
I-1
sVmaxWorkerIterations
p1052
I100000
sVruntimeMS
p1053
I1000
sVbroadcastDelayMS
p1054
I-1
sVeta0
p1055
F1.0
sVlagrangianRho
p1056
F1000.0
sVuseLineSearch
p1057
I00
ssVinputTokenHashKernelDimension
p1058
I100
sVpointCloudPoints
p1059
I500000
sVregType
p1060
VL2
p1061
sVuseLR
p1062
I00
sVpointCloudNoise
p1063
F0.050000000000000003
sVpointCloudSkew
p1064
F0.050000000000000003
ssViterations
p1065
I2
sVtrainingLoss
p1066
F788122120.15984023
sVminW
p1067
F8.975e-05
sVtrainingError
p1068
F0.499955125
sa(dp1069
VnDim
p1070
I3
sVpr
p1071
F0.93618946390387725
sg4
(dp1072
g6
I0
sg7
I-1
sg8
I3
sg9
g10
sg11
I10
sg12
I128
sg13
I4690
sg14
I2007
sg15
I10000000
sg16
g17
sg18
I1000000
sg19
S'--pointCloudPointsPerPartition 500000 --pointCloudPartitionSkew 0.05 --pointCloudLabelNoise 0.05 --pointCloudDimension 3 '
p1073
sg21
S'cd /mnt/spark; sbin/stop-all.sh; sleep 5; sbin/start-all.sh; sleep 3;./bin/spark-submit --driver-memory 52g --class org.apache.spark.examples.mllib.research.SynchronousADMMTests examples/target/scala-*/spark-examples-*.jar --algorithm ADMM --regType L2 --regParam 10 --format cloud --numPartitions 128 --runtimeMS 5000 --ADMMmaxLocalIterations 1000000 --ADMMepsilon 0.0 --ADMMLocalepsilon 0 --ADMMrho 1000 --ADMMLagrangianrho 1000 --broadcastDelayMs -1 --dblpSplitYear 2007 --wikipediaTargetWordToken 4690 --inputTokenHashKernelDimension 100 --localTimeout 10000000 --pointCloudPointsPerPartition 500000 --pointCloudPartitionSkew 0.05 --pointCloudLabelNoise 0.05 --pointCloudDimension 3   '
p1074
sg23
I1000
sg24
F0.0
sg25
I100
sg26
g27
sg28
S'RESULT: {"trainingLoss": 1.1407338323027397E7, "stats": {"dualAvgNorm": 0.0, "stats": {"avgDualUpdates": [1.0, 1.0, 1.0], "primalAvg": [0.22366671270862823, 0.22344237068086137, -3.3328209159986155], "dualAvg": [0.0, 0.0, 0.0], "avgResidual": [7.574280232279932E-6, 0.0014939195299767311, 0.005614782641100554], "avgMsgsSent": [0.0, 0.0, 0.0], "avgMsgsRcvd": [0.0, 0.0, 0.0], "avgLocalIters": [0.0, 0.0, 0.0], "avgSGDIters": [514700.0, 583308.59375, 673400.0]}, "dualUpdates": [1.0, 1.0, 1.0], "primalAvgNorm": 3.3477826317590003, "avgSGDIters": [514700.0, 583308.59375, 673400.0], "iterations": 1, "runtime": 5248, "consensusNorm": 3.3475211066725414}, "params": {"format": "cloud", "algParams": {"usePorkChop": false, "lagrangianRho": 1000.0, "rho0": 1000.0, "maxWorkerIterations": 1000000, "useLBFGS": false, "maxIterations": 1000, "eta0": 1.0, "runtimeMS": 5000, "adaptiveRho": false, "broadcastDelayMS": -1, "regParam": 10.0, "tol": 0.0, "displayIncrementalStats": false, "localTimeout": 10000000, "useLineSearch": false, "workerTol": 0.0, "miniBatchSize": 10}, "wikipediaTargetWordToken": 4690, "dblpSplitYear": 2007, "regType": "L2", "algorithm": "ADMM", "inputTokenHashKernelDimension": 100, "useLR": false, "pointCloudPoints": 500000, "pointCloudDim": 3, "pointCloudSize": 1.0, "pointCloudSkew": 0.05, "input": "null", "numPartitions": 128, "pointCloudNoise": 0.05}, "nDim": 3, "algorithm": "ADMM", "pr": 0.9361894639038773, "totalLoss": 1.1407394352515195E7, "nExamples": 64000000, "runtimeMS": 5248, "regPenalty": 56.029487798090784, "trainingError": 0.050192421875, "maxW": 0.2236492401117445, "minW": -3.3325605597048886, "iterations": 1, "roc": 0.9499822050078407}\n'
p1075
sg30
I1000
sg31
F0.050000000000000003
ssVstats
p1076
(dp1077
Vstats
p1078
(dp1079
VavgMsgsRcvd
p1080
(lp1081
F0.0
aF0.0
aF0.0
asVavgMsgsSent
p1082
(lp1083
F0.0
aF0.0
aF0.0
asVavgDualUpdates
p1084
(lp1085
F1.0
aF1.0
aF1.0
asVavgLocalIters
p1086
(lp1087
F0.0
aF0.0
aF0.0
asVavgResidual
p1088
(lp1089
F7.5742802322799316e-06
aF0.0014939195299767311
aF0.0056147826411005542
asVprimalAvg
p1090
(lp1091
F0.22366671270862823
aF0.22344237068086137
aF-3.3328209159986155
asVdualAvg
p1092
(lp1093
F0.0
aF0.0
aF0.0
asVavgSGDIters
p1094
(lp1095
F514700.0
aF583308.59375
aF673400.0
assVconsensusNorm
p1096
F3.3475211066725414
sVdualUpdates
p1097
(lp1098
F1.0
aF1.0
aF1.0
asVdualAvgNorm
p1099
F0.0
sVprimalAvgNorm
p1100
F3.3477826317590003
sViterations
p1101
I1
sVruntime
p1102
I5248
sVavgSGDIters
p1103
(lp1104
F514700.0
aF583308.59375
aF673400.0
assVtotalLoss
p1105
F11407394.352515195
sValgorithm
p1106
VADMM
p1107
sVregPenalty
p1108
F56.029487798090784
sVroc
p1109
F0.9499822050078407
sVmaxW
p1110
F0.2236492401117445
sVnExamples
p1111
I64000000
sVruntimeMS
p1112
I5248
sVparams
p1113
(dp1114
VpointCloudDim
p1115
I3
sVinput
p1116
Vnull
p1117
sValgorithm
p1118
VADMM
p1119
sVformat
p1120
Vcloud
p1121
sVpointCloudSize
p1122
F1.0
sVwikipediaTargetWordToken
p1123
I4690
sVdblpSplitYear
p1124
I2007
sVnumPartitions
p1125
I128
sValgParams
p1126
(dp1127
VregParam
p1128
F10.0
sVmaxIterations
p1129
I1000
sVusePorkChop
p1130
I00
sVtol
p1131
F0.0
sVworkerTol
p1132
F0.0
sVadaptiveRho
p1133
I00
sVuseLBFGS
p1134
I00
sVrho0
p1135
F1000.0
sVdisplayIncrementalStats
p1136
I00
sVminiBatchSize
p1137
I10
sVlocalTimeout
p1138
I10000000
sVmaxWorkerIterations
p1139
I1000000
sVruntimeMS
p1140
I5000
sVbroadcastDelayMS
p1141
I-1
sVeta0
p1142
F1.0
sVlagrangianRho
p1143
F1000.0
sVuseLineSearch
p1144
I00
ssVinputTokenHashKernelDimension
p1145
I100
sVpointCloudPoints
p1146
I500000
sVregType
p1147
VL2
p1148
sVuseLR
p1149
I00
sVpointCloudNoise
p1150
F0.050000000000000003
sVpointCloudSkew
p1151
F0.050000000000000003
ssViterations
p1152
I1
sVtrainingLoss
p1153
F11407338.323027397
sVminW
p1154
F-3.3325605597048886
sVtrainingError
p1155
F0.050192421874999997
sa(dp1156
VnDim
p1157
I3
sVpr
p1158
F0.93618942959696672
sg4
(dp1159
g6
I-1
sg7
I-1
sg8
I3
sg9
g116
sg11
I10
sg12
I128
sg13
I4690
sg14
I2007
sg15
I-1
sg16
g17
sg18
I100000
sg19
S'--pointCloudPointsPerPartition 500000 --pointCloudPartitionSkew 0.05 --pointCloudLabelNoise 0.05 --pointCloudDimension 3 '
p1160
sg21
S'cd /mnt/spark; sbin/stop-all.sh; sleep 5; sbin/start-all.sh; sleep 3;./bin/spark-submit --driver-memory 52g --class org.apache.spark.examples.mllib.research.SynchronousADMMTests examples/target/scala-*/spark-examples-*.jar --algorithm GD --regType L2 --regParam 10 --format cloud --numPartitions 128 --runtimeMS 5000 --ADMMmaxLocalIterations 100000 --ADMMepsilon 0.0 --ADMMLocalepsilon -1 --ADMMrho 1000 --ADMMLagrangianrho 1000 --broadcastDelayMs -1 --dblpSplitYear 2007 --wikipediaTargetWordToken 4690 --inputTokenHashKernelDimension 100 --localTimeout -1 --pointCloudPointsPerPartition 500000 --pointCloudPartitionSkew 0.05 --pointCloudLabelNoise 0.05 --pointCloudDimension 3   '
p1161
sg23
I1000
sg24
F0.0
sg25
I100
sg26
g27
sg28
S'RESULT: {"trainingLoss": 4.619001875344331E8, "stats": {"iterations": 5, "runtime": 5300}, "params": {"format": "cloud", "algParams": {"usePorkChop": false, "lagrangianRho": 1000.0, "rho0": 1000.0, "maxWorkerIterations": 100000, "useLBFGS": false, "maxIterations": 1000, "eta0": 1.0, "runtimeMS": 5000, "adaptiveRho": false, "broadcastDelayMS": -1, "regParam": 1.5625E-7, "tol": 0.0, "displayIncrementalStats": false, "localTimeout": -1, "useLineSearch": false, "workerTol": -1.0, "miniBatchSize": 10}, "wikipediaTargetWordToken": 4690, "dblpSplitYear": 2007, "regType": "L2", "algorithm": "GD", "inputTokenHashKernelDimension": 100, "useLR": false, "pointCloudPoints": 500000, "pointCloudDim": 3, "pointCloudSize": 1.0, "pointCloudSkew": 0.05, "input": "null", "numPartitions": 128, "pointCloudNoise": 0.05}, "nDim": 3, "algorithm": "GD", "pr": 0.9361894295969667, "totalLoss": 4.619001875344334E8, "nExamples": 64000000, "runtimeMS": 5300, "regPenalty": 2.830049047246105E-7, "trainingError": 0.499955125, "maxW": 1.3172296209754053, "minW": -0.3920585705363559, "iterations": 5, "roc": 0.949982205230224}\n'
p1162
sg30
I1000
sg31
F0.050000000000000003
ssVstats
p1163
(dp1164
Vruntime
p1165
I5300
sViterations
p1166
I5
ssVtotalLoss
p1167
F461900187.53443342
sValgorithm
p1168
VGD
p1169
sVregPenalty
p1170
F2.8300490472461052e-07
sVroc
p1171
F0.94998220523022403
sVmaxW
p1172
F1.3172296209754053
sVnExamples
p1173
I64000000
sVruntimeMS
p1174
I5300
sVparams
p1175
(dp1176
VpointCloudDim
p1177
I3
sVinput
p1178
Vnull
p1179
sValgorithm
p1180
VGD
p1181
sVformat
p1182
Vcloud
p1183
sVpointCloudSize
p1184
F1.0
sVwikipediaTargetWordToken
p1185
I4690
sVdblpSplitYear
p1186
I2007
sVnumPartitions
p1187
I128
sValgParams
p1188
(dp1189
VregParam
p1190
F1.5625000000000001e-07
sVmaxIterations
p1191
I1000
sVusePorkChop
p1192
I00
sVtol
p1193
F0.0
sVworkerTol
p1194
F-1.0
sVadaptiveRho
p1195
I00
sVuseLBFGS
p1196
I00
sVrho0
p1197
F1000.0
sVdisplayIncrementalStats
p1198
I00
sVminiBatchSize
p1199
I10
sVlocalTimeout
p1200
I-1
sVmaxWorkerIterations
p1201
I100000
sVruntimeMS
p1202
I5000
sVbroadcastDelayMS
p1203
I-1
sVeta0
p1204
F1.0
sVlagrangianRho
p1205
F1000.0
sVuseLineSearch
p1206
I00
ssVinputTokenHashKernelDimension
p1207
I100
sVpointCloudPoints
p1208
I500000
sVregType
p1209
VL2
p1210
sVuseLR
p1211
I00
sVpointCloudNoise
p1212
F0.050000000000000003
sVpointCloudSkew
p1213
F0.050000000000000003
ssViterations
p1214
I5
sVtrainingLoss
p1215
F461900187.53443313
sVminW
p1216
F-0.3920585705363559
sVtrainingError
p1217
F0.499955125
sa(dp1218
VnDim
p1219
I3
sVpr
p1220
F0.93618949309604704
sg4
(dp1221
g6
I0
sg7
I-1
sg8
I3
sg9
g10
sg11
I10
sg12
I128
sg13
I4690
sg14
I2007
sg15
I10000000
sg16
g17
sg18
I1000000
sg19
S'--pointCloudPointsPerPartition 500000 --pointCloudPartitionSkew 0.05 --pointCloudLabelNoise 0.05 --pointCloudDimension 3 '
p1222
sg21
S'cd /mnt/spark; sbin/stop-all.sh; sleep 5; sbin/start-all.sh; sleep 3;./bin/spark-submit --driver-memory 52g --class org.apache.spark.examples.mllib.research.SynchronousADMMTests examples/target/scala-*/spark-examples-*.jar --algorithm ADMM --regType L2 --regParam 10 --format cloud --numPartitions 128 --runtimeMS 10000 --ADMMmaxLocalIterations 1000000 --ADMMepsilon 0.0 --ADMMLocalepsilon 0 --ADMMrho 1000 --ADMMLagrangianrho 1000 --broadcastDelayMs -1 --dblpSplitYear 2007 --wikipediaTargetWordToken 4690 --inputTokenHashKernelDimension 100 --localTimeout 10000000 --pointCloudPointsPerPartition 500000 --pointCloudPartitionSkew 0.05 --pointCloudLabelNoise 0.05 --pointCloudDimension 3   '
p1223
sg23
I1000
sg24
F0.0
sg25
I100
sg26
g27
sg28
S'RESULT: {"trainingLoss": 1.006357943967226E7, "stats": {"dualAvgNorm": 0.0, "stats": {"avgDualUpdates": [2.0, 2.0, 2.0], "primalAvg": [0.2565581791016825, 0.2559791164205813, -3.8505202842545465], "dualAvg": [0.0, 0.0, 0.0], "avgResidual": [0.0, 0.004777242241607776, 0.018458060020442275], "avgMsgsSent": [0.0, 0.0, 0.0], "avgMsgsRcvd": [0.0, 0.0, 0.0], "avgLocalIters": [0.0, 0.0, 0.0], "avgSGDIters": [1.0, 37009.3828125, 47600.0]}, "dualUpdates": [2.0, 2.0, 2.0], "primalAvgNorm": 3.8675384764424963, "avgSGDIters": [1.0, 37009.3828125, 47600.0], "iterations": 2, "runtime": 10189, "consensusNorm": 3.8672363486027614}, "params": {"format": "cloud", "algParams": {"usePorkChop": false, "lagrangianRho": 1000.0, "rho0": 1000.0, "maxWorkerIterations": 1000000, "useLBFGS": false, "maxIterations": 1000, "eta0": 1.0, "runtimeMS": 10000, "adaptiveRho": false, "broadcastDelayMS": -1, "regParam": 10.0, "tol": 0.0, "displayIncrementalStats": false, "localTimeout": 10000000, "useLineSearch": false, "workerTol": 0.0, "miniBatchSize": 10}, "wikipediaTargetWordToken": 4690, "dblpSplitYear": 2007, "regType": "L2", "algorithm": "ADMM", "inputTokenHashKernelDimension": 100, "useLR": false, "pointCloudPoints": 500000, "pointCloudDim": 3, "pointCloudSize": 1.0, "pointCloudSkew": 0.05, "input": "null", "numPartitions": 128, "pointCloudNoise": 0.05}, "nDim": 3, "algorithm": "ADMM", "pr": 0.936189493096047, "totalLoss": 1.006365421725714E7, "nExamples": 64000000, "runtimeMS": 10189, "regPenalty": 74.77758487977209, "trainingError": 0.0501873125, "maxW": 0.25653813705972467, "minW": -3.8502194858572136, "iterations": 2, "roc": 0.9499822049705372}\n'
p1224
sg30
I1000
sg31
F0.050000000000000003
ssVstats
p1225
(dp1226
Vstats
p1227
(dp1228
VavgMsgsRcvd
p1229
(lp1230
F0.0
aF0.0
aF0.0
asVavgMsgsSent
p1231
(lp1232
F0.0
aF0.0
aF0.0
asVavgDualUpdates
p1233
(lp1234
F2.0
aF2.0
aF2.0
asVavgLocalIters
p1235
(lp1236
F0.0
aF0.0
aF0.0
asVavgResidual
p1237
(lp1238
F0.0
aF0.0047772422416077756
aF0.018458060020442275
asVprimalAvg
p1239
(lp1240
F0.25655817910168249
aF0.2559791164205813
aF-3.8505202842545465
asVdualAvg
p1241
(lp1242
F0.0
aF0.0
aF0.0
asVavgSGDIters
p1243
(lp1244
F1.0
aF37009.3828125
aF47600.0
assVconsensusNorm
p1245
F3.8672363486027614
sVdualUpdates
p1246
(lp1247
F2.0
aF2.0
aF2.0
asVdualAvgNorm
p1248
F0.0
sVprimalAvgNorm
p1249
F3.8675384764424963
sViterations
p1250
I2
sVruntime
p1251
I10189
sVavgSGDIters
p1252
(lp1253
F1.0
aF37009.3828125
aF47600.0
assVtotalLoss
p1254
F10063654.21725714
sValgorithm
p1255
VADMM
p1256
sVregPenalty
p1257
F74.777584879772093
sVroc
p1258
F0.9499822049705372
sVmaxW
p1259
F0.25653813705972467
sVnExamples
p1260
I64000000
sVruntimeMS
p1261
I10189
sVparams
p1262
(dp1263
VpointCloudDim
p1264
I3
sVinput
p1265
Vnull
p1266
sValgorithm
p1267
VADMM
p1268
sVformat
p1269
Vcloud
p1270
sVpointCloudSize
p1271
F1.0
sVwikipediaTargetWordToken
p1272
I4690
sVdblpSplitYear
p1273
I2007
sVnumPartitions
p1274
I128
sValgParams
p1275
(dp1276
VregParam
p1277
F10.0
sVmaxIterations
p1278
I1000
sVusePorkChop
p1279
I00
sVtol
p1280
F0.0
sVworkerTol
p1281
F0.0
sVadaptiveRho
p1282
I00
sVuseLBFGS
p1283
I00
sVrho0
p1284
F1000.0
sVdisplayIncrementalStats
p1285
I00
sVminiBatchSize
p1286
I10
sVlocalTimeout
p1287
I10000000
sVmaxWorkerIterations
p1288
I1000000
sVruntimeMS
p1289
I10000
sVbroadcastDelayMS
p1290
I-1
sVeta0
p1291
F1.0
sVlagrangianRho
p1292
F1000.0
sVuseLineSearch
p1293
I00
ssVinputTokenHashKernelDimension
p1294
I100
sVpointCloudPoints
p1295
I500000
sVregType
p1296
VL2
p1297
sVuseLR
p1298
I00
sVpointCloudNoise
p1299
F0.050000000000000003
sVpointCloudSkew
p1300
F0.050000000000000003
ssViterations
p1301
I2
sVtrainingLoss
p1302
F10063579.43967226
sVminW
p1303
F-3.8502194858572136
sVtrainingError
p1304
F0.050187312499999998
sa(dp1305
VnDim
p1306
I3
sVpr
p1307
F0.93618940185377253
sg4
(dp1308
g6
I-1
sg7
I-1
sg8
I3
sg9
g116
sg11
I10
sg12
I128
sg13
I4690
sg14
I2007
sg15
I-1
sg16
g17
sg18
I100000
sg19
S'--pointCloudPointsPerPartition 500000 --pointCloudPartitionSkew 0.05 --pointCloudLabelNoise 0.05 --pointCloudDimension 3 '
p1309
sg21
S'cd /mnt/spark; sbin/stop-all.sh; sleep 5; sbin/start-all.sh; sleep 3;./bin/spark-submit --driver-memory 52g --class org.apache.spark.examples.mllib.research.SynchronousADMMTests examples/target/scala-*/spark-examples-*.jar --algorithm GD --regType L2 --regParam 10 --format cloud --numPartitions 128 --runtimeMS 10000 --ADMMmaxLocalIterations 100000 --ADMMepsilon 0.0 --ADMMLocalepsilon -1 --ADMMrho 1000 --ADMMLagrangianrho 1000 --broadcastDelayMs -1 --dblpSplitYear 2007 --wikipediaTargetWordToken 4690 --inputTokenHashKernelDimension 100 --localTimeout -1 --pointCloudPointsPerPartition 500000 --pointCloudPartitionSkew 0.05 --pointCloudLabelNoise 0.05 --pointCloudDimension 3   '
p1310
sg23
I1000
sg24
F0.0
sg25
I100
sg26
g27
sg28
S'RESULT: {"trainingLoss": 2.228759991186615E8, "stats": {"iterations": 13, "runtime": 10535}, "params": {"format": "cloud", "algParams": {"usePorkChop": false, "lagrangianRho": 1000.0, "rho0": 1000.0, "maxWorkerIterations": 100000, "useLBFGS": false, "maxIterations": 1000, "eta0": 1.0, "runtimeMS": 10000, "adaptiveRho": false, "broadcastDelayMS": -1, "regParam": 1.5625E-7, "tol": 0.0, "displayIncrementalStats": false, "localTimeout": -1, "useLineSearch": false, "workerTol": -1.0, "miniBatchSize": 10}, "wikipediaTargetWordToken": 4690, "dblpSplitYear": 2007, "regType": "L2", "algorithm": "GD", "inputTokenHashKernelDimension": 100, "useLR": false, "pointCloudPoints": 500000, "pointCloudDim": 3, "pointCloudSize": 1.0, "pointCloudSkew": 0.05, "input": "null", "numPartitions": 128, "pointCloudNoise": 0.05}, "nDim": 3, "algorithm": "GD", "pr": 0.9361894018537725, "totalLoss": 2.2287599911866164E8, "nExamples": 64000000, "runtimeMS": 10535, "regPenalty": 1.3842004067290016E-7, "trainingError": 0.499955125, "maxW": 0.6592141747076352, "minW": -0.950779940160523, "iterations": 13, "roc": 0.9499822051532532}\n'
p1311
sg30
I1000
sg31
F0.050000000000000003
ssVstats
p1312
(dp1313
Vruntime
p1314
I10535
sViterations
p1315
I13
ssVtotalLoss
p1316
F222875999.11866164
sValgorithm
p1317
VGD
p1318
sVregPenalty
p1319
F1.3842004067290016e-07
sVroc
p1320
F0.94998220515325316
sVmaxW
p1321
F0.65921417470763521
sVnExamples
p1322
I64000000
sVruntimeMS
p1323
I10535
sVparams
p1324
(dp1325
VpointCloudDim
p1326
I3
sVinput
p1327
Vnull
p1328
sValgorithm
p1329
VGD
p1330
sVformat
p1331
Vcloud
p1332
sVpointCloudSize
p1333
F1.0
sVwikipediaTargetWordToken
p1334
I4690
sVdblpSplitYear
p1335
I2007
sVnumPartitions
p1336
I128
sValgParams
p1337
(dp1338
VregParam
p1339
F1.5625000000000001e-07
sVmaxIterations
p1340
I1000
sVusePorkChop
p1341
I00
sVtol
p1342
F0.0
sVworkerTol
p1343
F-1.0
sVadaptiveRho
p1344
I00
sVuseLBFGS
p1345
I00
sVrho0
p1346
F1000.0
sVdisplayIncrementalStats
p1347
I00
sVminiBatchSize
p1348
I10
sVlocalTimeout
p1349
I-1
sVmaxWorkerIterations
p1350
I100000
sVruntimeMS
p1351
I10000
sVbroadcastDelayMS
p1352
I-1
sVeta0
p1353
F1.0
sVlagrangianRho
p1354
F1000.0
sVuseLineSearch
p1355
I00
ssVinputTokenHashKernelDimension
p1356
I100
sVpointCloudPoints
p1357
I500000
sVregType
p1358
VL2
p1359
sVuseLR
p1360
I00
sVpointCloudNoise
p1361
F0.050000000000000003
sVpointCloudSkew
p1362
F0.050000000000000003
ssViterations
p1363
I13
sVtrainingLoss
p1364
F222875999.11866149
sVminW
p1365
F-0.95077994016052303
sVtrainingError
p1366
F0.499955125
sa(dp1367
VnDim
p1368
I3
sVpr
p1369
F0.93618949885586988
sg4
(dp1370
g6
I0
sg7
I-1
sg8
I3
sg9
g10
sg11
I10
sg12
I128
sg13
I4690
sg14
I2007
sg15
I10000000
sg16
g17
sg18
I1000000
sg19
S'--pointCloudPointsPerPartition 500000 --pointCloudPartitionSkew 0.05 --pointCloudLabelNoise 0.05 --pointCloudDimension 3 '
p1371
sg21
S'cd /mnt/spark; sbin/stop-all.sh; sleep 5; sbin/start-all.sh; sleep 3;./bin/spark-submit --driver-memory 52g --class org.apache.spark.examples.mllib.research.SynchronousADMMTests examples/target/scala-*/spark-examples-*.jar --algorithm ADMM --regType L2 --regParam 10 --format cloud --numPartitions 128 --runtimeMS 20000 --ADMMmaxLocalIterations 1000000 --ADMMepsilon 0.0 --ADMMLocalepsilon 0 --ADMMrho 1000 --ADMMLagrangianrho 1000 --broadcastDelayMs -1 --dblpSplitYear 2007 --wikipediaTargetWordToken 4690 --inputTokenHashKernelDimension 100 --localTimeout 10000000 --pointCloudPointsPerPartition 500000 --pointCloudPartitionSkew 0.05 --pointCloudLabelNoise 0.05 --pointCloudDimension 3   '
p1372
sg23
I1000
sg24
F0.0
sg25
I100
sg26
g27
sg28
S'RESULT: {"trainingLoss": 1.0145180009482905E7, "stats": {"dualAvgNorm": 0.0, "stats": {"avgDualUpdates": [3.0, 3.0, 3.0], "primalAvg": [0.25344846419121636, 0.252812279067463, -3.7964519382063937], "dualAvg": [0.0, 0.0, 0.0], "avgResidual": [0.0, 0.001602646774502449, 0.008725086738092133], "avgMsgsSent": [0.0, 0.0, 0.0], "avgMsgsRcvd": [0.0, 0.0, 0.0], "avgLocalIters": [0.0, 0.0, 0.0], "avgSGDIters": [1.0, 414455.5078125, 471100.0]}, "dualUpdates": [3.0, 3.0, 3.0], "primalAvgNorm": 3.813292211666876, "avgSGDIters": [1.0, 414455.5078125, 471100.0], "iterations": 3, "runtime": 20189, "consensusNorm": 3.81299432148551}, "params": {"format": "cloud", "algParams": {"usePorkChop": false, "lagrangianRho": 1000.0, "rho0": 1000.0, "maxWorkerIterations": 1000000, "useLBFGS": false, "maxIterations": 1000, "eta0": 1.0, "runtimeMS": 20000, "adaptiveRho": false, "broadcastDelayMS": -1, "regParam": 10.0, "tol": 0.0, "displayIncrementalStats": false, "localTimeout": 10000000, "useLineSearch": false, "workerTol": 0.0, "miniBatchSize": 10}, "wikipediaTargetWordToken": 4690, "dblpSplitYear": 2007, "regType": "L2", "algorithm": "ADMM", "inputTokenHashKernelDimension": 100, "useLR": false, "pointCloudPoints": 500000, "pointCloudDim": 3, "pointCloudSize": 1.0, "pointCloudSkew": 0.05, "input": "null", "numPartitions": 128, "pointCloudNoise": 0.05}, "nDim": 3, "algorithm": "ADMM", "pr": 0.9361894988558699, "totalLoss": 1.0145252704111384E7, "nExamples": 64000000, "runtimeMS": 20189, "regPenalty": 72.69462847840371, "trainingError": 0.05018709375, "maxW": 0.25342866507675726, "minW": -3.796155363568615, "iterations": 3, "roc": 0.9499822049667076}\n'
p1373
sg30
I1000
sg31
F0.050000000000000003
ssVstats
p1374
(dp1375
Vstats
p1376
(dp1377
VavgMsgsRcvd
p1378
(lp1379
F0.0
aF0.0
aF0.0
asVavgMsgsSent
p1380
(lp1381
F0.0
aF0.0
aF0.0
asVavgDualUpdates
p1382
(lp1383
F3.0
aF3.0
aF3.0
asVavgLocalIters
p1384
(lp1385
F0.0
aF0.0
aF0.0
asVavgResidual
p1386
(lp1387
F0.0
aF0.001602646774502449
aF0.0087250867380921325
asVprimalAvg
p1388
(lp1389
F0.25344846419121636
aF0.25281227906746301
aF-3.7964519382063937
asVdualAvg
p1390
(lp1391
F0.0
aF0.0
aF0.0
asVavgSGDIters
p1392
(lp1393
F1.0
aF414455.5078125
aF471100.0
assVconsensusNorm
p1394
F3.81299432148551
sVdualUpdates
p1395
(lp1396
F3.0
aF3.0
aF3.0
asVdualAvgNorm
p1397
F0.0
sVprimalAvgNorm
p1398
F3.8132922116668762
sViterations
p1399
I3
sVruntime
p1400
I20189
sVavgSGDIters
p1401
(lp1402
F1.0
aF414455.5078125
aF471100.0
assVtotalLoss
p1403
F10145252.704111384
sValgorithm
p1404
VADMM
p1405
sVregPenalty
p1406
F72.694628478403715
sVroc
p1407
F0.9499822049667076
sVmaxW
p1408
F0.25342866507675726
sVnExamples
p1409
I64000000
sVruntimeMS
p1410
I20189
sVparams
p1411
(dp1412
VpointCloudDim
p1413
I3
sVinput
p1414
Vnull
p1415
sValgorithm
p1416
VADMM
p1417
sVformat
p1418
Vcloud
p1419
sVpointCloudSize
p1420
F1.0
sVwikipediaTargetWordToken
p1421
I4690
sVdblpSplitYear
p1422
I2007
sVnumPartitions
p1423
I128
sValgParams
p1424
(dp1425
VregParam
p1426
F10.0
sVmaxIterations
p1427
I1000
sVusePorkChop
p1428
I00
sVtol
p1429
F0.0
sVworkerTol
p1430
F0.0
sVadaptiveRho
p1431
I00
sVuseLBFGS
p1432
I00
sVrho0
p1433
F1000.0
sVdisplayIncrementalStats
p1434
I00
sVminiBatchSize
p1435
I10
sVlocalTimeout
p1436
I10000000
sVmaxWorkerIterations
p1437
I1000000
sVruntimeMS
p1438
I20000
sVbroadcastDelayMS
p1439
I-1
sVeta0
p1440
F1.0
sVlagrangianRho
p1441
F1000.0
sVuseLineSearch
p1442
I00
ssVinputTokenHashKernelDimension
p1443
I100
sVpointCloudPoints
p1444
I500000
sVregType
p1445
VL2
p1446
sVuseLR
p1447
I00
sVpointCloudNoise
p1448
F0.050000000000000003
sVpointCloudSkew
p1449
F0.050000000000000003
ssViterations
p1450
I3
sVtrainingLoss
p1451
F10145180.009482905
sVminW
p1452
F-3.7961553635686149
sVtrainingError
p1453
F0.050187093750000002
sa(dp1454
VnDim
p1455
I3
sVpr
p1456
F0.93618937826254522
sg4
(dp1457
g6
I-1
sg7
I-1
sg8
I3
sg9
g116
sg11
I10
sg12
I128
sg13
I4690
sg14
I2007
sg15
I-1
sg16
g17
sg18
I100000
sg19
S'--pointCloudPointsPerPartition 500000 --pointCloudPartitionSkew 0.05 --pointCloudLabelNoise 0.05 --pointCloudDimension 3 '
p1458
sg21
S'cd /mnt/spark; sbin/stop-all.sh; sleep 5; sbin/start-all.sh; sleep 3;./bin/spark-submit --driver-memory 52g --class org.apache.spark.examples.mllib.research.SynchronousADMMTests examples/target/scala-*/spark-examples-*.jar --algorithm GD --regType L2 --regParam 10 --format cloud --numPartitions 128 --runtimeMS 20000 --ADMMmaxLocalIterations 100000 --ADMMepsilon 0.0 --ADMMLocalepsilon -1 --ADMMrho 1000 --ADMMLagrangianrho 1000 --broadcastDelayMs -1 --dblpSplitYear 2007 --wikipediaTargetWordToken 4690 --inputTokenHashKernelDimension 100 --localTimeout -1 --pointCloudPointsPerPartition 500000 --pointCloudPartitionSkew 0.05 --pointCloudLabelNoise 0.05 --pointCloudDimension 3   '
p1459
sg23
I1000
sg24
F0.0
sg25
I100
sg26
g27
sg28
S'RESULT: {"trainingLoss": 1.766692845866305E8, "stats": {"iterations": 37, "runtime": 20051}, "params": {"format": "cloud", "algParams": {"usePorkChop": false, "lagrangianRho": 1000.0, "rho0": 1000.0, "maxWorkerIterations": 100000, "useLBFGS": false, "maxIterations": 1000, "eta0": 1.0, "runtimeMS": 20000, "adaptiveRho": false, "broadcastDelayMS": -1, "regParam": 1.5625E-7, "tol": 0.0, "displayIncrementalStats": false, "localTimeout": -1, "useLineSearch": false, "workerTol": -1.0, "miniBatchSize": 10}, "wikipediaTargetWordToken": 4690, "dblpSplitYear": 2007, "regType": "L2", "algorithm": "GD", "inputTokenHashKernelDimension": 100, "useLR": false, "pointCloudPoints": 500000, "pointCloudDim": 3, "pointCloudSize": 1.0, "pointCloudSkew": 0.05, "input": "null", "numPartitions": 128, "pointCloudNoise": 0.05}, "nDim": 3, "algorithm": "GD", "pr": 0.9361893782625452, "totalLoss": 1.766692845866308E8, "nExamples": 64000000, "runtimeMS": 20051, "regPenalty": 2.862538437111727E-7, "trainingError": 0.499954984375, "maxW": 0.5951485656683044, "minW": -1.7197123639150445, "iterations": 37, "roc": 0.9499822054617174}\n'
p1460
sg30
I1000
sg31
F0.050000000000000003
ssVstats
p1461
(dp1462
Vruntime
p1463
I20051
sViterations
p1464
I37
ssVtotalLoss
p1465
F176669284.58663079
sValgorithm
p1466
VGD
p1467
sVregPenalty
p1468
F2.862538437111727e-07
sVroc
p1469
F0.94998220546171741
sVmaxW
p1470
F0.59514856566830443
sVnExamples
p1471
I64000000
sVruntimeMS
p1472
I20051
sVparams
p1473
(dp1474
VpointCloudDim
p1475
I3
sVinput
p1476
Vnull
p1477
sValgorithm
p1478
VGD
p1479
sVformat
p1480
Vcloud
p1481
sVpointCloudSize
p1482
F1.0
sVwikipediaTargetWordToken
p1483
I4690
sVdblpSplitYear
p1484
I2007
sVnumPartitions
p1485
I128
sValgParams
p1486
(dp1487
VregParam
p1488
F1.5625000000000001e-07
sVmaxIterations
p1489
I1000
sVusePorkChop
p1490
I00
sVtol
p1491
F0.0
sVworkerTol
p1492
F-1.0
sVadaptiveRho
p1493
I00
sVuseLBFGS
p1494
I00
sVrho0
p1495
F1000.0
sVdisplayIncrementalStats
p1496
I00
sVminiBatchSize
p1497
I10
sVlocalTimeout
p1498
I-1
sVmaxWorkerIterations
p1499
I100000
sVruntimeMS
p1500
I20000
sVbroadcastDelayMS
p1501
I-1
sVeta0
p1502
F1.0
sVlagrangianRho
p1503
F1000.0
sVuseLineSearch
p1504
I00
ssVinputTokenHashKernelDimension
p1505
I100
sVpointCloudPoints
p1506
I500000
sVregType
p1507
VL2
p1508
sVuseLR
p1509
I00
sVpointCloudNoise
p1510
F0.050000000000000003
sVpointCloudSkew
p1511
F0.050000000000000003
ssViterations
p1512
I37
sVtrainingLoss
p1513
F176669284.58663049
sVminW
p1514
F-1.7197123639150445
sVtrainingError
p1515
F0.49995498437500002
sa(dp1516
VnDim
p1517
I3
sVpr
p1518
F0.9361892823082516
sg4
(dp1519
g6
I0
sg7
I-1
sg8
I3
sg9
g10
sg11
I10
sg12
I128
sg13
I4690
sg14
I2007
sg15
I10000000
sg16
g17
sg18
I1000000
sg19
S'--pointCloudPointsPerPartition 500000 --pointCloudPartitionSkew 0.05 --pointCloudLabelNoise 0.05 --pointCloudDimension 3 '
p1520
sg21
S'cd /mnt/spark; sbin/stop-all.sh; sleep 5; sbin/start-all.sh; sleep 3;./bin/spark-submit --driver-memory 52g --class org.apache.spark.examples.mllib.research.SynchronousADMMTests examples/target/scala-*/spark-examples-*.jar --algorithm ADMM --regType L2 --regParam 10 --format cloud --numPartitions 128 --runtimeMS 40000 --ADMMmaxLocalIterations 1000000 --ADMMepsilon 0.0 --ADMMLocalepsilon 0 --ADMMrho 1000 --ADMMLagrangianrho 1000 --broadcastDelayMs -1 --dblpSplitYear 2007 --wikipediaTargetWordToken 4690 --inputTokenHashKernelDimension 100 --localTimeout 10000000 --pointCloudPointsPerPartition 500000 --pointCloudPartitionSkew 0.05 --pointCloudLabelNoise 0.05 --pointCloudDimension 3   '
p1521
sg23
I1000
sg24
F0.0
sg25
I100
sg26
g27
sg28
S'RESULT: {"trainingLoss": 1.005012248060943E7, "stats": {"dualAvgNorm": 0.0, "stats": {"avgDualUpdates": [6.0, 6.0, 6.0], "primalAvg": [0.2559990922069762, 0.2576432143452532, -3.8596816713746365], "dualAvg": [0.0, 0.0, 0.0], "avgResidual": [0.0, 0.0035765064316131195, 0.014252862783597157], "avgMsgsSent": [0.0, 0.0, 0.0], "avgMsgsRcvd": [0.0, 0.0, 0.0], "avgLocalIters": [0.0, 0.0, 0.0], "avgSGDIters": [1.0, 77897.6796875, 88000.0]}, "dualUpdates": [6.0, 6.0, 6.0], "primalAvgNorm": 3.8767329241842616, "avgSGDIters": [1.0, 77897.6796875, 88000.0], "iterations": 6, "runtime": 40211, "consensusNorm": 3.876430078084412}, "params": {"format": "cloud", "algParams": {"usePorkChop": false, "lagrangianRho": 1000.0, "rho0": 1000.0, "maxWorkerIterations": 1000000, "useLBFGS": false, "maxIterations": 1000, "eta0": 1.0, "runtimeMS": 40000, "adaptiveRho": false, "broadcastDelayMS": -1, "regParam": 10.0, "tol": 0.0, "displayIncrementalStats": false, "localTimeout": 10000000, "useLineSearch": false, "workerTol": 0.0, "miniBatchSize": 10}, "wikipediaTargetWordToken": 4690, "dblpSplitYear": 2007, "regType": "L2", "algorithm": "ADMM", "inputTokenHashKernelDimension": 100, "useLR": false, "pointCloudPoints": 500000, "pointCloudDim": 3, "pointCloudSize": 1.0, "pointCloudSkew": 0.05, "input": "null", "numPartitions": 128, "pointCloudNoise": 0.05}, "nDim": 3, "algorithm": "ADMM", "pr": 0.9361892823082516, "totalLoss": 1.0050197614160182E7, "nExamples": 64000000, "runtimeMS": 40211, "regPenalty": 75.1335507513876, "trainingError": 0.050187453125, "maxW": 0.25762308754153906, "minW": -3.8593801572998476, "iterations": 6, "roc": 0.9499822061529198}\n'
p1522
sg30
I1000
sg31
F0.050000000000000003
ssVstats
p1523
(dp1524
Vstats
p1525
(dp1526
VavgMsgsRcvd
p1527
(lp1528
F0.0
aF0.0
aF0.0
asVavgMsgsSent
p1529
(lp1530
F0.0
aF0.0
aF0.0
asVavgDualUpdates
p1531
(lp1532
F6.0
aF6.0
aF6.0
asVavgLocalIters
p1533
(lp1534
F0.0
aF0.0
aF0.0
asVavgResidual
p1535
(lp1536
F0.0
aF0.0035765064316131195
aF0.014252862783597157
asVprimalAvg
p1537
(lp1538
F0.2559990922069762
aF0.25764321434525322
aF-3.8596816713746365
asVdualAvg
p1539
(lp1540
F0.0
aF0.0
aF0.0
asVavgSGDIters
p1541
(lp1542
F1.0
aF77897.6796875
aF88000.0
assVconsensusNorm
p1543
F3.8764300780844119
sVdualUpdates
p1544
(lp1545
F6.0
aF6.0
aF6.0
asVdualAvgNorm
p1546
F0.0
sVprimalAvgNorm
p1547
F3.8767329241842616
sViterations
p1548
I6
sVruntime
p1549
I40211
sVavgSGDIters
p1550
(lp1551
F1.0
aF77897.6796875
aF88000.0
assVtotalLoss
p1552
F10050197.614160182
sValgorithm
p1553
VADMM
p1554
sVregPenalty
p1555
F75.133550751387602
sVroc
p1556
F0.94998220615291984
sVmaxW
p1557
F0.25762308754153906
sVnExamples
p1558
I64000000
sVruntimeMS
p1559
I40211
sVparams
p1560
(dp1561
VpointCloudDim
p1562
I3
sVinput
p1563
Vnull
p1564
sValgorithm
p1565
VADMM
p1566
sVformat
p1567
Vcloud
p1568
sVpointCloudSize
p1569
F1.0
sVwikipediaTargetWordToken
p1570
I4690
sVdblpSplitYear
p1571
I2007
sVnumPartitions
p1572
I128
sValgParams
p1573
(dp1574
VregParam
p1575
F10.0
sVmaxIterations
p1576
I1000
sVusePorkChop
p1577
I00
sVtol
p1578
F0.0
sVworkerTol
p1579
F0.0
sVadaptiveRho
p1580
I00
sVuseLBFGS
p1581
I00
sVrho0
p1582
F1000.0
sVdisplayIncrementalStats
p1583
I00
sVminiBatchSize
p1584
I10
sVlocalTimeout
p1585
I10000000
sVmaxWorkerIterations
p1586
I1000000
sVruntimeMS
p1587
I40000
sVbroadcastDelayMS
p1588
I-1
sVeta0
p1589
F1.0
sVlagrangianRho
p1590
F1000.0
sVuseLineSearch
p1591
I00
ssVinputTokenHashKernelDimension
p1592
I100
sVpointCloudPoints
p1593
I500000
sVregType
p1594
VL2
p1595
sVuseLR
p1596
I00
sVpointCloudNoise
p1597
F0.050000000000000003
sVpointCloudSkew
p1598
F0.050000000000000003
ssViterations
p1599
I6
sVtrainingLoss
p1600
F10050122.48060943
sVminW
p1601
F-3.8593801572998476
sVtrainingError
p1602
F0.050187453125000003
sa(dp1603
VnDim
p1604
I3
sVpr
p1605
F0.31239527985167048
sg4
(dp1606
g6
I-1
sg7
I-1
sg8
I3
sg9
g116
sg11
I10
sg12
I128
sg13
I4690
sg14
I2007
sg15
I-1
sg16
g17
sg18
I100000
sg19
S'--pointCloudPointsPerPartition 500000 --pointCloudPartitionSkew 0.05 --pointCloudLabelNoise 0.05 --pointCloudDimension 3 '
p1607
sg21
S'cd /mnt/spark; sbin/stop-all.sh; sleep 5; sbin/start-all.sh; sleep 3;./bin/spark-submit --driver-memory 52g --class org.apache.spark.examples.mllib.research.SynchronousADMMTests examples/target/scala-*/spark-examples-*.jar --algorithm GD --regType L2 --regParam 10 --format cloud --numPartitions 128 --runtimeMS 40000 --ADMMmaxLocalIterations 100000 --ADMMepsilon 0.0 --ADMMLocalepsilon -1 --ADMMrho 1000 --ADMMLagrangianrho 1000 --broadcastDelayMs -1 --dblpSplitYear 2007 --wikipediaTargetWordToken 4690 --inputTokenHashKernelDimension 100 --localTimeout -1 --pointCloudPointsPerPartition 500000 --pointCloudPartitionSkew 0.05 --pointCloudLabelNoise 0.05 --pointCloudDimension 3   '
p1608
sg23
I1000
sg24
F0.0
sg25
I100
sg26
g27
sg28
S'RESULT: {"trainingLoss": 1.3483712210411763E8, "stats": {"iterations": 89, "runtime": 40205}, "params": {"format": "cloud", "algParams": {"usePorkChop": false, "lagrangianRho": 1000.0, "rho0": 1000.0, "maxWorkerIterations": 100000, "useLBFGS": false, "maxIterations": 1000, "eta0": 1.0, "runtimeMS": 40000, "adaptiveRho": false, "broadcastDelayMS": -1, "regParam": 1.5625E-7, "tol": 0.0, "displayIncrementalStats": false, "localTimeout": -1, "useLineSearch": false, "workerTol": -1.0, "miniBatchSize": 10}, "wikipediaTargetWordToken": 4690, "dblpSplitYear": 2007, "regType": "L2", "algorithm": "GD", "inputTokenHashKernelDimension": 100, "useLR": false, "pointCloudPoints": 500000, "pointCloudDim": 3, "pointCloudSize": 1.0, "pointCloudSkew": 0.05, "input": "null", "numPartitions": 128, "pointCloudNoise": 0.05}, "nDim": 3, "algorithm": "GD", "pr": 0.3123952798516705, "totalLoss": 1.3483712210411826E8, "nExamples": 64000000, "runtimeMS": 40205, "regPenalty": 6.217553112978832E-7, "trainingError": 0.500044875, "maxW": -0.019484554207375326, "minW": -2.820932020750446, "iterations": 89, "roc": 0.0500177955077443}\n'
p1609
sg30
I1000
sg31
F0.050000000000000003
ssVstats
p1610
(dp1611
Vruntime
p1612
I40205
sViterations
p1613
I89
ssVtotalLoss
p1614
F134837122.10411826
sValgorithm
p1615
VGD
p1616
sVregPenalty
p1617
F6.2175531129788318e-07
sVroc
p1618
F0.050017795507744302
sVmaxW
p1619
F-0.019484554207375326
sVnExamples
p1620
I64000000
sVruntimeMS
p1621
I40205
sVparams
p1622
(dp1623
VpointCloudDim
p1624
I3
sVinput
p1625
Vnull
p1626
sValgorithm
p1627
VGD
p1628
sVformat
p1629
Vcloud
p1630
sVpointCloudSize
p1631
F1.0
sVwikipediaTargetWordToken
p1632
I4690
sVdblpSplitYear
p1633
I2007
sVnumPartitions
p1634
I128
sValgParams
p1635
(dp1636
VregParam
p1637
F1.5625000000000001e-07
sVmaxIterations
p1638
I1000
sVusePorkChop
p1639
I00
sVtol
p1640
F0.0
sVworkerTol
p1641
F-1.0
sVadaptiveRho
p1642
I00
sVuseLBFGS
p1643
I00
sVrho0
p1644
F1000.0
sVdisplayIncrementalStats
p1645
I00
sVminiBatchSize
p1646
I10
sVlocalTimeout
p1647
I-1
sVmaxWorkerIterations
p1648
I100000
sVruntimeMS
p1649
I40000
sVbroadcastDelayMS
p1650
I-1
sVeta0
p1651
F1.0
sVlagrangianRho
p1652
F1000.0
sVuseLineSearch
p1653
I00
ssVinputTokenHashKernelDimension
p1654
I100
sVpointCloudPoints
p1655
I500000
sVregType
p1656
VL2
p1657
sVuseLR
p1658
I00
sVpointCloudNoise
p1659
F0.050000000000000003
sVpointCloudSkew
p1660
F0.050000000000000003
ssViterations
p1661
I89
sVtrainingLoss
p1662
F134837122.10411763
sVminW
p1663
F-2.8209320207504458
sVtrainingError
p1664
F0.50004487500000006
sa(dp1665
VnDim
p1666
I3
sVpr
p1667
F0.93618948471365271
sg4
(dp1668
g6
I0
sg7
I-1
sg8
I3
sg9
g10
sg11
I10
sg12
I128
sg13
I4690
sg14
I2007
sg15
I10000000
sg16
g17
sg18
I1000000
sg19
S'--pointCloudPointsPerPartition 500000 --pointCloudPartitionSkew 0.05 --pointCloudLabelNoise 0.05 --pointCloudDimension 3 '
p1669
sg21
S'cd /mnt/spark; sbin/stop-all.sh; sleep 5; sbin/start-all.sh; sleep 3;./bin/spark-submit --driver-memory 52g --class org.apache.spark.examples.mllib.research.SynchronousADMMTests examples/target/scala-*/spark-examples-*.jar --algorithm ADMM --regType L2 --regParam 10 --format cloud --numPartitions 128 --runtimeMS 80000 --ADMMmaxLocalIterations 1000000 --ADMMepsilon 0.0 --ADMMLocalepsilon 0 --ADMMrho 1000 --ADMMLagrangianrho 1000 --broadcastDelayMs -1 --dblpSplitYear 2007 --wikipediaTargetWordToken 4690 --inputTokenHashKernelDimension 100 --localTimeout 10000000 --pointCloudPointsPerPartition 500000 --pointCloudPartitionSkew 0.05 --pointCloudLabelNoise 0.05 --pointCloudDimension 3   '
p1670
sg23
I1000
sg24
F0.0
sg25
I100
sg26
g27
sg28
S'RESULT: {"trainingLoss": 1.0120683877464313E7, "stats": {"dualAvgNorm": 0.0, "stats": {"avgDualUpdates": [11.0, 11.0, 11.0], "primalAvg": [0.25427667105482993, 0.25379970052234574, -3.8075375435727765], "dualAvg": [0.0, 0.0, 0.0], "avgResidual": [0.0, 0.0013425558358993138, 0.006225528150841092], "avgMsgsSent": [0.0, 0.0, 0.0], "avgMsgsRcvd": [0.0, 0.0, 0.0], "avgLocalIters": [0.0, 0.0, 0.0], "avgSGDIters": [1.0, 366382.0859375, 424400.0]}, "dualUpdates": [11.0, 11.0, 11.0], "primalAvgNorm": 3.8244493798642663, "avgSGDIters": [1.0, 366382.0859375, 424400.0], "iterations": 11, "runtime": 80138, "consensusNorm": 3.8241506180972276}, "params": {"format": "cloud", "algParams": {"usePorkChop": false, "lagrangianRho": 1000.0, "rho0": 1000.0, "maxWorkerIterations": 1000000, "useLBFGS": false, "maxIterations": 1000, "eta0": 1.0, "runtimeMS": 80000, "adaptiveRho": false, "broadcastDelayMS": -1, "regParam": 10.0, "tol": 0.0, "displayIncrementalStats": false, "localTimeout": 10000000, "useLineSearch": false, "workerTol": 0.0, "miniBatchSize": 10}, "wikipediaTargetWordToken": 4690, "dblpSplitYear": 2007, "regType": "L2", "algorithm": "ADMM", "inputTokenHashKernelDimension": 100, "useLR": false, "pointCloudPoints": 500000, "pointCloudDim": 3, "pointCloudSize": 1.0, "pointCloudSkew": 0.05, "input": "null", "numPartitions": 128, "pointCloudNoise": 0.05}, "nDim": 3, "algorithm": "ADMM", "pr": 0.9361894847136527, "totalLoss": 1.0120756998104062E7, "nExamples": 64000000, "runtimeMS": 80138, "regPenalty": 73.12063974946705, "trainingError": 0.050187109375, "maxW": 0.25425680724176414, "minW": -3.8072401029397342, "iterations": 11, "roc": 0.9499822050033367}\n'
p1671
sg30
I1000
sg31
F0.050000000000000003
ssVstats
p1672
(dp1673
Vstats
p1674
(dp1675
VavgMsgsRcvd
p1676
(lp1677
F0.0
aF0.0
aF0.0
asVavgMsgsSent
p1678
(lp1679
F0.0
aF0.0
aF0.0
asVavgDualUpdates
p1680
(lp1681
F11.0
aF11.0
aF11.0
asVavgLocalIters
p1682
(lp1683
F0.0
aF0.0
aF0.0
asVavgResidual
p1684
(lp1685
F0.0
aF0.0013425558358993138
aF0.0062255281508410924
asVprimalAvg
p1686
(lp1687
F0.25427667105482993
aF0.25379970052234574
aF-3.8075375435727765
asVdualAvg
p1688
(lp1689
F0.0
aF0.0
aF0.0
asVavgSGDIters
p1690
(lp1691
F1.0
aF366382.0859375
aF424400.0
assVconsensusNorm
p1692
F3.8241506180972276
sVdualUpdates
p1693
(lp1694
F11.0
aF11.0
aF11.0
asVdualAvgNorm
p1695
F0.0
sVprimalAvgNorm
p1696
F3.8244493798642663
sViterations
p1697
I11
sVruntime
p1698
I80138
sVavgSGDIters
p1699
(lp1700
F1.0
aF366382.0859375
aF424400.0
assVtotalLoss
p1701
F10120756.998104062
sValgorithm
p1702
VADMM
p1703
sVregPenalty
p1704
F73.120639749467045
sVroc
p1705
F0.94998220500333674
sVmaxW
p1706
F0.25425680724176414
sVnExamples
p1707
I64000000
sVruntimeMS
p1708
I80138
sVparams
p1709
(dp1710
VpointCloudDim
p1711
I3
sVinput
p1712
Vnull
p1713
sValgorithm
p1714
VADMM
p1715
sVformat
p1716
Vcloud
p1717
sVpointCloudSize
p1718
F1.0
sVwikipediaTargetWordToken
p1719
I4690
sVdblpSplitYear
p1720
I2007
sVnumPartitions
p1721
I128
sValgParams
p1722
(dp1723
VregParam
p1724
F10.0
sVmaxIterations
p1725
I1000
sVusePorkChop
p1726
I00
sVtol
p1727
F0.0
sVworkerTol
p1728
F0.0
sVadaptiveRho
p1729
I00
sVuseLBFGS
p1730
I00
sVrho0
p1731
F1000.0
sVdisplayIncrementalStats
p1732
I00
sVminiBatchSize
p1733
I10
sVlocalTimeout
p1734
I10000000
sVmaxWorkerIterations
p1735
I1000000
sVruntimeMS
p1736
I80000
sVbroadcastDelayMS
p1737
I-1
sVeta0
p1738
F1.0
sVlagrangianRho
p1739
F1000.0
sVuseLineSearch
p1740
I00
ssVinputTokenHashKernelDimension
p1741
I100
sVpointCloudPoints
p1742
I500000
sVregType
p1743
VL2
p1744
sVuseLR
p1745
I00
sVpointCloudNoise
p1746
F0.050000000000000003
sVpointCloudSkew
p1747
F0.050000000000000003
ssViterations
p1748
I11
sVtrainingLoss
p1749
F10120683.877464313
sVminW
p1750
F-3.8072401029397342
sVtrainingError
p1751
F0.050187109374999997
sa(dp1752
VnDim
p1753
I3
sVpr
p1754
F0.93618934158144362
sg4
(dp1755
g6
I-1
sg7
I-1
sg8
I3
sg9
g116
sg11
I10
sg12
I128
sg13
I4690
sg14
I2007
sg15
I-1
sg16
g17
sg18
I100000
sg19
S'--pointCloudPointsPerPartition 500000 --pointCloudPartitionSkew 0.05 --pointCloudLabelNoise 0.05 --pointCloudDimension 3 '
p1756
sg21
S'cd /mnt/spark; sbin/stop-all.sh; sleep 5; sbin/start-all.sh; sleep 3;./bin/spark-submit --driver-memory 52g --class org.apache.spark.examples.mllib.research.SynchronousADMMTests examples/target/scala-*/spark-examples-*.jar --algorithm GD --regType L2 --regParam 10 --format cloud --numPartitions 128 --runtimeMS 80000 --ADMMmaxLocalIterations 100000 --ADMMepsilon 0.0 --ADMMLocalepsilon -1 --ADMMrho 1000 --ADMMLagrangianrho 1000 --broadcastDelayMs -1 --dblpSplitYear 2007 --wikipediaTargetWordToken 4690 --inputTokenHashKernelDimension 100 --localTimeout -1 --pointCloudPointsPerPartition 500000 --pointCloudPartitionSkew 0.05 --pointCloudLabelNoise 0.05 --pointCloudDimension 3   '
p1757
sg23
I1000
sg24
F0.0
sg25
I100
sg26
g27
sg28
S'RESULT: {"trainingLoss": 2.027824118878324E7, "stats": {"iterations": 199, "runtime": 80248}, "params": {"format": "cloud", "algParams": {"usePorkChop": false, "lagrangianRho": 1000.0, "rho0": 1000.0, "maxWorkerIterations": 100000, "useLBFGS": false, "maxIterations": 1000, "eta0": 1.0, "runtimeMS": 80000, "adaptiveRho": false, "broadcastDelayMS": -1, "regParam": 1.5625E-7, "tol": 0.0, "displayIncrementalStats": false, "localTimeout": -1, "useLineSearch": false, "workerTol": -1.0, "miniBatchSize": 10}, "wikipediaTargetWordToken": 4690, "dblpSplitYear": 2007, "regType": "L2", "algorithm": "GD", "inputTokenHashKernelDimension": 100, "useLR": false, "pointCloudPoints": 500000, "pointCloudDim": 3, "pointCloudSize": 1.0, "pointCloudSkew": 0.05, "input": "null", "numPartitions": 128, "pointCloudNoise": 0.05}, "nDim": 3, "algorithm": "GD", "pr": 0.9361893415814436, "totalLoss": 2.027824118878452E7, "nExamples": 64000000, "runtimeMS": 80248, "regPenalty": 1.2807027747923961E-6, "trainingError": 0.08295540625, "maxW": 0.3342885880496628, "minW": -4.021240531569235, "iterations": 199, "roc": 0.9499822059052795}\n'
p1758
sg30
I1000
sg31
F0.050000000000000003
ssVstats
p1759
(dp1760
Vruntime
p1761
I80248
sViterations
p1762
I199
ssVtotalLoss
p1763
F20278241.188784521
sValgorithm
p1764
VGD
p1765
sVregPenalty
p1766
F1.2807027747923961e-06
sVroc
p1767
F0.94998220590527949
sVmaxW
p1768
F0.33428858804966283
sVnExamples
p1769
I64000000
sVruntimeMS
p1770
I80248
sVparams
p1771
(dp1772
VpointCloudDim
p1773
I3
sVinput
p1774
Vnull
p1775
sValgorithm
p1776
VGD
p1777
sVformat
p1778
Vcloud
p1779
sVpointCloudSize
p1780
F1.0
sVwikipediaTargetWordToken
p1781
I4690
sVdblpSplitYear
p1782
I2007
sVnumPartitions
p1783
I128
sValgParams
p1784
(dp1785
VregParam
p1786
F1.5625000000000001e-07
sVmaxIterations
p1787
I1000
sVusePorkChop
p1788
I00
sVtol
p1789
F0.0
sVworkerTol
p1790
F-1.0
sVadaptiveRho
p1791
I00
sVuseLBFGS
p1792
I00
sVrho0
p1793
F1000.0
sVdisplayIncrementalStats
p1794
I00
sVminiBatchSize
p1795
I10
sVlocalTimeout
p1796
I-1
sVmaxWorkerIterations
p1797
I100000
sVruntimeMS
p1798
I80000
sVbroadcastDelayMS
p1799
I-1
sVeta0
p1800
F1.0
sVlagrangianRho
p1801
F1000.0
sVuseLineSearch
p1802
I00
ssVinputTokenHashKernelDimension
p1803
I100
sVpointCloudPoints
p1804
I500000
sVregType
p1805
VL2
p1806
sVuseLR
p1807
I00
sVpointCloudNoise
p1808
F0.050000000000000003
sVpointCloudSkew
p1809
F0.050000000000000003
ssViterations
p1810
I199
sVtrainingLoss
p1811
F20278241.18878324
sVminW
p1812
F-4.0212405315692354
sVtrainingError
p1813
F0.082955406250000002
sa.