(lp0
(dp1
VnDim
p2
I100
sVpr
p3
F7.9072885305931952e-06
sS'pyConfig'
p4
(dp5
S'ADMMlocalEpsilon'
p6
I0
sS'broadcastDelay'
p7
I-1
sS'pointCloudDim'
p8
I-1
sS'algorithm'
p9
S'AVG'
p10
sS'regParam'
p11
I10
sS'numPartitions'
p12
I128
sS'wikipediaTargetWordToken'
p13
I4690
sS'dblpSplitYear'
p14
I2007
sS'localTimeout'
p15
I10000000
sS'dataset'
p16
S'wikipedia'
p17
sS'ADMMmaxLocalIterations'
p18
I1000000
sS'datasetConfigStr'
p19
S' --input /user/root/wiki/en-wiki-8-7-2014-tokenized.txt'
p20
sS'command'
p21
S'cd /mnt/spark; sbin/stop-all.sh; sleep 5; sbin/start-all.sh; sleep 3;./bin/spark-submit --driver-memory 52g --class org.apache.spark.examples.mllib.research.SynchronousADMMTests examples/target/scala-*/spark-examples-*.jar --algorithm ADMM --regType L2 --regParam 10 --format wikipedia --numPartitions 128 --runtimeMS 1000 --ADMMmaxLocalIterations 1000000 --ADMMepsilon 0.0 --ADMMLocalepsilon 0 --ADMMrho 1000 --ADMMLagrangianrho 1000 --broadcastDelayMs -1 --dblpSplitYear 2007 --wikipediaTargetWordToken 4690 --inputTokenHashKernelDimension 100 --localTimeout 10000000  --input /user/root/wiki/en-wiki-8-7-2014-tokenized.txt  '
p22
sS'ADMMrho'
p23
I1000
sS'ADMMepsilon'
p24
F0.0
sS'inputTokenHashKernelDimension'
p25
I100
sS'regType'
p26
S'L2'
p27
sS'line'
p28
S'RESULT: {"trainingLoss": 803633.0463211609, "stats": {"dualAvgNorm": 0.0, "stats": {"avgDualUpdates": [1.0, 1.0, 1.0], "primalAvg": [0.15181347581391882, -0.1226792957013307, -0.03165114662231278, -0.0322179357286541, -0.1444199722108127, 0.08448137975992703, 0.0706005439050444, -0.07668283575326923, 0.037046673611646916, 0.27450943559672225, -0.14548648980482715, -0.12049591315643954, 0.15793626296562946, -0.33411589143323805, -0.5415871773641746, 0.09600792727388817, 0.3083569590473135, -0.695558285922771, 0.06664798135126603, 0.14314367477527729, 0.05139474856906271, -0.11356853303001024, 0.08618611335877005, 0.19021403731607917, 0.13035979052282134, -0.037300329982123945, -0.09553177584664434, -0.2495089489170255, 0.021580399985547484, 0.024500225878814445, -0.3077325761416351, 0.6616307159525592, -0.07042986375715503, -0.03561745896450478, -0.024978625992435815, 0.07974941687070981, -0.18367169923710766, -0.48389722148032793, -0.21110371953169096, -0.12293223255234308, 0.15227975492513598, 0.06663601736035289, -0.23224884791174974, 0.3237769602404383, 0.2810279470301465, -0.2698307060062473, -0.39055317606751105, -0.045809881030922935, -0.041219160071601646, 0.04161117103461849, -0.05984956252928738, -0.20195425809228487, 0.060932172580589014, -0.7846373977336483, 0.039046991590230624, 0.10730215245151643, -0.015556841527266291, -0.1844226103036784, 0.08008099276132999, 0.009544009406561901, 0.06028558876945802, 0.1329775445514618, 0.19738953714119833, 0.011995051609586145, -0.2140478648110409, -0.2162021301201322, -0.5071765447271339, 0.0418094022682322, -0.22149263235679645, -0.021957173893477656, -0.22081873223581325, 0.1640307849419138, -0.10446087267537464, -0.570784993678455, -0.15864974057443282, -0.03554085052930134, 0.09395839456998398, -0.2756972996338155, -0.06973292409246439, -0.0871099351922306, 0.012493154863141512, -0.2582185176156237, -0.38626232855453263, -0.09395483352438651, -0.15292092756308603, 0.1785149834049721, 0.015577812185048747, 0.2482227490193666, 0.05218043007411608, 0.13584416392840717, -0.00898049524888759, -0.054491097454351725, 0.13029350029180098, 0.06620720652135889, -0.03377694833878353, 0.16995975824312476, 0.19015705799957222, 0.2862709242165295, -0.30157157725584344, 0.12398547215868995], "dualAvg": [0.0, 0.0, 0.0, 0.0, 0.0, 0.0, 0.0, 0.0, 0.0, 0.0, 0.0, 0.0, 0.0, 0.0, 0.0, 0.0, 0.0, 0.0, 0.0, 0.0, 0.0, 0.0, 0.0, 0.0, 0.0, 0.0, 0.0, 0.0, 0.0, 0.0, 0.0, 0.0, 0.0, 0.0, 0.0, 0.0, 0.0, 0.0, 0.0, 0.0, 0.0, 0.0, 0.0, 0.0, 0.0, 0.0, 0.0, 0.0, 0.0, 0.0, 0.0, 0.0, 0.0, 0.0, 0.0, 0.0, 0.0, 0.0, 0.0, 0.0, 0.0, 0.0, 0.0, 0.0, 0.0, 0.0, 0.0, 0.0, 0.0, 0.0, 0.0, 0.0, 0.0, 0.0, 0.0, 0.0, 0.0, 0.0, 0.0, 0.0, 0.0, 0.0, 0.0, 0.0, 0.0, 0.0, 0.0, 0.0, 0.0, 0.0, 0.0, 0.0, 0.0, 0.0, 0.0, 0.0, 0.0, 0.0, 0.0, 0.0], "avgResidual": [1.4010343904334425E-4, 0.002914987054507622, 0.03383955919248531], "avgMsgsSent": [0.0, 0.0, 0.0], "avgMsgsRcvd": [0.0, 0.0, 0.0], "avgLocalIters": [0.0, 0.0, 0.0], "avgSGDIters": [38500.0, 44023.4375, 50000.0]}, "dualUpdates": [1.0, 1.0, 1.0], "primalAvgNorm": 2.2607391429797703, "avgSGDIters": [38500.0, 44023.4375, 50000.0], "iterations": 1, "runtime": 1219, "consensusNorm": 2.2605625365316047}, "params": {"format": "wikipedia", "algParams": {"usePorkChop": false, "lagrangianRho": 1000.0, "rho0": 1000.0, "maxWorkerIterations": 1000000, "useLBFGS": false, "maxIterations": 1000, "eta0": 1.0, "runtimeMS": 1000, "adaptiveRho": false, "broadcastDelayMS": -1, "regParam": 10.0, "tol": 0.0, "displayIncrementalStats": false, "localTimeout": 10000000, "useLineSearch": false, "workerTol": 0.0, "miniBatchSize": 10}, "wikipediaTargetWordToken": 4690, "dblpSplitYear": 2007, "regType": "L2", "algorithm": "ADMM", "inputTokenHashKernelDimension": 100, "useLR": false, "pointCloudPoints": 10000, "pointCloudDim": 10, "pointCloudSize": 1.0, "pointCloudSkew": 0.0, "input": "/user/root/wiki/en-wiki-8-7-2014-tokenized.txt", "numPartitions": 128, "pointCloudNoise": 0.2}, "nDim": 100, "algorithm": "ADMM", "pr": 7.907288530593195E-6, "totalLoss": 803658.5970360687, "nExamples": 6745869, "runtimeMS": 1219, "regPenalty": 25.550714907851013, "trainingError": 0.03001614766014579, "maxW": 0.6615790300908333, "minW": -0.7845761027256228, "iterations": 1, "roc": 0.2227712138756102}\n'
p29
sS'ADMMlagrangianRho'
p30
I1000
sS'pointCloudSkew'
p31
I-1
ssVstats
p32
(dp33
Vstats
p34
(dp35
VavgMsgsRcvd
p36
(lp37
F0.0
aF0.0
aF0.0
asVavgMsgsSent
p38
(lp39
F0.0
aF0.0
aF0.0
asVavgDualUpdates
p40
(lp41
F1.0
aF1.0
aF1.0
asVavgLocalIters
p42
(lp43
F0.0
aF0.0
aF0.0
asVavgResidual
p44
(lp45
F0.00014010343904334425
aF0.0029149870545076219
aF0.033839559192485311
asVprimalAvg
p46
(lp47
F0.15181347581391882
aF-0.1226792957013307
aF-0.031651146622312783
aF-0.032217935728654098
aF-0.14441997221081271
aF0.084481379759927033
aF0.070600543905044402
aF-0.07668283575326923
aF0.037046673611646916
aF0.27450943559672225
aF-0.14548648980482715
aF-0.12049591315643954
aF0.15793626296562946
aF-0.33411589143323805
aF-0.54158717736417461
aF0.096007927273888169
aF0.30835695904731347
aF-0.69555828592277102
aF0.066647981351266025
aF0.14314367477527729
aF0.051394748569062711
aF-0.11356853303001024
aF0.08618611335877005
aF0.19021403731607917
aF0.13035979052282134
aF-0.037300329982123945
aF-0.095531775846644337
aF-0.24950894891702549
aF0.021580399985547484
aF0.024500225878814445
aF-0.30773257614163507
aF0.66163071595255918
aF-0.070429863757155028
aF-0.035617458964504779
aF-0.024978625992435815
aF0.079749416870709813
aF-0.18367169923710766
aF-0.48389722148032793
aF-0.21110371953169096
aF-0.12293223255234308
aF0.15227975492513598
aF0.066636017360352892
aF-0.23224884791174974
aF0.32377696024043828
aF0.2810279470301465
aF-0.26983070600624731
aF-0.39055317606751105
aF-0.045809881030922935
aF-0.041219160071601646
aF0.041611171034618491
aF-0.05984956252928738
aF-0.20195425809228487
aF0.060932172580589014
aF-0.78463739773364827
aF0.039046991590230624
aF0.10730215245151643
aF-0.015556841527266291
aF-0.1844226103036784
aF0.080080992761329989
aF0.0095440094065619013
aF0.060285588769458019
aF0.1329775445514618
aF0.19738953714119833
aF0.011995051609586145
aF-0.21404786481104091
aF-0.2162021301201322
aF-0.50717654472713392
aF0.041809402268232203
aF-0.22149263235679645
aF-0.021957173893477656
aF-0.22081873223581325
aF0.16403078494191381
aF-0.10446087267537464
aF-0.57078499367845503
aF-0.15864974057443282
aF-0.035540850529301338
aF0.093958394569983977
aF-0.27569729963381551
aF-0.069732924092464385
aF-0.087109935192230606
aF0.012493154863141512
aF-0.2582185176156237
aF-0.38626232855453263
aF-0.093954833524386508
aF-0.15292092756308603
aF0.1785149834049721
aF0.015577812185048747
aF0.24822274901936661
aF0.052180430074116081
aF0.13584416392840717
aF-0.0089804952488875892
aF-0.054491097454351725
aF0.13029350029180098
aF0.066207206521358891
aF-0.03377694833878353
aF0.16995975824312476
aF0.19015705799957222
aF0.2862709242165295
aF-0.30157157725584344
aF0.12398547215868995
asVdualAvg
p48
(lp49
F0.0
aF0.0
aF0.0
aF0.0
aF0.0
aF0.0
aF0.0
aF0.0
aF0.0
aF0.0
aF0.0
aF0.0
aF0.0
aF0.0
aF0.0
aF0.0
aF0.0
aF0.0
aF0.0
aF0.0
aF0.0
aF0.0
aF0.0
aF0.0
aF0.0
aF0.0
aF0.0
aF0.0
aF0.0
aF0.0
aF0.0
aF0.0
aF0.0
aF0.0
aF0.0
aF0.0
aF0.0
aF0.0
aF0.0
aF0.0
aF0.0
aF0.0
aF0.0
aF0.0
aF0.0
aF0.0
aF0.0
aF0.0
aF0.0
aF0.0
aF0.0
aF0.0
aF0.0
aF0.0
aF0.0
aF0.0
aF0.0
aF0.0
aF0.0
aF0.0
aF0.0
aF0.0
aF0.0
aF0.0
aF0.0
aF0.0
aF0.0
aF0.0
aF0.0
aF0.0
aF0.0
aF0.0
aF0.0
aF0.0
aF0.0
aF0.0
aF0.0
aF0.0
aF0.0
aF0.0
aF0.0
aF0.0
aF0.0
aF0.0
aF0.0
aF0.0
aF0.0
aF0.0
aF0.0
aF0.0
aF0.0
aF0.0
aF0.0
aF0.0
aF0.0
aF0.0
aF0.0
aF0.0
aF0.0
aF0.0
asVavgSGDIters
p50
(lp51
F38500.0
aF44023.4375
aF50000.0
assVconsensusNorm
p52
F2.2605625365316047
sVdualUpdates
p53
(lp54
F1.0
aF1.0
aF1.0
asVdualAvgNorm
p55
F0.0
sVprimalAvgNorm
p56
F2.2607391429797703
sViterations
p57
I1
sVruntime
p58
I1219
sVavgSGDIters
p59
(lp60
F38500.0
aF44023.4375
aF50000.0
assVtotalLoss
p61
F803658.59703606868
sValgorithm
p62
VADMM
p63
sVregPenalty
p64
F25.550714907851013
sVroc
p65
F0.22277121387561019
sVmaxW
p66
F0.6615790300908333
sVnExamples
p67
I6745869
sVruntimeMS
p68
I1219
sVparams
p69
(dp70
VpointCloudDim
p71
I10
sVinput
p72
V/user/root/wiki/en-wiki-8-7-2014-tokenized.txt
p73
sValgorithm
p74
VADMM
p75
sVformat
p76
Vwikipedia
p77
sVpointCloudSize
p78
F1.0
sVwikipediaTargetWordToken
p79
I4690
sVdblpSplitYear
p80
I2007
sVnumPartitions
p81
I128
sValgParams
p82
(dp83
VregParam
p84
F10.0
sVmaxIterations
p85
I1000
sVusePorkChop
p86
I00
sVtol
p87
F0.0
sVworkerTol
p88
F0.0
sVadaptiveRho
p89
I00
sVuseLBFGS
p90
I00
sVrho0
p91
F1000.0
sVdisplayIncrementalStats
p92
I00
sVminiBatchSize
p93
I10
sVlocalTimeout
p94
I10000000
sVmaxWorkerIterations
p95
I1000000
sVruntimeMS
p96
I1000
sVbroadcastDelayMS
p97
I-1
sVeta0
p98
F1.0
sVlagrangianRho
p99
F1000.0
sVuseLineSearch
p100
I00
ssVinputTokenHashKernelDimension
p101
I100
sVpointCloudPoints
p102
I10000
sVregType
p103
VL2
p104
sVuseLR
p105
I00
sVpointCloudNoise
p106
F0.20000000000000001
sVpointCloudSkew
p107
F0.0
ssViterations
p108
I1
sVtrainingLoss
p109
F803633.04632116086
sVminW
p110
F-0.78457610272562284
sVtrainingError
p111
F0.030016147660145789
sa(dp112
VnDim
p113
I100
sVpr
p114
F7.7727854792908591e-06
sg4
(dp115
g6
I0
sg7
I-1
sg8
I-1
sg9
g10
sg11
I10
sg12
I128
sg13
I4690
sg14
I2007
sg15
I10000000
sg16
g17
sg18
I1000000
sg19
g20
sg21
S'cd /mnt/spark; sbin/stop-all.sh; sleep 5; sbin/start-all.sh; sleep 3;./bin/spark-submit --driver-memory 52g --class org.apache.spark.examples.mllib.research.SynchronousADMMTests examples/target/scala-*/spark-examples-*.jar --algorithm ADMM --regType L2 --regParam 10 --format wikipedia --numPartitions 128 --runtimeMS 5000 --ADMMmaxLocalIterations 1000000 --ADMMepsilon 0.0 --ADMMLocalepsilon 0 --ADMMrho 1000 --ADMMLagrangianrho 1000 --broadcastDelayMs -1 --dblpSplitYear 2007 --wikipediaTargetWordToken 4690 --inputTokenHashKernelDimension 100 --localTimeout 10000000  --input /user/root/wiki/en-wiki-8-7-2014-tokenized.txt  '
p116
sg23
I1000
sg24
F0.0
sg25
I100
sg26
g27
sg28
S'RESULT: {"trainingLoss": 739016.5917239938, "stats": {"dualAvgNorm": 0.0, "stats": {"avgDualUpdates": [1.0, 1.0, 1.0], "primalAvg": [0.11954507415060621, -0.06898745634048623, -0.01709521980052834, -0.030358749577152438, -0.10306407060773422, 0.040077285811594636, 0.025202068407837282, -0.04423363447219673, 0.02954968399807943, 0.1984951398103667, -0.17414064917348543, -0.09148298960050522, 0.11581102462851046, -0.2389272583897713, -0.3500650940509116, 0.0637273830575245, 0.2105905281600024, -0.48355190756278754, 0.058708751972880203, 0.09762837509169477, 0.06482044638574354, -0.1004412026357438, 0.06508830115215704, 0.12141409596352405, 0.1010940379911007, 0.013733095150009958, -0.08029552748768368, -0.19345339893125732, 0.03078459124417361, 0.01618994821827558, -0.22462944240644, 0.4479532394332623, -0.07461672271649937, 0.020752085501667118, -0.008086982886868755, 0.04934787037897158, -0.1326956432607699, -0.3123903125358095, -0.14373493672380516, -0.08677312913468564, 0.12978688199998034, 0.02548062010338882, -0.14178071482757706, 0.2738533024259896, 0.24747090969446547, -0.191305473676911, -0.2653217140681911, -0.05221685968005713, -0.037559709309882124, 0.05548366231488364, -0.04161668845645481, -0.14215436677151128, 0.037483029769551424, -0.5835955233675235, 0.03598115885960336, 0.08760134591410194, -0.005311064882651979, -0.13776379570795408, 0.04669845351768501, -0.026157178959750053, 0.02501136696298982, 0.074559491440293, 0.1501325364396495, -0.016810599415243068, -0.17284558356632015, -0.20025637940507438, -0.3495913438972517, 0.016541428236920095, -0.14284591746183878, -0.008661075513329263, -0.15203243450788723, 0.1152070458847526, -0.08862536667637086, -0.4424991661305728, -0.10843128196736268, -0.0020570661733242614, 0.10148552442635918, -0.1754804713045246, -0.0473212429700217, -0.0557535130201212, 0.0011832811714464243, -0.16707504981328353, -0.2661445373231439, -0.058809241206405564, -0.08371046962904556, 0.13110286432701831, 0.020574398005032957, 0.1349559075114583, 0.03233269153842834, 0.08204245945343737, -0.0026507998002479995, -0.03504131630813588, 0.08363176151820546, 0.042465894543744, -0.022080671889408737, 0.11698988913568512, 0.1604733862098067, 0.2254608216199282, -0.21572501799352925, 0.08332143219913493], "dualAvg": [0.0, 0.0, 0.0, 0.0, 0.0, 0.0, 0.0, 0.0, 0.0, 0.0, 0.0, 0.0, 0.0, 0.0, 0.0, 0.0, 0.0, 0.0, 0.0, 0.0, 0.0, 0.0, 0.0, 0.0, 0.0, 0.0, 0.0, 0.0, 0.0, 0.0, 0.0, 0.0, 0.0, 0.0, 0.0, 0.0, 0.0, 0.0, 0.0, 0.0, 0.0, 0.0, 0.0, 0.0, 0.0, 0.0, 0.0, 0.0, 0.0, 0.0, 0.0, 0.0, 0.0, 0.0, 0.0, 0.0, 0.0, 0.0, 0.0, 0.0, 0.0, 0.0, 0.0, 0.0, 0.0, 0.0, 0.0, 0.0, 0.0, 0.0, 0.0, 0.0, 0.0, 0.0, 0.0, 0.0, 0.0, 0.0, 0.0, 0.0, 0.0, 0.0, 0.0, 0.0, 0.0, 0.0, 0.0, 0.0, 0.0, 0.0, 0.0, 0.0, 0.0, 0.0, 0.0, 0.0, 0.0, 0.0, 0.0, 0.0], "avgResidual": [5.2237138478747276E-5, 8.928366897076207E-4, 0.008256807802676385], "avgMsgsSent": [0.0, 0.0, 0.0], "avgMsgsRcvd": [0.0, 0.0, 0.0], "avgLocalIters": [0.0, 0.0, 0.0], "avgSGDIters": [224300.0, 256778.90625, 283500.0]}, "dualUpdates": [1.0, 1.0, 1.0], "primalAvgNorm": 1.6199281973134467, "avgSGDIters": [224300.0, 256778.90625, 283500.0], "iterations": 1, "runtime": 5236, "consensusNorm": 1.619801650309516}, "params": {"format": "wikipedia", "algParams": {"usePorkChop": false, "lagrangianRho": 1000.0, "rho0": 1000.0, "maxWorkerIterations": 1000000, "useLBFGS": false, "maxIterations": 1000, "eta0": 1.0, "runtimeMS": 5000, "adaptiveRho": false, "broadcastDelayMS": -1, "regParam": 10.0, "tol": 0.0, "displayIncrementalStats": false, "localTimeout": 10000000, "useLineSearch": false, "workerTol": 0.0, "miniBatchSize": 10}, "wikipediaTargetWordToken": 4690, "dblpSplitYear": 2007, "regType": "L2", "algorithm": "ADMM", "inputTokenHashKernelDimension": 100, "useLR": false, "pointCloudPoints": 10000, "pointCloudDim": 10, "pointCloudSize": 1.0, "pointCloudSkew": 0.0, "input": "/user/root/wiki/en-wiki-8-7-2014-tokenized.txt", "numPartitions": 128, "pointCloudNoise": 0.2}, "nDim": 100, "algorithm": "ADMM", "pr": 7.772785479290859E-6, "totalLoss": 739029.7105109255, "nExamples": 6745869, "runtimeMS": 5236, "regPenalty": 13.118786931727158, "trainingError": 0.027706437821428197, "maxW": 0.4479182458203076, "minW": -0.5835499335289666, "iterations": 1, "roc": 0.22080211856311102}\n'
p117
sg30
I1000
sg31
I-1
ssVstats
p118
(dp119
Vstats
p120
(dp121
VavgMsgsRcvd
p122
(lp123
F0.0
aF0.0
aF0.0
asVavgMsgsSent
p124
(lp125
F0.0
aF0.0
aF0.0
asVavgDualUpdates
p126
(lp127
F1.0
aF1.0
aF1.0
asVavgLocalIters
p128
(lp129
F0.0
aF0.0
aF0.0
asVavgResidual
p130
(lp131
F5.2237138478747276e-05
aF0.0008928366897076207
aF0.0082568078026763851
asVprimalAvg
p132
(lp133
F0.11954507415060621
aF-0.068987456340486225
aF-0.01709521980052834
aF-0.030358749577152438
aF-0.10306407060773422
aF0.040077285811594636
aF0.025202068407837282
aF-0.044233634472196727
aF0.029549683998079428
aF0.19849513981036671
aF-0.17414064917348543
aF-0.091482989600505216
aF0.11581102462851046
aF-0.2389272583897713
aF-0.35006509405091157
aF0.063727383057524498
aF0.2105905281600024
aF-0.48355190756278754
aF0.058708751972880203
aF0.097628375091694766
aF0.064820446385743538
aF-0.1004412026357438
aF0.065088301152157038
aF0.12141409596352405
aF0.1010940379911007
aF0.013733095150009958
aF-0.080295527487683677
aF-0.19345339893125732
aF0.030784591244173608
aF0.016189948218275581
aF-0.22462944240644001
aF0.44795323943326232
aF-0.07461672271649937
aF0.020752085501667118
aF-0.008086982886868755
aF0.049347870378971578
aF-0.13269564326076991
aF-0.31239031253580951
aF-0.14373493672380516
aF-0.086773129134685642
aF0.12978688199998034
aF0.025480620103388821
aF-0.14178071482757706
aF0.2738533024259896
aF0.24747090969446547
aF-0.191305473676911
aF-0.26532171406819111
aF-0.052216859680057133
aF-0.037559709309882124
aF0.055483662314883643
aF-0.04161668845645481
aF-0.14215436677151128
aF0.037483029769551424
aF-0.58359552336752352
aF0.03598115885960336
aF0.087601345914101944
aF-0.0053110648826519792
aF-0.13776379570795408
aF0.046698453517685007
aF-0.026157178959750053
aF0.02501136696298982
aF0.074559491440293002
aF0.15013253643964949
aF-0.016810599415243068
aF-0.17284558356632015
aF-0.20025637940507438
aF-0.34959134389725172
aF0.016541428236920095
aF-0.14284591746183878
aF-0.0086610755133292635
aF-0.15203243450788723
aF0.1152070458847526
aF-0.088625366676370859
aF-0.44249916613057277
aF-0.10843128196736268
aF-0.0020570661733242614
aF0.10148552442635918
aF-0.1754804713045246
aF-0.047321242970021701
aF-0.055753513020121201
aF0.0011832811714464243
aF-0.16707504981328353
aF-0.26614453732314391
aF-0.058809241206405564
aF-0.083710469629045561
aF0.13110286432701831
aF0.020574398005032957
aF0.13495590751145831
aF0.03233269153842834
aF0.082042459453437369
aF-0.0026507998002479995
aF-0.035041316308135881
aF0.083631761518205464
aF0.042465894543743998
aF-0.022080671889408737
aF0.11698988913568512
aF0.1604733862098067
aF0.2254608216199282
aF-0.21572501799352925
aF0.083321432199134932
asVdualAvg
p134
(lp135
F0.0
aF0.0
aF0.0
aF0.0
aF0.0
aF0.0
aF0.0
aF0.0
aF0.0
aF0.0
aF0.0
aF0.0
aF0.0
aF0.0
aF0.0
aF0.0
aF0.0
aF0.0
aF0.0
aF0.0
aF0.0
aF0.0
aF0.0
aF0.0
aF0.0
aF0.0
aF0.0
aF0.0
aF0.0
aF0.0
aF0.0
aF0.0
aF0.0
aF0.0
aF0.0
aF0.0
aF0.0
aF0.0
aF0.0
aF0.0
aF0.0
aF0.0
aF0.0
aF0.0
aF0.0
aF0.0
aF0.0
aF0.0
aF0.0
aF0.0
aF0.0
aF0.0
aF0.0
aF0.0
aF0.0
aF0.0
aF0.0
aF0.0
aF0.0
aF0.0
aF0.0
aF0.0
aF0.0
aF0.0
aF0.0
aF0.0
aF0.0
aF0.0
aF0.0
aF0.0
aF0.0
aF0.0
aF0.0
aF0.0
aF0.0
aF0.0
aF0.0
aF0.0
aF0.0
aF0.0
aF0.0
aF0.0
aF0.0
aF0.0
aF0.0
aF0.0
aF0.0
aF0.0
aF0.0
aF0.0
aF0.0
aF0.0
aF0.0
aF0.0
aF0.0
aF0.0
aF0.0
aF0.0
aF0.0
aF0.0
asVavgSGDIters
p136
(lp137
F224300.0
aF256778.90625
aF283500.0
assVconsensusNorm
p138
F1.6198016503095161
sVdualUpdates
p139
(lp140
F1.0
aF1.0
aF1.0
asVdualAvgNorm
p141
F0.0
sVprimalAvgNorm
p142
F1.6199281973134467
sViterations
p143
I1
sVruntime
p144
I5236
sVavgSGDIters
p145
(lp146
F224300.0
aF256778.90625
aF283500.0
assVtotalLoss
p147
F739029.71051092551
sValgorithm
p148
VADMM
p149
sVregPenalty
p150
F13.118786931727158
sVroc
p151
F0.22080211856311102
sVmaxW
p152
F0.44791824582030759
sVnExamples
p153
I6745869
sVruntimeMS
p154
I5236
sVparams
p155
(dp156
VpointCloudDim
p157
I10
sVinput
p158
V/user/root/wiki/en-wiki-8-7-2014-tokenized.txt
p159
sValgorithm
p160
VADMM
p161
sVformat
p162
Vwikipedia
p163
sVpointCloudSize
p164
F1.0
sVwikipediaTargetWordToken
p165
I4690
sVdblpSplitYear
p166
I2007
sVnumPartitions
p167
I128
sValgParams
p168
(dp169
VregParam
p170
F10.0
sVmaxIterations
p171
I1000
sVusePorkChop
p172
I00
sVtol
p173
F0.0
sVworkerTol
p174
F0.0
sVadaptiveRho
p175
I00
sVuseLBFGS
p176
I00
sVrho0
p177
F1000.0
sVdisplayIncrementalStats
p178
I00
sVminiBatchSize
p179
I10
sVlocalTimeout
p180
I10000000
sVmaxWorkerIterations
p181
I1000000
sVruntimeMS
p182
I5000
sVbroadcastDelayMS
p183
I-1
sVeta0
p184
F1.0
sVlagrangianRho
p185
F1000.0
sVuseLineSearch
p186
I00
ssVinputTokenHashKernelDimension
p187
I100
sVpointCloudPoints
p188
I10000
sVregType
p189
VL2
p190
sVuseLR
p191
I00
sVpointCloudNoise
p192
F0.20000000000000001
sVpointCloudSkew
p193
F0.0
ssViterations
p194
I1
sVtrainingLoss
p195
F739016.59172399377
sVminW
p196
F-0.58354993352896656
sVtrainingError
p197
F0.027706437821428197
sa(dp198
VnDim
p199
I100
sVpr
p200
F7.7130563737828396e-06
sg4
(dp201
g6
I0
sg7
I-1
sg8
I-1
sg9
g10
sg11
I10
sg12
I128
sg13
I4690
sg14
I2007
sg15
I10000000
sg16
g17
sg18
I1000000
sg19
g20
sg21
S'cd /mnt/spark; sbin/stop-all.sh; sleep 5; sbin/start-all.sh; sleep 3;./bin/spark-submit --driver-memory 52g --class org.apache.spark.examples.mllib.research.SynchronousADMMTests examples/target/scala-*/spark-examples-*.jar --algorithm ADMM --regType L2 --regParam 10 --format wikipedia --numPartitions 128 --runtimeMS 10000 --ADMMmaxLocalIterations 1000000 --ADMMepsilon 0.0 --ADMMLocalepsilon 0 --ADMMrho 1000 --ADMMLagrangianrho 1000 --broadcastDelayMs -1 --dblpSplitYear 2007 --wikipediaTargetWordToken 4690 --inputTokenHashKernelDimension 100 --localTimeout 10000000  --input /user/root/wiki/en-wiki-8-7-2014-tokenized.txt  '
p202
sg23
I1000
sg24
F0.0
sg25
I100
sg26
g27
sg28
S'RESULT: {"trainingLoss": 733661.2266694189, "stats": {"dualAvgNorm": 0.0, "stats": {"avgDualUpdates": [1.0, 1.0, 1.0], "primalAvg": [0.11161871585468909, -0.061024638118065445, -0.018943316930055, -0.020303720994233346, -0.09643437767449595, 0.028270517788202953, 0.027304467316841077, -0.041606793955591546, 0.024739986085128025, 0.18015487415633408, -0.17886427558238494, -0.0784652573117899, 0.10677877398890932, -0.22178222511350842, -0.3303681508195768, 0.05957317577075374, 0.1903261297753642, -0.4373636549228098, 0.0540708024946429, 0.08490107471481714, 0.06648682491582195, -0.10716289410517607, 0.0605087949648805, 0.11064651388719696, 0.09089255328825831, 0.013313906031196176, -0.08957306993321586, -0.18137891501802295, 0.042369487609472595, 0.01637174904998988, -0.1966141013744714, 0.4014803956402276, -0.07663708077790629, 0.016624485562030035, 0.0013047302123904458, 0.052941592181785756, -0.11411258099070842, -0.28341655193985166, -0.13136410854555144, -0.06141578941026337, 0.12133004465721371, 0.031151728071528245, -0.1352612195669784, 0.26655515592813606, 0.24798714269557268, -0.17877991079524033, -0.24522892700179266, -0.05438244864369626, -0.03466659926482446, 0.05474828969820983, -0.044576760225577876, -0.12656177077694925, 0.02744327891626194, -0.538034858841515, 0.030490306677343416, 0.07423139397689515, 6.858452284800421E-4, -0.14786351967200972, 0.038029579262732996, -0.014795004799661952, 0.011312978693173546, 0.06011515991596238, 0.13468035617795, -0.018134045980135193, -0.1553738940512501, -0.20009965426177292, -0.31037422795864317, 0.017508355370157633, -0.1218502145311731, -0.015793711578186927, -0.14374451183416675, 0.10772082426880716, -0.09161747963732866, -0.4398244950139323, -0.09233589902362598, -0.0037676955147990824, 0.10936241831026741, -0.16682017459671264, -0.03909577559761488, -0.04397710658858139, -0.007460016768966876, -0.1507604003843014, -0.2533339626425608, -0.061581219392409105, -0.07565733795634327, 0.11620628321459321, 0.023863515720433593, 0.09986819885516962, 0.034812817978691006, 0.07709224238425713, -0.0035153649117535563, -0.03450825451232328, 0.07287209447195822, 0.042916120590262695, -0.026456870392987608, 0.11182068729488237, 0.15939329443262834, 0.20263953723403505, -0.20399823608085535, 0.07420982806089796], "dualAvg": [0.0, 0.0, 0.0, 0.0, 0.0, 0.0, 0.0, 0.0, 0.0, 0.0, 0.0, 0.0, 0.0, 0.0, 0.0, 0.0, 0.0, 0.0, 0.0, 0.0, 0.0, 0.0, 0.0, 0.0, 0.0, 0.0, 0.0, 0.0, 0.0, 0.0, 0.0, 0.0, 0.0, 0.0, 0.0, 0.0, 0.0, 0.0, 0.0, 0.0, 0.0, 0.0, 0.0, 0.0, 0.0, 0.0, 0.0, 0.0, 0.0, 0.0, 0.0, 0.0, 0.0, 0.0, 0.0, 0.0, 0.0, 0.0, 0.0, 0.0, 0.0, 0.0, 0.0, 0.0, 0.0, 0.0, 0.0, 0.0, 0.0, 0.0, 0.0, 0.0, 0.0, 0.0, 0.0, 0.0, 0.0, 0.0, 0.0, 0.0, 0.0, 0.0, 0.0, 0.0, 0.0, 0.0, 0.0, 0.0, 0.0, 0.0, 0.0, 0.0, 0.0, 0.0, 0.0, 0.0, 0.0, 0.0, 0.0, 0.0], "avgResidual": [3.562191575657136E-5, 0.0010625943762045576, 0.013992796062912], "avgMsgsSent": [0.0, 0.0, 0.0], "avgMsgsRcvd": [0.0, 0.0, 0.0], "avgLocalIters": [0.0, 0.0, 0.0], "avgSGDIters": [471500.0, 522565.625, 580400.0]}, "dualUpdates": [1.0, 1.0, 1.0], "primalAvgNorm": 1.5062971031406758, "avgSGDIters": [471500.0, 522565.625, 580400.0], "iterations": 1, "runtime": 10229, "consensusNorm": 1.5061794328724825}, "params": {"format": "wikipedia", "algParams": {"usePorkChop": false, "lagrangianRho": 1000.0, "rho0": 1000.0, "maxWorkerIterations": 1000000, "useLBFGS": false, "maxIterations": 1000, "eta0": 1.0, "runtimeMS": 10000, "adaptiveRho": false, "broadcastDelayMS": -1, "regParam": 10.0, "tol": 0.0, "displayIncrementalStats": false, "localTimeout": 10000000, "useLineSearch": false, "workerTol": 0.0, "miniBatchSize": 10}, "wikipediaTargetWordToken": 4690, "dblpSplitYear": 2007, "regType": "L2", "algorithm": "ADMM", "inputTokenHashKernelDimension": 100, "useLR": false, "pointCloudPoints": 10000, "pointCloudDim": 10, "pointCloudSize": 1.0, "pointCloudSkew": 0.0, "input": "/user/root/wiki/en-wiki-8-7-2014-tokenized.txt", "numPartitions": 128, "pointCloudNoise": 0.2}, "nDim": 100, "algorithm": "ADMM", "pr": 7.71305637378284E-6, "totalLoss": 733672.5695518389, "nExamples": 6745869, "runtimeMS": 10229, "regPenalty": 11.342882420040365, "trainingError": 0.02705566918064967, "maxW": 0.40144903243456864, "minW": -0.5379928281518157, "iterations": 1, "roc": 0.22081886795125505}\n'
p203
sg30
I1000
sg31
I-1
ssVstats
p204
(dp205
Vstats
p206
(dp207
VavgMsgsRcvd
p208
(lp209
F0.0
aF0.0
aF0.0
asVavgMsgsSent
p210
(lp211
F0.0
aF0.0
aF0.0
asVavgDualUpdates
p212
(lp213
F1.0
aF1.0
aF1.0
asVavgLocalIters
p214
(lp215
F0.0
aF0.0
aF0.0
asVavgResidual
p216
(lp217
F3.562191575657136e-05
aF0.0010625943762045576
aF0.013992796062912
asVprimalAvg
p218
(lp219
F0.11161871585468909
aF-0.061024638118065445
aF-0.018943316930055
aF-0.020303720994233346
aF-0.096434377674495947
aF0.028270517788202953
aF0.027304467316841077
aF-0.041606793955591546
aF0.024739986085128025
aF0.18015487415633408
aF-0.17886427558238494
aF-0.078465257311789896
aF0.10677877398890932
aF-0.22178222511350842
aF-0.33036815081957682
aF0.059573175770753738
aF0.1903261297753642
aF-0.43736365492280982
aF0.054070802494642897
aF0.084901074714817143
aF0.066486824915821946
aF-0.10716289410517607
aF0.0605087949648805
aF0.11064651388719696
aF0.090892553288258307
aF0.013313906031196176
aF-0.089573069933215857
aF-0.18137891501802295
aF0.042369487609472595
aF0.016371749049989882
aF-0.19661410137447141
aF0.40148039564022758
aF-0.076637080777906291
aF0.016624485562030035
aF0.0013047302123904458
aF0.052941592181785756
aF-0.11411258099070842
aF-0.28341655193985166
aF-0.13136410854555144
aF-0.06141578941026337
aF0.12133004465721371
aF0.031151728071528245
aF-0.1352612195669784
aF0.26655515592813606
aF0.24798714269557268
aF-0.17877991079524033
aF-0.24522892700179266
aF-0.054382448643696263
aF-0.03466659926482446
aF0.054748289698209829
aF-0.044576760225577876
aF-0.12656177077694925
aF0.027443278916261939
aF-0.53803485884151503
aF0.030490306677343416
aF0.074231393976895155
aF0.0006858452284800421
aF-0.14786351967200972
aF0.038029579262732996
aF-0.014795004799661952
aF0.011312978693173546
aF0.060115159915962377
aF0.13468035617794999
aF-0.018134045980135193
aF-0.1553738940512501
aF-0.20009965426177292
aF-0.31037422795864317
aF0.017508355370157633
aF-0.1218502145311731
aF-0.015793711578186927
aF-0.14374451183416675
aF0.10772082426880716
aF-0.091617479637328664
aF-0.43982449501393228
aF-0.092335899023625975
aF-0.0037676955147990824
aF0.10936241831026741
aF-0.16682017459671264
aF-0.03909577559761488
aF-0.043977106588581387
aF-0.0074600167689668762
aF-0.15076040038430141
aF-0.25333396264256081
aF-0.061581219392409105
aF-0.075657337956343274
aF0.11620628321459321
aF0.023863515720433593
aF0.099868198855169621
aF0.034812817978691006
aF0.077092242384257131
aF-0.0035153649117535563
aF-0.034508254512323283
aF0.072872094471958221
aF0.042916120590262695
aF-0.026456870392987608
aF0.11182068729488237
aF0.15939329443262834
aF0.20263953723403505
aF-0.20399823608085535
aF0.074209828060897959
asVdualAvg
p220
(lp221
F0.0
aF0.0
aF0.0
aF0.0
aF0.0
aF0.0
aF0.0
aF0.0
aF0.0
aF0.0
aF0.0
aF0.0
aF0.0
aF0.0
aF0.0
aF0.0
aF0.0
aF0.0
aF0.0
aF0.0
aF0.0
aF0.0
aF0.0
aF0.0
aF0.0
aF0.0
aF0.0
aF0.0
aF0.0
aF0.0
aF0.0
aF0.0
aF0.0
aF0.0
aF0.0
aF0.0
aF0.0
aF0.0
aF0.0
aF0.0
aF0.0
aF0.0
aF0.0
aF0.0
aF0.0
aF0.0
aF0.0
aF0.0
aF0.0
aF0.0
aF0.0
aF0.0
aF0.0
aF0.0
aF0.0
aF0.0
aF0.0
aF0.0
aF0.0
aF0.0
aF0.0
aF0.0
aF0.0
aF0.0
aF0.0
aF0.0
aF0.0
aF0.0
aF0.0
aF0.0
aF0.0
aF0.0
aF0.0
aF0.0
aF0.0
aF0.0
aF0.0
aF0.0
aF0.0
aF0.0
aF0.0
aF0.0
aF0.0
aF0.0
aF0.0
aF0.0
aF0.0
aF0.0
aF0.0
aF0.0
aF0.0
aF0.0
aF0.0
aF0.0
aF0.0
aF0.0
aF0.0
aF0.0
aF0.0
aF0.0
asVavgSGDIters
p222
(lp223
F471500.0
aF522565.625
aF580400.0
assVconsensusNorm
p224
F1.5061794328724825
sVdualUpdates
p225
(lp226
F1.0
aF1.0
aF1.0
asVdualAvgNorm
p227
F0.0
sVprimalAvgNorm
p228
F1.5062971031406758
sViterations
p229
I1
sVruntime
p230
I10229
sVavgSGDIters
p231
(lp232
F471500.0
aF522565.625
aF580400.0
assVtotalLoss
p233
F733672.56955183891
sValgorithm
p234
VADMM
p235
sVregPenalty
p236
F11.342882420040365
sVroc
p237
F0.22081886795125505
sVmaxW
p238
F0.40144903243456864
sVnExamples
p239
I6745869
sVruntimeMS
p240
I10229
sVparams
p241
(dp242
VpointCloudDim
p243
I10
sVinput
p244
V/user/root/wiki/en-wiki-8-7-2014-tokenized.txt
p245
sValgorithm
p246
VADMM
p247
sVformat
p248
Vwikipedia
p249
sVpointCloudSize
p250
F1.0
sVwikipediaTargetWordToken
p251
I4690
sVdblpSplitYear
p252
I2007
sVnumPartitions
p253
I128
sValgParams
p254
(dp255
VregParam
p256
F10.0
sVmaxIterations
p257
I1000
sVusePorkChop
p258
I00
sVtol
p259
F0.0
sVworkerTol
p260
F0.0
sVadaptiveRho
p261
I00
sVuseLBFGS
p262
I00
sVrho0
p263
F1000.0
sVdisplayIncrementalStats
p264
I00
sVminiBatchSize
p265
I10
sVlocalTimeout
p266
I10000000
sVmaxWorkerIterations
p267
I1000000
sVruntimeMS
p268
I10000
sVbroadcastDelayMS
p269
I-1
sVeta0
p270
F1.0
sVlagrangianRho
p271
F1000.0
sVuseLineSearch
p272
I00
ssVinputTokenHashKernelDimension
p273
I100
sVpointCloudPoints
p274
I10000
sVregType
p275
VL2
p276
sVuseLR
p277
I00
sVpointCloudNoise
p278
F0.20000000000000001
sVpointCloudSkew
p279
F0.0
ssViterations
p280
I1
sVtrainingLoss
p281
F733661.22666941886
sVminW
p282
F-0.53799282815181571
sVtrainingError
p283
F0.02705566918064967
sa(dp284
VnDim
p285
I100
sVpr
p286
F7.6875831206705152e-06
sg4
(dp287
g6
I0
sg7
I-1
sg8
I-1
sg9
g10
sg11
I10
sg12
I128
sg13
I4690
sg14
I2007
sg15
I10000000
sg16
g17
sg18
I1000000
sg19
g20
sg21
S'cd /mnt/spark; sbin/stop-all.sh; sleep 5; sbin/start-all.sh; sleep 3;./bin/spark-submit --driver-memory 52g --class org.apache.spark.examples.mllib.research.SynchronousADMMTests examples/target/scala-*/spark-examples-*.jar --algorithm ADMM --regType L2 --regParam 10 --format wikipedia --numPartitions 128 --runtimeMS 20000 --ADMMmaxLocalIterations 1000000 --ADMMepsilon 0.0 --ADMMLocalepsilon 0 --ADMMrho 1000 --ADMMLagrangianrho 1000 --broadcastDelayMs -1 --dblpSplitYear 2007 --wikipediaTargetWordToken 4690 --inputTokenHashKernelDimension 100 --localTimeout 10000000  --input /user/root/wiki/en-wiki-8-7-2014-tokenized.txt  '
p288
sg23
I1000
sg24
F0.0
sg25
I100
sg26
g27
sg28
S'RESULT: {"trainingLoss": 735512.0908490247, "stats": {"dualAvgNorm": 0.0, "stats": {"avgDualUpdates": [1.0, 1.0, 1.0], "primalAvg": [0.1110488108087875, -0.052629964788993976, -0.01935849381893732, -0.02355444730871459, -0.08934562271931493, 0.019157228820503653, 0.021848272806130456, -0.039133623874508104, 0.020896954564262424, 0.163337213143333, -0.1811320455249172, -0.07244589958790208, 0.09502271855034096, -0.216697733555205, -0.31094512084221226, 0.053805842797160636, 0.18852030336344508, -0.40974744472592434, 0.05924548841317887, 0.081040240795599, 0.06614954165242064, -0.1001285983994222, 0.056018742903775225, 0.09225117516808862, 0.08514856194405974, 0.026385656503567348, -0.08444086309363084, -0.16983259959202957, 0.0376699244906951, 0.009780184208657552, -0.20020066689613808, 0.38214285513804824, -0.07350849074451812, 0.017095076770241985, -0.009477717557196905, 0.04697734371928157, -0.10273344939193771, -0.26831893811221574, -0.12211252185164183, -0.06000180264878846, 0.11525508384280403, 0.025992224939125366, -0.12588070865208112, 0.2582123619831452, 0.23506517661921705, -0.1705892383457561, -0.2244802800379332, -0.05409140545456026, -0.03606170285051429, 0.05968955770719511, -0.03682252956866239, -0.11850178639256, 0.024563024391107614, -0.5083763606159323, 0.030419298764176626, 0.07421550123844982, 0.0018102087273722841, -0.12734529895492153, 0.04071559656693558, -0.017990745033101496, 0.013119795560538158, 0.05543695600947034, 0.12262638711940176, -0.02264699434303612, -0.1497875280626573, -0.1850131632959478, -0.2887031209582803, 0.008949168335502423, -0.11798431450680613, -0.016980560352648458, -0.1353807804932082, 0.10013557259498788, -0.08704517430578851, -0.4239838686727161, -0.0837353932176748, 9.039029423346958E-4, 0.10058256168969802, -0.15723237031857562, -0.04144336263476517, -0.03576951675352456, -0.010043887620717163, -0.13837927807460726, -0.2329955739152668, -0.06654760212471279, -0.0720604726660955, 0.10477778157491056, 0.015846226127659156, 0.0941079928623584, 0.02863301167297792, 0.07118074753074691, -0.0033443779105235463, -0.028668422906668087, 0.06485991365014547, 0.04058854612073903, -0.023161345776550893, 0.09759129552641767, 0.15641211388530094, 0.1929322872174283, -0.19126398295424732, 0.06666308644067614], "dualAvg": [0.0, 0.0, 0.0, 0.0, 0.0, 0.0, 0.0, 0.0, 0.0, 0.0, 0.0, 0.0, 0.0, 0.0, 0.0, 0.0, 0.0, 0.0, 0.0, 0.0, 0.0, 0.0, 0.0, 0.0, 0.0, 0.0, 0.0, 0.0, 0.0, 0.0, 0.0, 0.0, 0.0, 0.0, 0.0, 0.0, 0.0, 0.0, 0.0, 0.0, 0.0, 0.0, 0.0, 0.0, 0.0, 0.0, 0.0, 0.0, 0.0, 0.0, 0.0, 0.0, 0.0, 0.0, 0.0, 0.0, 0.0, 0.0, 0.0, 0.0, 0.0, 0.0, 0.0, 0.0, 0.0, 0.0, 0.0, 0.0, 0.0, 0.0, 0.0, 0.0, 0.0, 0.0, 0.0, 0.0, 0.0, 0.0, 0.0, 0.0, 0.0, 0.0, 0.0, 0.0, 0.0, 0.0, 0.0, 0.0, 0.0, 0.0, 0.0, 0.0, 0.0, 0.0, 0.0, 0.0, 0.0, 0.0, 0.0, 0.0], "avgResidual": [2.524012144588121E-5, 4.956493877397958E-4, 0.0050504606476025555], "avgMsgsSent": [0.0, 0.0, 0.0], "avgMsgsRcvd": [0.0, 0.0, 0.0], "avgLocalIters": [0.0, 0.0, 0.0], "avgSGDIters": [936300.0, 997761.71875, 1000000.0]}, "dualUpdates": [1.0, 1.0, 1.0], "primalAvgNorm": 1.4239475409801066, "avgSGDIters": [936300.0, 997761.71875, 1000000.0], "iterations": 1, "runtime": 20152, "consensusNorm": 1.4238363037688742}, "params": {"format": "wikipedia", "algParams": {"usePorkChop": false, "lagrangianRho": 1000.0, "rho0": 1000.0, "maxWorkerIterations": 1000000, "useLBFGS": false, "maxIterations": 1000, "eta0": 1.0, "runtimeMS": 20000, "adaptiveRho": false, "broadcastDelayMS": -1, "regParam": 10.0, "tol": 0.0, "displayIncrementalStats": false, "localTimeout": 10000000, "useLineSearch": false, "workerTol": 0.0, "miniBatchSize": 10}, "wikipediaTargetWordToken": 4690, "dblpSplitYear": 2007, "regType": "L2", "algorithm": "ADMM", "inputTokenHashKernelDimension": 100, "useLR": false, "pointCloudPoints": 10000, "pointCloudDim": 10, "pointCloudSize": 1.0, "pointCloudSkew": 0.0, "input": "/user/root/wiki/en-wiki-8-7-2014-tokenized.txt", "numPartitions": 128, "pointCloudNoise": 0.2}, "nDim": 100, "algorithm": "ADMM", "pr": 7.687583120670515E-6, "totalLoss": 735522.2273981244, "nExamples": 6745869, "runtimeMS": 20152, "regPenalty": 10.136549099651049, "trainingError": 0.026945824177730105, "maxW": 0.38211300255972325, "minW": -0.5083366468153998, "iterations": 1, "roc": 0.22102399869326644}\n'
p289
sg30
I1000
sg31
I-1
ssVstats
p290
(dp291
Vstats
p292
(dp293
VavgMsgsRcvd
p294
(lp295
F0.0
aF0.0
aF0.0
asVavgMsgsSent
p296
(lp297
F0.0
aF0.0
aF0.0
asVavgDualUpdates
p298
(lp299
F1.0
aF1.0
aF1.0
asVavgLocalIters
p300
(lp301
F0.0
aF0.0
aF0.0
asVavgResidual
p302
(lp303
F2.524012144588121e-05
aF0.00049564938773979581
aF0.0050504606476025555
asVprimalAvg
p304
(lp305
F0.11104881080878749
aF-0.052629964788993976
aF-0.019358493818937322
aF-0.023554447308714591
aF-0.089345622719314927
aF0.019157228820503653
aF0.021848272806130456
aF-0.039133623874508104
aF0.020896954564262424
aF0.16333721314333299
aF-0.18113204552491721
aF-0.072445899587902082
aF0.095022718550340959
aF-0.216697733555205
aF-0.31094512084221226
aF0.053805842797160636
aF0.18852030336344508
aF-0.40974744472592434
aF0.059245488413178872
aF0.081040240795599003
aF0.066149541652420638
aF-0.1001285983994222
aF0.056018742903775225
aF0.092251175168088617
aF0.085148561944059745
aF0.026385656503567348
aF-0.084440863093630844
aF-0.16983259959202957
aF0.037669924490695103
aF0.0097801842086575521
aF-0.20020066689613808
aF0.38214285513804824
aF-0.073508490744518123
aF0.017095076770241985
aF-0.009477717557196905
aF0.04697734371928157
aF-0.10273344939193771
aF-0.26831893811221574
aF-0.12211252185164183
aF-0.06000180264878846
aF0.11525508384280403
aF0.025992224939125366
aF-0.12588070865208112
aF0.25821236198314518
aF0.23506517661921705
aF-0.17058923834575609
aF-0.22448028003793319
aF-0.05409140545456026
aF-0.036061702850514292
aF0.059689557707195112
aF-0.036822529568662388
aF-0.11850178639256
aF0.024563024391107614
aF-0.50837636061593228
aF0.030419298764176626
aF0.074215501238449819
aF0.0018102087273722841
aF-0.12734529895492153
aF0.040715596566935582
aF-0.017990745033101496
aF0.013119795560538158
aF0.055436956009470337
aF0.12262638711940176
aF-0.02264699434303612
aF-0.1497875280626573
aF-0.1850131632959478
aF-0.28870312095828032
aF0.0089491683355024231
aF-0.11798431450680613
aF-0.016980560352648458
aF-0.1353807804932082
aF0.10013557259498788
aF-0.087045174305788509
aF-0.42398386867271609
aF-0.0837353932176748
aF0.00090390294233469578
aF0.10058256168969802
aF-0.15723237031857562
aF-0.041443362634765168
aF-0.035769516753524563
aF-0.010043887620717163
aF-0.13837927807460726
aF-0.23299557391526679
aF-0.066547602124712793
aF-0.072060472666095499
aF0.10477778157491056
aF0.015846226127659156
aF0.094107992862358394
aF0.02863301167297792
aF0.071180747530746907
aF-0.0033443779105235463
aF-0.028668422906668087
aF0.06485991365014547
aF0.040588546120739033
aF-0.023161345776550893
aF0.097591295526417668
aF0.15641211388530094
aF0.19293228721742831
aF-0.19126398295424732
aF0.066663086440676145
asVdualAvg
p306
(lp307
F0.0
aF0.0
aF0.0
aF0.0
aF0.0
aF0.0
aF0.0
aF0.0
aF0.0
aF0.0
aF0.0
aF0.0
aF0.0
aF0.0
aF0.0
aF0.0
aF0.0
aF0.0
aF0.0
aF0.0
aF0.0
aF0.0
aF0.0
aF0.0
aF0.0
aF0.0
aF0.0
aF0.0
aF0.0
aF0.0
aF0.0
aF0.0
aF0.0
aF0.0
aF0.0
aF0.0
aF0.0
aF0.0
aF0.0
aF0.0
aF0.0
aF0.0
aF0.0
aF0.0
aF0.0
aF0.0
aF0.0
aF0.0
aF0.0
aF0.0
aF0.0
aF0.0
aF0.0
aF0.0
aF0.0
aF0.0
aF0.0
aF0.0
aF0.0
aF0.0
aF0.0
aF0.0
aF0.0
aF0.0
aF0.0
aF0.0
aF0.0
aF0.0
aF0.0
aF0.0
aF0.0
aF0.0
aF0.0
aF0.0
aF0.0
aF0.0
aF0.0
aF0.0
aF0.0
aF0.0
aF0.0
aF0.0
aF0.0
aF0.0
aF0.0
aF0.0
aF0.0
aF0.0
aF0.0
aF0.0
aF0.0
aF0.0
aF0.0
aF0.0
aF0.0
aF0.0
aF0.0
aF0.0
aF0.0
aF0.0
asVavgSGDIters
p308
(lp309
F936300.0
aF997761.71875
aF1000000.0
assVconsensusNorm
p310
F1.4238363037688742
sVdualUpdates
p311
(lp312
F1.0
aF1.0
aF1.0
asVdualAvgNorm
p313
F0.0
sVprimalAvgNorm
p314
F1.4239475409801066
sViterations
p315
I1
sVruntime
p316
I20152
sVavgSGDIters
p317
(lp318
F936300.0
aF997761.71875
aF1000000.0
assVtotalLoss
p319
F735522.22739812441
sValgorithm
p320
VADMM
p321
sVregPenalty
p322
F10.136549099651049
sVroc
p323
F0.22102399869326644
sVmaxW
p324
F0.38211300255972325
sVnExamples
p325
I6745869
sVruntimeMS
p326
I20152
sVparams
p327
(dp328
VpointCloudDim
p329
I10
sVinput
p330
V/user/root/wiki/en-wiki-8-7-2014-tokenized.txt
p331
sValgorithm
p332
VADMM
p333
sVformat
p334
Vwikipedia
p335
sVpointCloudSize
p336
F1.0
sVwikipediaTargetWordToken
p337
I4690
sVdblpSplitYear
p338
I2007
sVnumPartitions
p339
I128
sValgParams
p340
(dp341
VregParam
p342
F10.0
sVmaxIterations
p343
I1000
sVusePorkChop
p344
I00
sVtol
p345
F0.0
sVworkerTol
p346
F0.0
sVadaptiveRho
p347
I00
sVuseLBFGS
p348
I00
sVrho0
p349
F1000.0
sVdisplayIncrementalStats
p350
I00
sVminiBatchSize
p351
I10
sVlocalTimeout
p352
I10000000
sVmaxWorkerIterations
p353
I1000000
sVruntimeMS
p354
I20000
sVbroadcastDelayMS
p355
I-1
sVeta0
p356
F1.0
sVlagrangianRho
p357
F1000.0
sVuseLineSearch
p358
I00
ssVinputTokenHashKernelDimension
p359
I100
sVpointCloudPoints
p360
I10000
sVregType
p361
VL2
p362
sVuseLR
p363
I00
sVpointCloudNoise
p364
F0.20000000000000001
sVpointCloudSkew
p365
F0.0
ssViterations
p366
I1
sVtrainingLoss
p367
F735512.09084902471
sVminW
p368
F-0.50833664681539981
sVtrainingError
p369
F0.026945824177730105
sa(dp370
VnDim
p371
I100
sVpr
p372
F7.7148611630196913e-06
sg4
(dp373
g6
I0
sg7
I-1
sg8
I-1
sg9
g10
sg11
I10
sg12
I128
sg13
I4690
sg14
I2007
sg15
I10000000
sg16
g17
sg18
I1000000
sg19
g20
sg21
S'cd /mnt/spark; sbin/stop-all.sh; sleep 5; sbin/start-all.sh; sleep 3;./bin/spark-submit --driver-memory 52g --class org.apache.spark.examples.mllib.research.SynchronousADMMTests examples/target/scala-*/spark-examples-*.jar --algorithm ADMM --regType L2 --regParam 10 --format wikipedia --numPartitions 128 --runtimeMS 40000 --ADMMmaxLocalIterations 1000000 --ADMMepsilon 0.0 --ADMMLocalepsilon 0 --ADMMrho 1000 --ADMMLagrangianrho 1000 --broadcastDelayMs -1 --dblpSplitYear 2007 --wikipediaTargetWordToken 4690 --inputTokenHashKernelDimension 100 --localTimeout 10000000  --input /user/root/wiki/en-wiki-8-7-2014-tokenized.txt  '
p374
sg23
I1000
sg24
F0.0
sg25
I100
sg26
g27
sg28
S'RESULT: {"trainingLoss": 736710.202925884, "stats": {"dualAvgNorm": 0.0, "stats": {"avgDualUpdates": [2.0, 2.0, 2.0], "primalAvg": [0.14829411832575787, -0.07286990067293703, -0.014240762167712254, -0.030068905581800906, -0.10682711659383612, 0.02408585049554329, 0.026977535992139368, -0.04351201906423143, 0.02280233998602581, 0.21387427152319713, -0.23232595116431498, -0.08885357811176862, 0.12431969121344369, -0.2665222477666412, -0.3704143962947844, 0.06891924064920929, 0.236464709972746, -0.5033184251634256, 0.06815101884461118, 0.09780924688459493, 0.07788289504754047, -0.12030701266402216, 0.07633131810070862, 0.10989872185704998, 0.10630984799489301, 0.035137309482038, -0.10061027681115475, -0.21665220639077232, 0.04203144982825334, 0.016616900569677996, -0.25467043921876187, 0.46120750515962144, -0.08338103687743281, 0.03126355856562244, 0.003028184776418492, 0.05692034949046541, -0.13252853453561528, -0.3360882417482696, -0.14371401250480276, -0.06781707267840062, 0.1558327848686818, 0.0376561187269878, -0.1636594915905002, 0.3137443933168507, 0.30638060374477927, -0.21042927951340062, -0.28591812143776507, -0.06551414443440821, -0.038231949091642, 0.06717136937232225, -0.04203661676714691, -0.1529245418108291, 0.023767548921644472, -0.6278445643139594, 0.036484868711302604, 0.09856862648748659, -2.6174251056295772E-5, -0.15776734919890148, 0.04451026781642734, -0.02281013988755818, 0.010467019967430394, 0.0703610658813172, 0.15394744480812164, -0.032388213694080834, -0.18294803194692746, -0.214615569568128, -0.3582212010541174, 0.015605970702606711, -0.15304255785261978, -0.02578886797383649, -0.17926868240202345, 0.12625275971121105, -0.11202671711868346, -0.5174853206937706, -0.11050460738481509, -5.970074423157319E-4, 0.1281305293275723, -0.19040854444818223, -0.0498522276088188, -0.04314848589734065, -9.13040843099374E-4, -0.17149146778445, -0.2911347317710861, -0.0723217618240904, -0.08638959411601799, 0.13803940706911255, 0.025875767529251803, 0.11849425664184803, 0.04427872053088862, 0.08934675242774073, 4.243658505455514E-4, -0.03422071631116006, 0.0866256808392656, 0.058608946782268155, -0.034864237330669706, 0.1160703094727007, 0.1970295290721583, 0.24461314695865233, -0.24427169649988303, 0.0904367744002564], "dualAvg": [0.0, 0.0, 0.0, 0.0, 0.0, 0.0, 0.0, 0.0, 0.0, 0.0, 0.0, 0.0, 0.0, 0.0, 0.0, 0.0, 0.0, 0.0, 0.0, 0.0, 0.0, 0.0, 0.0, 0.0, 0.0, 0.0, 0.0, 0.0, 0.0, 0.0, 0.0, 0.0, 0.0, 0.0, 0.0, 0.0, 0.0, 0.0, 0.0, 0.0, 0.0, 0.0, 0.0, 0.0, 0.0, 0.0, 0.0, 0.0, 0.0, 0.0, 0.0, 0.0, 0.0, 0.0, 0.0, 0.0, 0.0, 0.0, 0.0, 0.0, 0.0, 0.0, 0.0, 0.0, 0.0, 0.0, 0.0, 0.0, 0.0, 0.0, 0.0, 0.0, 0.0, 0.0, 0.0, 0.0, 0.0, 0.0, 0.0, 0.0, 0.0, 0.0, 0.0, 0.0, 0.0, 0.0, 0.0, 0.0, 0.0, 0.0, 0.0, 0.0, 0.0, 0.0, 0.0, 0.0, 0.0, 0.0, 0.0, 0.0], "avgResidual": [0.0, 3.732209273599888E-4, 0.004466446340738849], "avgMsgsSent": [0.0, 0.0, 0.0], "avgMsgsRcvd": [0.0, 0.0, 0.0], "avgLocalIters": [0.0, 0.0, 0.0], "avgSGDIters": [1.0, 741900.2578125, 1000000.0]}, "dualUpdates": [2.0, 2.0, 2.0], "primalAvgNorm": 1.7665240372666349, "avgSGDIters": [1.0, 741900.2578125, 1000000.0], "iterations": 2, "runtime": 40124, "consensusNorm": 1.7663860383573877}, "params": {"format": "wikipedia", "algParams": {"usePorkChop": false, "lagrangianRho": 1000.0, "rho0": 1000.0, "maxWorkerIterations": 1000000, "useLBFGS": false, "maxIterations": 1000, "eta0": 1.0, "runtimeMS": 40000, "adaptiveRho": false, "broadcastDelayMS": -1, "regParam": 10.0, "tol": 0.0, "displayIncrementalStats": false, "localTimeout": 10000000, "useLineSearch": false, "workerTol": 0.0, "miniBatchSize": 10}, "wikipediaTargetWordToken": 4690, "dblpSplitYear": 2007, "regType": "L2", "algorithm": "ADMM", "inputTokenHashKernelDimension": 100, "useLR": false, "pointCloudPoints": 10000, "pointCloudDim": 10, "pointCloudSize": 1.0, "pointCloudSkew": 0.0, "input": "/user/root/wiki/en-wiki-8-7-2014-tokenized.txt", "numPartitions": 128, "pointCloudNoise": 0.2}, "nDim": 100, "algorithm": "ADMM", "pr": 7.714861163019691E-6, "totalLoss": 736725.8035240666, "nExamples": 6745869, "runtimeMS": 40124, "regPenalty": 15.600598182519533, "trainingError": 0.026925515452493963, "maxW": 0.46117147613804815, "minW": -0.6277955177891321, "iterations": 2, "roc": 0.22071843308797623}\n'
p375
sg30
I1000
sg31
I-1
ssVstats
p376
(dp377
Vstats
p378
(dp379
VavgMsgsRcvd
p380
(lp381
F0.0
aF0.0
aF0.0
asVavgMsgsSent
p382
(lp383
F0.0
aF0.0
aF0.0
asVavgDualUpdates
p384
(lp385
F2.0
aF2.0
aF2.0
asVavgLocalIters
p386
(lp387
F0.0
aF0.0
aF0.0
asVavgResidual
p388
(lp389
F0.0
aF0.00037322092735998878
aF0.0044664463407388492
asVprimalAvg
p390
(lp391
F0.14829411832575787
aF-0.072869900672937027
aF-0.014240762167712254
aF-0.030068905581800906
aF-0.10682711659383612
aF0.024085850495543289
aF0.026977535992139368
aF-0.043512019064231432
aF0.022802339986025811
aF0.21387427152319713
aF-0.23232595116431498
aF-0.088853578111768625
aF0.12431969121344369
aF-0.26652224776664118
aF-0.3704143962947844
aF0.06891924064920929
aF0.23646470997274599
aF-0.50331842516342562
aF0.06815101884461118
aF0.097809246884594928
aF0.077882895047540465
aF-0.12030701266402216
aF0.076331318100708617
aF0.10989872185704998
aF0.10630984799489301
aF0.035137309482037998
aF-0.10061027681115475
aF-0.21665220639077232
aF0.042031449828253339
aF0.016616900569677996
aF-0.25467043921876187
aF0.46120750515962144
aF-0.083381036877432813
aF0.031263558565622442
aF0.0030281847764184922
aF0.056920349490465413
aF-0.13252853453561528
aF-0.33608824174826962
aF-0.14371401250480276
aF-0.067817072678400619
aF0.1558327848686818
aF0.037656118726987799
aF-0.16365949159050019
aF0.31374439331685072
aF0.30638060374477927
aF-0.21042927951340062
aF-0.28591812143776507
aF-0.065514144434408214
aF-0.038231949091642001
aF0.067171369372322251
aF-0.042036616767146907
aF-0.1529245418108291
aF0.023767548921644472
aF-0.62784456431395941
aF0.036484868711302604
aF0.098568626487486585
aF-2.6174251056295772e-05
aF-0.15776734919890148
aF0.044510267816427342
aF-0.02281013988755818
aF0.010467019967430394
aF0.0703610658813172
aF0.15394744480812164
aF-0.032388213694080834
aF-0.18294803194692746
aF-0.214615569568128
aF-0.35822120105411742
aF0.015605970702606711
aF-0.15304255785261978
aF-0.025788867973836491
aF-0.17926868240202345
aF0.12625275971121105
aF-0.11202671711868346
aF-0.51748532069377062
aF-0.11050460738481509
aF-0.00059700744231573188
aF0.1281305293275723
aF-0.19040854444818223
aF-0.0498522276088188
aF-0.043148485897340647
aF-0.00091304084309937401
aF-0.17149146778445001
aF-0.29113473177108612
aF-0.072321761824090405
aF-0.086389594116017987
aF0.13803940706911255
aF0.025875767529251803
aF0.11849425664184803
aF0.044278720530888618
aF0.089346752427740733
aF0.00042436585054555142
aF-0.034220716311160061
aF0.086625680839265598
aF0.058608946782268155
aF-0.034864237330669706
aF0.11607030947270069
aF0.19702952907215829
aF0.24461314695865233
aF-0.24427169649988303
aF0.090436774400256395
asVdualAvg
p392
(lp393
F0.0
aF0.0
aF0.0
aF0.0
aF0.0
aF0.0
aF0.0
aF0.0
aF0.0
aF0.0
aF0.0
aF0.0
aF0.0
aF0.0
aF0.0
aF0.0
aF0.0
aF0.0
aF0.0
aF0.0
aF0.0
aF0.0
aF0.0
aF0.0
aF0.0
aF0.0
aF0.0
aF0.0
aF0.0
aF0.0
aF0.0
aF0.0
aF0.0
aF0.0
aF0.0
aF0.0
aF0.0
aF0.0
aF0.0
aF0.0
aF0.0
aF0.0
aF0.0
aF0.0
aF0.0
aF0.0
aF0.0
aF0.0
aF0.0
aF0.0
aF0.0
aF0.0
aF0.0
aF0.0
aF0.0
aF0.0
aF0.0
aF0.0
aF0.0
aF0.0
aF0.0
aF0.0
aF0.0
aF0.0
aF0.0
aF0.0
aF0.0
aF0.0
aF0.0
aF0.0
aF0.0
aF0.0
aF0.0
aF0.0
aF0.0
aF0.0
aF0.0
aF0.0
aF0.0
aF0.0
aF0.0
aF0.0
aF0.0
aF0.0
aF0.0
aF0.0
aF0.0
aF0.0
aF0.0
aF0.0
aF0.0
aF0.0
aF0.0
aF0.0
aF0.0
aF0.0
aF0.0
aF0.0
aF0.0
aF0.0
asVavgSGDIters
p394
(lp395
F1.0
aF741900.2578125
aF1000000.0
assVconsensusNorm
p396
F1.7663860383573877
sVdualUpdates
p397
(lp398
F2.0
aF2.0
aF2.0
asVdualAvgNorm
p399
F0.0
sVprimalAvgNorm
p400
F1.7665240372666349
sViterations
p401
I2
sVruntime
p402
I40124
sVavgSGDIters
p403
(lp404
F1.0
aF741900.2578125
aF1000000.0
assVtotalLoss
p405
F736725.80352406658
sValgorithm
p406
VADMM
p407
sVregPenalty
p408
F15.600598182519533
sVroc
p409
F0.22071843308797623
sVmaxW
p410
F0.46117147613804815
sVnExamples
p411
I6745869
sVruntimeMS
p412
I40124
sVparams
p413
(dp414
VpointCloudDim
p415
I10
sVinput
p416
V/user/root/wiki/en-wiki-8-7-2014-tokenized.txt
p417
sValgorithm
p418
VADMM
p419
sVformat
p420
Vwikipedia
p421
sVpointCloudSize
p422
F1.0
sVwikipediaTargetWordToken
p423
I4690
sVdblpSplitYear
p424
I2007
sVnumPartitions
p425
I128
sValgParams
p426
(dp427
VregParam
p428
F10.0
sVmaxIterations
p429
I1000
sVusePorkChop
p430
I00
sVtol
p431
F0.0
sVworkerTol
p432
F0.0
sVadaptiveRho
p433
I00
sVuseLBFGS
p434
I00
sVrho0
p435
F1000.0
sVdisplayIncrementalStats
p436
I00
sVminiBatchSize
p437
I10
sVlocalTimeout
p438
I10000000
sVmaxWorkerIterations
p439
I1000000
sVruntimeMS
p440
I40000
sVbroadcastDelayMS
p441
I-1
sVeta0
p442
F1.0
sVlagrangianRho
p443
F1000.0
sVuseLineSearch
p444
I00
ssVinputTokenHashKernelDimension
p445
I100
sVpointCloudPoints
p446
I10000
sVregType
p447
VL2
p448
sVuseLR
p449
I00
sVpointCloudNoise
p450
F0.20000000000000001
sVpointCloudSkew
p451
F0.0
ssViterations
p452
I2
sVtrainingLoss
p453
F736710.20292588405
sVminW
p454
F-0.62779551778913212
sVtrainingError
p455
F0.026925515452493963
sa(dp456
VnDim
p457
I100
sVpr
p458
F7.7922808839931742e-06
sg4
(dp459
g6
I0
sg7
I-1
sg8
I-1
sg9
g10
sg11
I10
sg12
I128
sg13
I4690
sg14
I2007
sg15
I10000000
sg16
g17
sg18
I1000000
sg19
g20
sg21
S'cd /mnt/spark; sbin/stop-all.sh; sleep 5; sbin/start-all.sh; sleep 3;./bin/spark-submit --driver-memory 52g --class org.apache.spark.examples.mllib.research.SynchronousADMMTests examples/target/scala-*/spark-examples-*.jar --algorithm ADMM --regType L2 --regParam 10 --format wikipedia --numPartitions 128 --runtimeMS 80000 --ADMMmaxLocalIterations 1000000 --ADMMepsilon 0.0 --ADMMLocalepsilon 0 --ADMMrho 1000 --ADMMLagrangianrho 1000 --broadcastDelayMs -1 --dblpSplitYear 2007 --wikipediaTargetWordToken 4690 --inputTokenHashKernelDimension 100 --localTimeout 10000000  --input /user/root/wiki/en-wiki-8-7-2014-tokenized.txt  '
p460
sg23
I1000
sg24
F0.0
sg25
I100
sg26
g27
sg28
S'RESULT: {"trainingLoss": 790937.3496196333, "stats": {"dualAvgNorm": 0.0, "stats": {"avgDualUpdates": [5.0, 5.0, 5.0], "primalAvg": [0.220645122388525, -0.15459978866237292, -0.01772204401587955, -0.03218906345699705, -0.14652725815147755, 0.02568987305276158, 0.05521816390997794, -0.06584036292038599, 0.060603190686168755, 0.28689355313797377, -0.2865331061499541, -0.1277019245677945, 0.1728327524989802, -0.37721015194073393, -0.5234184924138062, 0.09411579960018626, 0.3629494880513506, -0.7650603851452459, 0.08590466814615126, 0.1501468007186002, 0.07143453798212573, -0.15178701219420895, 0.12562709021094196, 0.20109567692765412, 0.17072984803753702, 0.008940594450373133, -0.10638319095084638, -0.3150023689848296, 0.03556760176220207, 0.035822628914743526, -0.36267288101231615, 0.7003796875713886, -0.10365016656687721, 0.026326375427468802, 0.01363107827840502, 0.08656394527356993, -0.19862895545645168, -0.48604904342278277, -0.1985591729712506, -0.11215304606678228, 0.22725540924889082, 0.05767206978558359, -0.2244106886918757, 0.41849005933022554, 0.40158063697441326, -0.29878099588818247, -0.4041410138803009, -0.0926958757722023, -0.05830590306701786, 0.05606567124460693, -0.06819300157841268, -0.2210755267580588, 0.03170375843369718, -0.8757668184267328, 0.05771035679752893, 0.16629766370503493, -0.03199730664961876, -0.21657246135838, 0.05273763405871088, -0.025343955314291677, 0.025568379261601368, 0.08233870155795592, 0.22077853676938458, -0.01825585086642389, -0.25528548446659216, -0.28265450879832127, -0.5525177413500278, 0.0428364246210221, -0.21633569325478666, -0.035449981123673334, -0.2639651868692757, 0.17441659349522282, -0.14397883066701475, -0.6701484518228983, -0.1715932520952888, -0.024291338721038336, 0.15145005101798836, -0.27812940172380596, -0.08067550840707854, -0.07350780510358097, -0.0027571269626393024, -0.27360999945953274, -0.4368369506668229, -0.08782221702692641, -0.1420329505270262, 0.19461604175725952, 0.03181511867604577, 0.16811379995457534, 0.05670324646173281, 0.13165827646353992, -0.0013578527818862525, -0.05189636420264911, 0.1393580110832974, 0.0890010274518973, -0.036826597562478386, 0.17925975400697602, 0.2603574354104004, 0.3301525274493485, -0.3545428849001656, 0.1379580511515923], "dualAvg": [0.0, 0.0, 0.0, 0.0, 0.0, 0.0, 0.0, 0.0, 0.0, 0.0, 0.0, 0.0, 0.0, 0.0, 0.0, 0.0, 0.0, 0.0, 0.0, 0.0, 0.0, 0.0, 0.0, 0.0, 0.0, 0.0, 0.0, 0.0, 0.0, 0.0, 0.0, 0.0, 0.0, 0.0, 0.0, 0.0, 0.0, 0.0, 0.0, 0.0, 0.0, 0.0, 0.0, 0.0, 0.0, 0.0, 0.0, 0.0, 0.0, 0.0, 0.0, 0.0, 0.0, 0.0, 0.0, 0.0, 0.0, 0.0, 0.0, 0.0, 0.0, 0.0, 0.0, 0.0, 0.0, 0.0, 0.0, 0.0, 0.0, 0.0, 0.0, 0.0, 0.0, 0.0, 0.0, 0.0, 0.0, 0.0, 0.0, 0.0, 0.0, 0.0, 0.0, 0.0, 0.0, 0.0, 0.0, 0.0, 0.0, 0.0, 0.0, 0.0, 0.0, 0.0, 0.0, 0.0, 0.0, 0.0, 0.0, 0.0], "avgResidual": [0.0, 0.0014613692449072832, 0.049725372527715674], "avgMsgsSent": [0.0, 0.0, 0.0], "avgMsgsRcvd": [0.0, 0.0, 0.0], "avgLocalIters": [0.0, 0.0, 0.0], "avgSGDIters": [1.0, 25592.6328125, 51500.0]}, "dualUpdates": [5.0, 5.0, 5.0], "primalAvgNorm": 2.516724188266432, "avgSGDIters": [1.0, 25592.6328125, 51500.0], "iterations": 5, "runtime": 80138, "consensusNorm": 2.5165275845488893}, "params": {"format": "wikipedia", "algParams": {"usePorkChop": false, "lagrangianRho": 1000.0, "rho0": 1000.0, "maxWorkerIterations": 1000000, "useLBFGS": false, "maxIterations": 1000, "eta0": 1.0, "runtimeMS": 80000, "adaptiveRho": false, "broadcastDelayMS": -1, "regParam": 10.0, "tol": 0.0, "displayIncrementalStats": false, "localTimeout": 10000000, "useLineSearch": false, "workerTol": 0.0, "miniBatchSize": 10}, "wikipediaTargetWordToken": 4690, "dblpSplitYear": 2007, "regType": "L2", "algorithm": "ADMM", "inputTokenHashKernelDimension": 100, "useLR": false, "pointCloudPoints": 10000, "pointCloudDim": 10, "pointCloudSize": 1.0, "pointCloudSkew": 0.0, "input": "/user/root/wiki/en-wiki-8-7-2014-tokenized.txt", "numPartitions": 128, "pointCloudNoise": 0.2}, "nDim": 100, "algorithm": "ADMM", "pr": 7.792280883993174E-6, "totalLoss": 790969.0141750523, "nExamples": 6745869, "runtimeMS": 80138, "regPenalty": 31.664555418977333, "trainingError": 0.0278152451522554, "maxW": 0.7003249746827415, "minW": -0.8756984044888821, "iterations": 5, "roc": 0.22244898746502886}\n'
p461
sg30
I1000
sg31
I-1
ssVstats
p462
(dp463
Vstats
p464
(dp465
VavgMsgsRcvd
p466
(lp467
F0.0
aF0.0
aF0.0
asVavgMsgsSent
p468
(lp469
F0.0
aF0.0
aF0.0
asVavgDualUpdates
p470
(lp471
F5.0
aF5.0
aF5.0
asVavgLocalIters
p472
(lp473
F0.0
aF0.0
aF0.0
asVavgResidual
p474
(lp475
F0.0
aF0.0014613692449072832
aF0.049725372527715674
asVprimalAvg
p476
(lp477
F0.22064512238852499
aF-0.15459978866237292
aF-0.01772204401587955
aF-0.032189063456997048
aF-0.14652725815147755
aF0.025689873052761578
aF0.055218163909977941
aF-0.065840362920385989
aF0.060603190686168755
aF0.28689355313797377
aF-0.28653310614995409
aF-0.1277019245677945
aF0.1728327524989802
aF-0.37721015194073393
aF-0.52341849241380622
aF0.094115799600186262
aF0.36294948805135058
aF-0.76506038514524588
aF0.085904668146151261
aF0.1501468007186002
aF0.071434537982125734
aF-0.15178701219420895
aF0.12562709021094196
aF0.20109567692765412
aF0.17072984803753702
aF0.0089405944503731325
aF-0.10638319095084638
aF-0.31500236898482958
aF0.03556760176220207
aF0.035822628914743526
aF-0.36267288101231615
aF0.70037968757138858
aF-0.10365016656687721
aF0.026326375427468802
aF0.013631078278405021
aF0.086563945273569934
aF-0.19862895545645168
aF-0.48604904342278277
aF-0.19855917297125061
aF-0.11215304606678228
aF0.22725540924889082
aF0.057672069785583591
aF-0.22441068869187569
aF0.41849005933022554
aF0.40158063697441326
aF-0.29878099588818247
aF-0.40414101388030088
aF-0.092695875772202299
aF-0.058305903067017863
aF0.056065671244606929
aF-0.068193001578412682
aF-0.2210755267580588
aF0.031703758433697181
aF-0.87576681842673276
aF0.057710356797528929
aF0.16629766370503493
aF-0.031997306649618758
aF-0.21657246135837999
aF0.052737634058710882
aF-0.025343955314291677
aF0.025568379261601368
aF0.082338701557955918
aF0.22077853676938458
aF-0.018255850866423892
aF-0.25528548446659216
aF-0.28265450879832127
aF-0.55251774135002785
aF0.0428364246210221
aF-0.21633569325478666
aF-0.035449981123673334
aF-0.26396518686927573
aF0.17441659349522282
aF-0.14397883066701475
aF-0.67014845182289828
aF-0.17159325209528881
aF-0.024291338721038336
aF0.15145005101798836
aF-0.27812940172380596
aF-0.080675508407078544
aF-0.073507805103580973
aF-0.0027571269626393024
aF-0.27360999945953274
aF-0.43683695066682288
aF-0.087822217026926414
aF-0.14203295052702619
aF0.19461604175725952
aF0.031815118676045771
aF0.16811379995457534
aF0.056703246461732811
aF0.13165827646353992
aF-0.0013578527818862525
aF-0.051896364202649113
aF0.1393580110832974
aF0.089001027451897294
aF-0.036826597562478386
aF0.17925975400697602
aF0.26035743541040041
aF0.33015252744934848
aF-0.35454288490016561
aF0.13795805115159229
asVdualAvg
p478
(lp479
F0.0
aF0.0
aF0.0
aF0.0
aF0.0
aF0.0
aF0.0
aF0.0
aF0.0
aF0.0
aF0.0
aF0.0
aF0.0
aF0.0
aF0.0
aF0.0
aF0.0
aF0.0
aF0.0
aF0.0
aF0.0
aF0.0
aF0.0
aF0.0
aF0.0
aF0.0
aF0.0
aF0.0
aF0.0
aF0.0
aF0.0
aF0.0
aF0.0
aF0.0
aF0.0
aF0.0
aF0.0
aF0.0
aF0.0
aF0.0
aF0.0
aF0.0
aF0.0
aF0.0
aF0.0
aF0.0
aF0.0
aF0.0
aF0.0
aF0.0
aF0.0
aF0.0
aF0.0
aF0.0
aF0.0
aF0.0
aF0.0
aF0.0
aF0.0
aF0.0
aF0.0
aF0.0
aF0.0
aF0.0
aF0.0
aF0.0
aF0.0
aF0.0
aF0.0
aF0.0
aF0.0
aF0.0
aF0.0
aF0.0
aF0.0
aF0.0
aF0.0
aF0.0
aF0.0
aF0.0
aF0.0
aF0.0
aF0.0
aF0.0
aF0.0
aF0.0
aF0.0
aF0.0
aF0.0
aF0.0
aF0.0
aF0.0
aF0.0
aF0.0
aF0.0
aF0.0
aF0.0
aF0.0
aF0.0
aF0.0
asVavgSGDIters
p480
(lp481
F1.0
aF25592.6328125
aF51500.0
assVconsensusNorm
p482
F2.5165275845488893
sVdualUpdates
p483
(lp484
F5.0
aF5.0
aF5.0
asVdualAvgNorm
p485
F0.0
sVprimalAvgNorm
p486
F2.5167241882664322
sViterations
p487
I5
sVruntime
p488
I80138
sVavgSGDIters
p489
(lp490
F1.0
aF25592.6328125
aF51500.0
assVtotalLoss
p491
F790969.01417505229
sValgorithm
p492
VADMM
p493
sVregPenalty
p494
F31.664555418977333
sVroc
p495
F0.22244898746502886
sVmaxW
p496
F0.70032497468274146
sVnExamples
p497
I6745869
sVruntimeMS
p498
I80138
sVparams
p499
(dp500
VpointCloudDim
p501
I10
sVinput
p502
V/user/root/wiki/en-wiki-8-7-2014-tokenized.txt
p503
sValgorithm
p504
VADMM
p505
sVformat
p506
Vwikipedia
p507
sVpointCloudSize
p508
F1.0
sVwikipediaTargetWordToken
p509
I4690
sVdblpSplitYear
p510
I2007
sVnumPartitions
p511
I128
sValgParams
p512
(dp513
VregParam
p514
F10.0
sVmaxIterations
p515
I1000
sVusePorkChop
p516
I00
sVtol
p517
F0.0
sVworkerTol
p518
F0.0
sVadaptiveRho
p519
I00
sVuseLBFGS
p520
I00
sVrho0
p521
F1000.0
sVdisplayIncrementalStats
p522
I00
sVminiBatchSize
p523
I10
sVlocalTimeout
p524
I10000000
sVmaxWorkerIterations
p525
I1000000
sVruntimeMS
p526
I80000
sVbroadcastDelayMS
p527
I-1
sVeta0
p528
F1.0
sVlagrangianRho
p529
F1000.0
sVuseLineSearch
p530
I00
ssVinputTokenHashKernelDimension
p531
I100
sVpointCloudPoints
p532
I10000
sVregType
p533
VL2
p534
sVuseLR
p535
I00
sVpointCloudNoise
p536
F0.20000000000000001
sVpointCloudSkew
p537
F0.0
ssViterations
p538
I5
sVtrainingLoss
p539
F790937.34961963329
sVminW
p540
F-0.87569840448888214
sVtrainingError
p541
F0.027815245152255402
sa(dp542
VnDim
p543
I54
sVpr
p544
F0.76484065299541648
sg4
(dp545
g6
I0
sg7
I-1
sg8
I-1
sg9
g10
sg11
I10
sg12
I128
sg13
I4690
sg14
I2007
sg15
I10000000
sg16
S'bismarck'
p546
sg18
I1000000
sg19
S' --input /user/root/bismarck_data/forest* '
p547
sg21
S'cd /mnt/spark; sbin/stop-all.sh; sleep 5; sbin/start-all.sh; sleep 3;./bin/spark-submit --driver-memory 52g --class org.apache.spark.examples.mllib.research.SynchronousADMMTests examples/target/scala-*/spark-examples-*.jar --algorithm ADMM --regType L2 --regParam 10 --format bismarck --numPartitions 128 --runtimeMS 1000 --ADMMmaxLocalIterations 1000000 --ADMMepsilon 0.0 --ADMMLocalepsilon 0 --ADMMrho 1000 --ADMMLagrangianrho 1000 --broadcastDelayMs -1 --dblpSplitYear 2007 --wikipediaTargetWordToken 4690 --inputTokenHashKernelDimension 100 --localTimeout 10000000  --input /user/root/bismarck_data/forest*   '
p548
sg23
I1000
sg24
F0.0
sg25
I100
sg26
g27
sg28
S'RESULT: {"trainingLoss": 372853.8926858516, "stats": {"dualAvgNorm": 0.0, "stats": {"avgDualUpdates": [1.0, 1.0, 1.0], "primalAvg": [-0.30810363535456603, -0.007839144689263059, 0.0027168440784041503, 0.06588566060436384, 0.018587318679767508, 0.03532268581124921, 0.0359159320979644, 0.07404709038845214, 0.01127628843983447, 0.04088664812981284, 0.0913772708204173, -0.006374826380614511, 0.041080590003072424, -0.2638929768186709, -0.055122208964831894, -0.15619371243070745, -0.06232560828082514, -0.1885129452598277, -0.039108905703098336, -0.053507992210128225, 0.008265646701414685, 0.005170396328583501, 0.0248449902013082, -0.09073089409246919, 0.10412354400179383, 0.15486798031815233, 0.14669534119872668, -0.03867641874827635, -4.3391814066264764E-4, 0.01874296885212509, -0.07203906195851717, 0.02244703825664887, -0.05209720768329006, 0.02683870536576764, -0.03557059901798606, -0.19675092847826497, -0.22529736196521996, -0.08146502296040946, 0.022725920361638886, 0.05291806153420653, -0.013778587149587719, 0.03533975682540197, 0.24792659511810033, 0.13833864398231827, -0.007920848976001345, 0.11941070227917872, 0.10428467338297066, 0.04605941321875368, -0.04338798980891337, -0.006048731507267714, -0.019272094701630164, -0.13353612297349113, -0.12478530772449925, -0.09442225342943805], "dualAvg": [0.0, 0.0, 0.0, 0.0, 0.0, 0.0, 0.0, 0.0, 0.0, 0.0, 0.0, 0.0, 0.0, 0.0, 0.0, 0.0, 0.0, 0.0, 0.0, 0.0, 0.0, 0.0, 0.0, 0.0, 0.0, 0.0, 0.0, 0.0, 0.0, 0.0, 0.0, 0.0, 0.0, 0.0, 0.0, 0.0, 0.0, 0.0, 0.0, 0.0, 0.0, 0.0, 0.0, 0.0, 0.0, 0.0, 0.0, 0.0, 0.0, 0.0, 0.0, 0.0, 0.0, 0.0], "avgResidual": [0.003336419990698692, 0.0074484531614720795, 0.02698282862922482], "avgMsgsSent": [0.0, 0.0, 0.0], "avgMsgsRcvd": [0.0, 0.0, 0.0], "avgLocalIters": [0.0, 0.0, 0.0], "avgSGDIters": [26700.0, 49232.03125, 79700.0]}, "dualUpdates": [1.0, 1.0, 1.0], "primalAvgNorm": 0.7690217575469833, "avgSGDIters": [26700.0, 49232.03125, 79700.0], "iterations": 1, "runtime": 5212, "consensusNorm": 0.7689616824155446}, "params": {"format": "bismarck", "algParams": {"usePorkChop": false, "lagrangianRho": 1000.0, "rho0": 1000.0, "maxWorkerIterations": 1000000, "useLBFGS": false, "maxIterations": 1000, "eta0": 1.0, "runtimeMS": 1000, "adaptiveRho": false, "broadcastDelayMS": -1, "regParam": 10.0, "tol": 0.0, "displayIncrementalStats": false, "localTimeout": 10000000, "useLineSearch": false, "workerTol": 0.0, "miniBatchSize": 10}, "wikipediaTargetWordToken": 4690, "dblpSplitYear": 2007, "regType": "L2", "algorithm": "ADMM", "inputTokenHashKernelDimension": 100, "useLR": false, "pointCloudPoints": 10000, "pointCloudDim": 10, "pointCloudSize": 1.0, "pointCloudSkew": 0.0, "input": "/user/root/bismarck_data/forest*", "numPartitions": 128, "pointCloudNoise": 0.2}, "nDim": 54, "algorithm": "ADMM", "pr": 0.7648406529954165, "totalLoss": 372856.8491961967, "nExamples": 581012, "runtimeMS": 5212, "regPenalty": 2.9565103451167247, "trainingError": 0.3100366257495542, "maxW": 0.24790722736596235, "minW": -0.3080795666384224, "iterations": 1, "roc": 0.7853034244832279}\n'
p549
sg30
I1000
sg31
I-1
ssVstats
p550
(dp551
Vstats
p552
(dp553
VavgMsgsRcvd
p554
(lp555
F0.0
aF0.0
aF0.0
asVavgMsgsSent
p556
(lp557
F0.0
aF0.0
aF0.0
asVavgDualUpdates
p558
(lp559
F1.0
aF1.0
aF1.0
asVavgLocalIters
p560
(lp561
F0.0
aF0.0
aF0.0
asVavgResidual
p562
(lp563
F0.0033364199906986921
aF0.0074484531614720795
aF0.026982828629224818
asVprimalAvg
p564
(lp565
F-0.30810363535456603
aF-0.0078391446892630591
aF0.0027168440784041503
aF0.065885660604363835
aF0.018587318679767508
aF0.035322685811249213
aF0.035915932097964398
aF0.074047090388452141
aF0.01127628843983447
aF0.040886648129812839
aF0.0913772708204173
aF-0.0063748263806145114
aF0.041080590003072424
aF-0.26389297681867091
aF-0.055122208964831894
aF-0.15619371243070745
aF-0.062325608280825139
aF-0.1885129452598277
aF-0.039108905703098336
aF-0.053507992210128225
aF0.0082656467014146848
aF0.0051703963285835014
aF0.0248449902013082
aF-0.090730894092469191
aF0.10412354400179383
aF0.15486798031815233
aF0.14669534119872668
aF-0.038676418748276348
aF-0.00043391814066264764
aF0.018742968852125091
aF-0.07203906195851717
aF0.022447038256648871
aF-0.052097207683290063
aF0.026838705365767639
aF-0.035570599017986058
aF-0.19675092847826497
aF-0.22529736196521996
aF-0.081465022960409458
aF0.022725920361638886
aF0.052918061534206529
aF-0.013778587149587719
aF0.035339756825401969
aF0.24792659511810033
aF0.13833864398231827
aF-0.0079208489760013451
aF0.11941070227917872
aF0.10428467338297066
aF0.046059413218753682
aF-0.043387989808913369
aF-0.0060487315072677138
aF-0.019272094701630164
aF-0.13353612297349113
aF-0.12478530772449925
aF-0.094422253429438052
asVdualAvg
p566
(lp567
F0.0
aF0.0
aF0.0
aF0.0
aF0.0
aF0.0
aF0.0
aF0.0
aF0.0
aF0.0
aF0.0
aF0.0
aF0.0
aF0.0
aF0.0
aF0.0
aF0.0
aF0.0
aF0.0
aF0.0
aF0.0
aF0.0
aF0.0
aF0.0
aF0.0
aF0.0
aF0.0
aF0.0
aF0.0
aF0.0
aF0.0
aF0.0
aF0.0
aF0.0
aF0.0
aF0.0
aF0.0
aF0.0
aF0.0
aF0.0
aF0.0
aF0.0
aF0.0
aF0.0
aF0.0
aF0.0
aF0.0
aF0.0
aF0.0
aF0.0
aF0.0
aF0.0
aF0.0
aF0.0
asVavgSGDIters
p568
(lp569
F26700.0
aF49232.03125
aF79700.0
assVconsensusNorm
p570
F0.76896168241554463
sVdualUpdates
p571
(lp572
F1.0
aF1.0
aF1.0
asVdualAvgNorm
p573
F0.0
sVprimalAvgNorm
p574
F0.76902175754698332
sViterations
p575
I1
sVruntime
p576
I5212
sVavgSGDIters
p577
(lp578
F26700.0
aF49232.03125
aF79700.0
assVtotalLoss
p579
F372856.84919619671
sValgorithm
p580
VADMM
p581
sVregPenalty
p582
F2.9565103451167247
sVroc
p583
F0.78530342448322787
sVmaxW
p584
F0.24790722736596235
sVnExamples
p585
I581012
sVruntimeMS
p586
I5212
sVparams
p587
(dp588
VpointCloudDim
p589
I10
sVinput
p590
V/user/root/bismarck_data/forest*
p591
sValgorithm
p592
VADMM
p593
sVformat
p594
Vbismarck
p595
sVpointCloudSize
p596
F1.0
sVwikipediaTargetWordToken
p597
I4690
sVdblpSplitYear
p598
I2007
sVnumPartitions
p599
I128
sValgParams
p600
(dp601
VregParam
p602
F10.0
sVmaxIterations
p603
I1000
sVusePorkChop
p604
I00
sVtol
p605
F0.0
sVworkerTol
p606
F0.0
sVadaptiveRho
p607
I00
sVuseLBFGS
p608
I00
sVrho0
p609
F1000.0
sVdisplayIncrementalStats
p610
I00
sVminiBatchSize
p611
I10
sVlocalTimeout
p612
I10000000
sVmaxWorkerIterations
p613
I1000000
sVruntimeMS
p614
I1000
sVbroadcastDelayMS
p615
I-1
sVeta0
p616
F1.0
sVlagrangianRho
p617
F1000.0
sVuseLineSearch
p618
I00
ssVinputTokenHashKernelDimension
p619
I100
sVpointCloudPoints
p620
I10000
sVregType
p621
VL2
p622
sVuseLR
p623
I00
sVpointCloudNoise
p624
F0.20000000000000001
sVpointCloudSkew
p625
F0.0
ssViterations
p626
I1
sVtrainingLoss
p627
F372853.89268585161
sVminW
p628
F-0.3080795666384224
sVtrainingError
p629
F0.31003662574955421
sa(dp630
VnDim
p631
I54
sVpr
p632
F0.76351773236183662
sg4
(dp633
g6
I0
sg7
I-1
sg8
I-1
sg9
g10
sg11
I10
sg12
I128
sg13
I4690
sg14
I2007
sg15
I10000000
sg16
g546
sg18
I1000000
sg19
g547
sg21
S'cd /mnt/spark; sbin/stop-all.sh; sleep 5; sbin/start-all.sh; sleep 3;./bin/spark-submit --driver-memory 52g --class org.apache.spark.examples.mllib.research.SynchronousADMMTests examples/target/scala-*/spark-examples-*.jar --algorithm ADMM --regType L2 --regParam 10 --format bismarck --numPartitions 128 --runtimeMS 5000 --ADMMmaxLocalIterations 1000000 --ADMMepsilon 0.0 --ADMMLocalepsilon 0 --ADMMrho 1000 --ADMMLagrangianrho 1000 --broadcastDelayMs -1 --dblpSplitYear 2007 --wikipediaTargetWordToken 4690 --inputTokenHashKernelDimension 100 --localTimeout 10000000  --input /user/root/bismarck_data/forest*   '
p634
sg23
I1000
sg24
F0.0
sg25
I100
sg26
g27
sg28
S'RESULT: {"trainingLoss": 373049.8996945135, "stats": {"dualAvgNorm": 0.0, "stats": {"avgDualUpdates": [1.0, 1.0, 1.0], "primalAvg": [-0.3017631139348463, -0.008556718853822138, 0.0019870251724362865, 0.06465684698734064, 0.020844525365272065, 0.03240753836782462, 0.03449476815701392, 0.07136254206242003, 0.01155449420086711, 0.03978323990695767, 0.08993167711421103, -7.234573605514592E-4, 0.03833279991902945, -0.2604788682004541, -0.054048068897159275, -0.1556313330015692, -0.06091187901752138, -0.18678850045938458, -0.03792940313342948, -0.054557025712277975, 0.005652932666230118, 0.003792246641760319, 0.024460077649456746, -0.09065118018842072, 0.10613427305119788, 0.1544902122445574, 0.14760365009665194, -0.038739335247432755, -8.829083849583055E-4, 0.01912026116651376, -0.07268881276666929, 0.022742480440280016, -0.05567464510386169, 0.027343919721806612, -0.033584810994861915, -0.1964669900276778, -0.2264786108832002, -0.08663392933135941, 0.02247590073738501, 0.05394064426675477, -0.013960945231920117, 0.03512474102407302, 0.2525809161673134, 0.1406348352089118, -0.010200823711149255, 0.11985939231089951, 0.09821441208511499, 0.046354112419715016, -0.043724997745456406, -0.003816646711142734, -0.016287623995380873, -0.1325506227861207, -0.12530454162222282, -0.09416183642287232], "dualAvg": [0.0, 0.0, 0.0, 0.0, 0.0, 0.0, 0.0, 0.0, 0.0, 0.0, 0.0, 0.0, 0.0, 0.0, 0.0, 0.0, 0.0, 0.0, 0.0, 0.0, 0.0, 0.0, 0.0, 0.0, 0.0, 0.0, 0.0, 0.0, 0.0, 0.0, 0.0, 0.0, 0.0, 0.0, 0.0, 0.0, 0.0, 0.0, 0.0, 0.0, 0.0, 0.0, 0.0, 0.0, 0.0, 0.0, 0.0, 0.0, 0.0, 0.0, 0.0, 0.0, 0.0, 0.0], "avgResidual": [0.0014667975555073779, 0.0030569928762539614, 0.011731448142774296], "avgMsgsSent": [0.0, 0.0, 0.0], "avgMsgsRcvd": [0.0, 0.0, 0.0], "avgLocalIters": [0.0, 0.0, 0.0], "avgSGDIters": [229200.0, 328212.5, 699300.0]}, "dualUpdates": [1.0, 1.0, 1.0], "primalAvgNorm": 0.7662903112023214, "avgSGDIters": [229200.0, 328212.5, 699300.0], "iterations": 1, "runtime": 20216, "consensusNorm": 0.7662304494484581}, "params": {"format": "bismarck", "algParams": {"usePorkChop": false, "lagrangianRho": 1000.0, "rho0": 1000.0, "maxWorkerIterations": 1000000, "useLBFGS": false, "maxIterations": 1000, "eta0": 1.0, "runtimeMS": 5000, "adaptiveRho": false, "broadcastDelayMS": -1, "regParam": 10.0, "tol": 0.0, "displayIncrementalStats": false, "localTimeout": 10000000, "useLineSearch": false, "workerTol": 0.0, "miniBatchSize": 10}, "wikipediaTargetWordToken": 4690, "dblpSplitYear": 2007, "regType": "L2", "algorithm": "ADMM", "inputTokenHashKernelDimension": 100, "useLR": false, "pointCloudPoints": 10000, "pointCloudDim": 10, "pointCloudSize": 1.0, "pointCloudSkew": 0.0, "input": "/user/root/bismarck_data/forest*", "numPartitions": 128, "pointCloudNoise": 0.2}, "nDim": 54, "algorithm": "ADMM", "pr": 0.7635177323618366, "totalLoss": 373052.83524002176, "nExamples": 581012, "runtimeMS": 20216, "regPenalty": 2.9355455083099304, "trainingError": 0.3109505483535624, "maxW": 0.25256118482474893, "minW": -0.3017395405332421, "iterations": 1, "roc": 0.7843922674042676}\n'
p635
sg30
I1000
sg31
I-1
ssVstats
p636
(dp637
Vstats
p638
(dp639
VavgMsgsRcvd
p640
(lp641
F0.0
aF0.0
aF0.0
asVavgMsgsSent
p642
(lp643
F0.0
aF0.0
aF0.0
asVavgDualUpdates
p644
(lp645
F1.0
aF1.0
aF1.0
asVavgLocalIters
p646
(lp647
F0.0
aF0.0
aF0.0
asVavgResidual
p648
(lp649
F0.0014667975555073779
aF0.0030569928762539614
aF0.011731448142774296
asVprimalAvg
p650
(lp651
F-0.30176311393484628
aF-0.0085567188538221376
aF0.0019870251724362865
aF0.064656846987340644
aF0.020844525365272065
aF0.032407538367824618
aF0.034494768157013918
aF0.071362542062420029
aF0.01155449420086711
aF0.039783239906957667
aF0.089931677114211031
aF-0.00072345736055145918
aF0.03833279991902945
aF-0.26047886820045407
aF-0.054048068897159275
aF-0.1556313330015692
aF-0.060911879017521382
aF-0.18678850045938458
aF-0.037929403133429483
aF-0.054557025712277975
aF0.0056529326662301182
aF0.0037922466417603189
aF0.024460077649456746
aF-0.090651180188420721
aF0.10613427305119788
aF0.15449021224455739
aF0.14760365009665194
aF-0.038739335247432755
aF-0.00088290838495830553
aF0.019120261166513761
aF-0.072688812766669289
aF0.022742480440280016
aF-0.055674645103861692
aF0.027343919721806612
aF-0.033584810994861915
aF-0.19646699002767781
aF-0.2264786108832002
aF-0.086633929331359411
aF0.022475900737385011
aF0.053940644266754767
aF-0.013960945231920117
aF0.035124741024073022
aF0.25258091616731337
aF0.14063483520891179
aF-0.010200823711149255
aF0.11985939231089951
aF0.098214412085114985
aF0.046354112419715016
aF-0.043724997745456406
aF-0.003816646711142734
aF-0.016287623995380873
aF-0.1325506227861207
aF-0.12530454162222282
aF-0.094161836422872319
asVdualAvg
p652
(lp653
F0.0
aF0.0
aF0.0
aF0.0
aF0.0
aF0.0
aF0.0
aF0.0
aF0.0
aF0.0
aF0.0
aF0.0
aF0.0
aF0.0
aF0.0
aF0.0
aF0.0
aF0.0
aF0.0
aF0.0
aF0.0
aF0.0
aF0.0
aF0.0
aF0.0
aF0.0
aF0.0
aF0.0
aF0.0
aF0.0
aF0.0
aF0.0
aF0.0
aF0.0
aF0.0
aF0.0
aF0.0
aF0.0
aF0.0
aF0.0
aF0.0
aF0.0
aF0.0
aF0.0
aF0.0
aF0.0
aF0.0
aF0.0
aF0.0
aF0.0
aF0.0
aF0.0
aF0.0
aF0.0
asVavgSGDIters
p654
(lp655
F229200.0
aF328212.5
aF699300.0
assVconsensusNorm
p656
F0.76623044944845808
sVdualUpdates
p657
(lp658
F1.0
aF1.0
aF1.0
asVdualAvgNorm
p659
F0.0
sVprimalAvgNorm
p660
F0.76629031120232138
sViterations
p661
I1
sVruntime
p662
I20216
sVavgSGDIters
p663
(lp664
F229200.0
aF328212.5
aF699300.0
assVtotalLoss
p665
F373052.83524002176
sValgorithm
p666
VADMM
p667
sVregPenalty
p668
F2.9355455083099304
sVroc
p669
F0.7843922674042676
sVmaxW
p670
F0.25256118482474893
sVnExamples
p671
I581012
sVruntimeMS
p672
I20216
sVparams
p673
(dp674
VpointCloudDim
p675
I10
sVinput
p676
V/user/root/bismarck_data/forest*
p677
sValgorithm
p678
VADMM
p679
sVformat
p680
Vbismarck
p681
sVpointCloudSize
p682
F1.0
sVwikipediaTargetWordToken
p683
I4690
sVdblpSplitYear
p684
I2007
sVnumPartitions
p685
I128
sValgParams
p686
(dp687
VregParam
p688
F10.0
sVmaxIterations
p689
I1000
sVusePorkChop
p690
I00
sVtol
p691
F0.0
sVworkerTol
p692
F0.0
sVadaptiveRho
p693
I00
sVuseLBFGS
p694
I00
sVrho0
p695
F1000.0
sVdisplayIncrementalStats
p696
I00
sVminiBatchSize
p697
I10
sVlocalTimeout
p698
I10000000
sVmaxWorkerIterations
p699
I1000000
sVruntimeMS
p700
I5000
sVbroadcastDelayMS
p701
I-1
sVeta0
p702
F1.0
sVlagrangianRho
p703
F1000.0
sVuseLineSearch
p704
I00
ssVinputTokenHashKernelDimension
p705
I100
sVpointCloudPoints
p706
I10000
sVregType
p707
VL2
p708
sVuseLR
p709
I00
sVpointCloudNoise
p710
F0.20000000000000001
sVpointCloudSkew
p711
F0.0
ssViterations
p712
I1
sVtrainingLoss
p713
F373049.89969451347
sVminW
p714
F-0.30173954053324209
sVtrainingError
p715
F0.31095054835356239
sa(dp716
VnDim
p717
I54
sVpr
p718
F0.76363899338406027
sg4
(dp719
g6
I0
sg7
I-1
sg8
I-1
sg9
g10
sg11
I10
sg12
I128
sg13
I4690
sg14
I2007
sg15
I10000000
sg16
g546
sg18
I1000000
sg19
g547
sg21
S'cd /mnt/spark; sbin/stop-all.sh; sleep 5; sbin/start-all.sh; sleep 3;./bin/spark-submit --driver-memory 52g --class org.apache.spark.examples.mllib.research.SynchronousADMMTests examples/target/scala-*/spark-examples-*.jar --algorithm ADMM --regType L2 --regParam 10 --format bismarck --numPartitions 128 --runtimeMS 10000 --ADMMmaxLocalIterations 1000000 --ADMMepsilon 0.0 --ADMMLocalepsilon 0 --ADMMrho 1000 --ADMMLagrangianrho 1000 --broadcastDelayMs -1 --dblpSplitYear 2007 --wikipediaTargetWordToken 4690 --inputTokenHashKernelDimension 100 --localTimeout 10000000  --input /user/root/bismarck_data/forest*   '
p720
sg23
I1000
sg24
F0.0
sg25
I100
sg26
g27
sg28
S'RESULT: {"trainingLoss": 372980.7631666321, "stats": {"dualAvgNorm": 0.0, "stats": {"avgDualUpdates": [1.0, 1.0, 1.0], "primalAvg": [-0.3019455649430326, -0.008325843321598943, 0.0027057519644919327, 0.0631992448844382, 0.021028600930982164, 0.03299795014618733, 0.03424520055958542, 0.07114501276156127, 0.011555555591050442, 0.04016429876379447, 0.08959870031869037, -0.001232769668955004, 0.0388306580428335, -0.2603509392492901, -0.05422894240173379, -0.15738380715161515, -0.06036892495066786, -0.18694600958927943, -0.03813165282157752, -0.05424493624954256, 0.005342091377589718, 0.0029556630903744587, 0.024254857361102253, -0.09123548066746454, 0.1058977137508851, 0.15532274302533922, 0.148274504848221, -0.039392747344836, -9.921342236621775E-4, 0.021624027687166387, -0.07166114494595455, 0.02285604797909651, -0.055358997609132224, 0.029542648548431007, -0.033427541409928624, -0.19724434214515044, -0.2266786707790793, -0.08442217671657214, 0.023353286602413578, 0.054191543036575876, -0.01743501684596472, 0.034039016306339334, 0.2513250181776387, 0.14101345333355628, -0.012134502035670191, 0.11803602757030192, 0.10090327394507553, 0.04745278477085227, -0.04347609588394337, -0.003420861429780838, -0.014808764675864122, -0.13243461201497517, -0.12499563630712773, -0.09472188505898746], "dualAvg": [0.0, 0.0, 0.0, 0.0, 0.0, 0.0, 0.0, 0.0, 0.0, 0.0, 0.0, 0.0, 0.0, 0.0, 0.0, 0.0, 0.0, 0.0, 0.0, 0.0, 0.0, 0.0, 0.0, 0.0, 0.0, 0.0, 0.0, 0.0, 0.0, 0.0, 0.0, 0.0, 0.0, 0.0, 0.0, 0.0, 0.0, 0.0, 0.0, 0.0, 0.0, 0.0, 0.0, 0.0, 0.0, 0.0, 0.0, 0.0, 0.0, 0.0, 0.0, 0.0, 0.0, 0.0], "avgResidual": [7.610706079546218E-4, 0.0018563712041687662, 0.003917138503374606], "avgMsgsSent": [0.0, 0.0, 0.0], "avgMsgsRcvd": [0.0, 0.0, 0.0], "avgLocalIters": [0.0, 0.0, 0.0], "avgSGDIters": [525800.0, 772720.3125, 1000000.0]}, "dualUpdates": [1.0, 1.0, 1.0], "primalAvgNorm": 0.7667854634079841, "avgSGDIters": [525800.0, 772720.3125, 1000000.0], "iterations": 1, "runtime": 28120, "consensusNorm": 0.7667255629733768}, "params": {"format": "bismarck", "algParams": {"usePorkChop": false, "lagrangianRho": 1000.0, "rho0": 1000.0, "maxWorkerIterations": 1000000, "useLBFGS": false, "maxIterations": 1000, "eta0": 1.0, "runtimeMS": 10000, "adaptiveRho": false, "broadcastDelayMS": -1, "regParam": 10.0, "tol": 0.0, "displayIncrementalStats": false, "localTimeout": 10000000, "useLineSearch": false, "workerTol": 0.0, "miniBatchSize": 10}, "wikipediaTargetWordToken": 4690, "dblpSplitYear": 2007, "regType": "L2", "algorithm": "ADMM", "inputTokenHashKernelDimension": 100, "useLR": false, "pointCloudPoints": 10000, "pointCloudDim": 10, "pointCloudSize": 1.0, "pointCloudSkew": 0.0, "input": "/user/root/bismarck_data/forest*", "numPartitions": 128, "pointCloudNoise": 0.2}, "nDim": 54, "algorithm": "ADMM", "pr": 0.7636389933840603, "totalLoss": 372983.70250707667, "nExamples": 581012, "runtimeMS": 28120, "regPenalty": 2.939340444584208, "trainingError": 0.31137394752604075, "maxW": 0.2513053849444399, "minW": -0.3019219772885569, "iterations": 1, "roc": 0.78446787454313}\n'
p721
sg30
I1000
sg31
I-1
ssVstats
p722
(dp723
Vstats
p724
(dp725
VavgMsgsRcvd
p726
(lp727
F0.0
aF0.0
aF0.0
asVavgMsgsSent
p728
(lp729
F0.0
aF0.0
aF0.0
asVavgDualUpdates
p730
(lp731
F1.0
aF1.0
aF1.0
asVavgLocalIters
p732
(lp733
F0.0
aF0.0
aF0.0
asVavgResidual
p734
(lp735
F0.00076107060795462184
aF0.0018563712041687662
aF0.0039171385033746056
asVprimalAvg
p736
(lp737
F-0.3019455649430326
aF-0.0083258433215989431
aF0.0027057519644919327
aF0.063199244884438205
aF0.021028600930982164
aF0.032997950146187331
aF0.034245200559585423
aF0.071145012761561266
aF0.011555555591050442
aF0.040164298763794473
aF0.089598700318690369
aF-0.0012327696689550039
aF0.038830658042833498
aF-0.26035093924929009
aF-0.054228942401733787
aF-0.15738380715161515
aF-0.060368924950667861
aF-0.18694600958927943
aF-0.038131652821577523
aF-0.054244936249542561
aF0.0053420913775897184
aF0.0029556630903744587
aF0.024254857361102253
aF-0.091235480667464536
aF0.10589771375088509
aF0.15532274302533922
aF0.14827450484822099
aF-0.039392747344835999
aF-0.00099213422366217752
aF0.021624027687166387
aF-0.071661144945954547
aF0.02285604797909651
aF-0.055358997609132224
aF0.029542648548431007
aF-0.033427541409928624
aF-0.19724434214515044
aF-0.2266786707790793
aF-0.084422176716572137
aF0.023353286602413578
aF0.054191543036575876
aF-0.01743501684596472
aF0.034039016306339334
aF0.25132501817763869
aF0.14101345333355628
aF-0.012134502035670191
aF0.11803602757030192
aF0.10090327394507553
aF0.047452784770852269
aF-0.043476095883943369
aF-0.003420861429780838
aF-0.014808764675864122
aF-0.13243461201497517
aF-0.12499563630712773
aF-0.094721885058987459
asVdualAvg
p738
(lp739
F0.0
aF0.0
aF0.0
aF0.0
aF0.0
aF0.0
aF0.0
aF0.0
aF0.0
aF0.0
aF0.0
aF0.0
aF0.0
aF0.0
aF0.0
aF0.0
aF0.0
aF0.0
aF0.0
aF0.0
aF0.0
aF0.0
aF0.0
aF0.0
aF0.0
aF0.0
aF0.0
aF0.0
aF0.0
aF0.0
aF0.0
aF0.0
aF0.0
aF0.0
aF0.0
aF0.0
aF0.0
aF0.0
aF0.0
aF0.0
aF0.0
aF0.0
aF0.0
aF0.0
aF0.0
aF0.0
aF0.0
aF0.0
aF0.0
aF0.0
aF0.0
aF0.0
aF0.0
aF0.0
asVavgSGDIters
p740
(lp741
F525800.0
aF772720.3125
aF1000000.0
assVconsensusNorm
p742
F0.7667255629733768
sVdualUpdates
p743
(lp744
F1.0
aF1.0
aF1.0
asVdualAvgNorm
p745
F0.0
sVprimalAvgNorm
p746
F0.76678546340798415
sViterations
p747
I1
sVruntime
p748
I28120
sVavgSGDIters
p749
(lp750
F525800.0
aF772720.3125
aF1000000.0
assVtotalLoss
p751
F372983.70250707667
sValgorithm
p752
VADMM
p753
sVregPenalty
p754
F2.9393404445842082
sVroc
p755
F0.78446787454313005
sVmaxW
p756
F0.25130538494443988
sVnExamples
p757
I581012
sVruntimeMS
p758
I28120
sVparams
p759
(dp760
VpointCloudDim
p761
I10
sVinput
p762
V/user/root/bismarck_data/forest*
p763
sValgorithm
p764
VADMM
p765
sVformat
p766
Vbismarck
p767
sVpointCloudSize
p768
F1.0
sVwikipediaTargetWordToken
p769
I4690
sVdblpSplitYear
p770
I2007
sVnumPartitions
p771
I128
sValgParams
p772
(dp773
VregParam
p774
F10.0
sVmaxIterations
p775
I1000
sVusePorkChop
p776
I00
sVtol
p777
F0.0
sVworkerTol
p778
F0.0
sVadaptiveRho
p779
I00
sVuseLBFGS
p780
I00
sVrho0
p781
F1000.0
sVdisplayIncrementalStats
p782
I00
sVminiBatchSize
p783
I10
sVlocalTimeout
p784
I10000000
sVmaxWorkerIterations
p785
I1000000
sVruntimeMS
p786
I10000
sVbroadcastDelayMS
p787
I-1
sVeta0
p788
F1.0
sVlagrangianRho
p789
F1000.0
sVuseLineSearch
p790
I00
ssVinputTokenHashKernelDimension
p791
I100
sVpointCloudPoints
p792
I10000
sVregType
p793
VL2
p794
sVuseLR
p795
I00
sVpointCloudNoise
p796
F0.20000000000000001
sVpointCloudSkew
p797
F0.0
ssViterations
p798
I1
sVtrainingLoss
p799
F372980.7631666321
sVminW
p800
F-0.30192197728855691
sVtrainingError
p801
F0.31137394752604075
sa(dp802
VnDim
p803
I54
sVpr
p804
F0.76357999721685121
sg4
(dp805
g6
I0
sg7
I-1
sg8
I-1
sg9
g10
sg11
I10
sg12
I128
sg13
I4690
sg14
I2007
sg15
I10000000
sg16
g546
sg18
I1000000
sg19
g547
sg21
S'cd /mnt/spark; sbin/stop-all.sh; sleep 5; sbin/start-all.sh; sleep 3;./bin/spark-submit --driver-memory 52g --class org.apache.spark.examples.mllib.research.SynchronousADMMTests examples/target/scala-*/spark-examples-*.jar --algorithm ADMM --regType L2 --regParam 10 --format bismarck --numPartitions 128 --runtimeMS 20000 --ADMMmaxLocalIterations 1000000 --ADMMepsilon 0.0 --ADMMLocalepsilon 0 --ADMMrho 1000 --ADMMLagrangianrho 1000 --broadcastDelayMs -1 --dblpSplitYear 2007 --wikipediaTargetWordToken 4690 --inputTokenHashKernelDimension 100 --localTimeout 10000000  --input /user/root/bismarck_data/forest*   '
p806
sg23
I1000
sg24
F0.0
sg25
I100
sg26
g27
sg28
S'RESULT: {"trainingLoss": 372890.34469346737, "stats": {"dualAvgNorm": 0.0, "stats": {"avgDualUpdates": [1.0, 1.0, 1.0], "primalAvg": [-0.3014634098201577, -0.007719418400329002, 0.0024720945020555423, 0.06343661649194324, 0.02104590802426508, 0.034162577615502544, 0.03399757561906804, 0.07144796298920515, 0.011914676066610886, 0.03944854200468394, 0.08981902655885206, -0.00177236827622709, 0.0386388749636491, -0.2599219700230646, -0.05385471810461952, -0.15635921684223408, -0.060817124938119534, -0.18775451364128887, -0.038299842909018555, -0.05424636034819687, 0.0049343932007945394, 0.003504914868307507, 0.02522838921061182, -0.09138687419125671, 0.10613070038023178, 0.1552055294663655, 0.1489564804986651, -0.03923384904686179, -9.215107658623538E-4, 0.022025510347032037, -0.07412142724598064, 0.022678532095669477, -0.05637474853963816, 0.028751670601767518, -0.03354404337588743, -0.1973123773318106, -0.22650313223188728, -0.08613341788383401, 0.023778206393434954, 0.05464761704609509, -0.015177706661888255, 0.034360088791845954, 0.2517720952367108, 0.14085506957448635, -0.011330193770340771, 0.11701423007616397, 0.1030096297360566, 0.047342543337749156, -0.04320356218137876, -0.0036677986881490207, -0.01497355847811063, -0.13307744058465168, -0.12534293619458314, -0.09516098403428866], "dualAvg": [0.0, 0.0, 0.0, 0.0, 0.0, 0.0, 0.0, 0.0, 0.0, 0.0, 0.0, 0.0, 0.0, 0.0, 0.0, 0.0, 0.0, 0.0, 0.0, 0.0, 0.0, 0.0, 0.0, 0.0, 0.0, 0.0, 0.0, 0.0, 0.0, 0.0, 0.0, 0.0, 0.0, 0.0, 0.0, 0.0, 0.0, 0.0, 0.0, 0.0, 0.0, 0.0, 0.0, 0.0, 0.0, 0.0, 0.0, 0.0, 0.0, 0.0, 0.0, 0.0, 0.0, 0.0], "avgResidual": [7.802920636161768E-4, 0.0017521888353562252, 0.007146289924487765], "avgMsgsSent": [0.0, 0.0, 0.0], "avgMsgsRcvd": [0.0, 0.0, 0.0], "avgLocalIters": [0.0, 0.0, 0.0], "avgSGDIters": [1000000.0, 1000000.0, 1000000.0]}, "dualUpdates": [1.0, 1.0, 1.0], "primalAvgNorm": 0.7675932164802239, "avgSGDIters": [1000000.0, 1000000.0, 1000000.0], "iterations": 1, "runtime": 41662, "consensusNorm": 0.7675332529448378}, "params": {"format": "bismarck", "algParams": {"usePorkChop": false, "lagrangianRho": 1000.0, "rho0": 1000.0, "maxWorkerIterations": 1000000, "useLBFGS": false, "maxIterations": 1000, "eta0": 1.0, "runtimeMS": 20000, "adaptiveRho": false, "broadcastDelayMS": -1, "regParam": 10.0, "tol": 0.0, "displayIncrementalStats": false, "localTimeout": 10000000, "useLineSearch": false, "workerTol": 0.0, "miniBatchSize": 10}, "wikipediaTargetWordToken": 4690, "dblpSplitYear": 2007, "regType": "L2", "algorithm": "ADMM", "inputTokenHashKernelDimension": 100, "useLR": false, "pointCloudPoints": 10000, "pointCloudDim": 10, "pointCloudSize": 1.0, "pointCloudSkew": 0.0, "input": "/user/root/bismarck_data/forest*", "numPartitions": 128, "pointCloudNoise": 0.2}, "nDim": 54, "algorithm": "ADMM", "pr": 0.7635799972168512, "totalLoss": 372893.2902299393, "nExamples": 581012, "runtimeMS": 41662, "regPenalty": 2.9455364718804216, "trainingError": 0.3112345356033955, "maxW": 0.2517524270783453, "minW": -0.3014398598311084, "iterations": 1, "roc": 0.7843753787014603}\n'
p807
sg30
I1000
sg31
I-1
ssVstats
p808
(dp809
Vstats
p810
(dp811
VavgMsgsRcvd
p812
(lp813
F0.0
aF0.0
aF0.0
asVavgMsgsSent
p814
(lp815
F0.0
aF0.0
aF0.0
asVavgDualUpdates
p816
(lp817
F1.0
aF1.0
aF1.0
asVavgLocalIters
p818
(lp819
F0.0
aF0.0
aF0.0
asVavgResidual
p820
(lp821
F0.00078029206361617681
aF0.0017521888353562252
aF0.0071462899244877651
asVprimalAvg
p822
(lp823
F-0.30146340982015768
aF-0.0077194184003290022
aF0.0024720945020555423
aF0.063436616491943237
aF0.021045908024265082
aF0.034162577615502544
aF0.033997575619068042
aF0.071447962989205152
aF0.011914676066610886
aF0.039448542004683937
aF0.089819026558852058
aF-0.0017723682762270901
aF0.038638874963649102
aF-0.25992197002306461
aF-0.053854718104619517
aF-0.15635921684223408
aF-0.060817124938119534
aF-0.18775451364128887
aF-0.038299842909018555
aF-0.054246360348196868
aF0.0049343932007945394
aF0.0035049148683075071
aF0.02522838921061182
aF-0.091386874191256712
aF0.10613070038023178
aF0.15520552946636551
aF0.14895648049866511
aF-0.039233849046861793
aF-0.00092151076586235385
aF0.022025510347032037
aF-0.074121427245980642
aF0.022678532095669477
aF-0.056374748539638163
aF0.028751670601767518
aF-0.033544043375887428
aF-0.19731237733181059
aF-0.22650313223188728
aF-0.08613341788383401
aF0.023778206393434954
aF0.054647617046095089
aF-0.015177706661888255
aF0.034360088791845954
aF0.25177209523671079
aF0.14085506957448635
aF-0.011330193770340771
aF0.11701423007616397
aF0.1030096297360566
aF0.047342543337749156
aF-0.04320356218137876
aF-0.0036677986881490207
aF-0.014973558478110631
aF-0.13307744058465168
aF-0.12534293619458314
aF-0.095160984034288659
asVdualAvg
p824
(lp825
F0.0
aF0.0
aF0.0
aF0.0
aF0.0
aF0.0
aF0.0
aF0.0
aF0.0
aF0.0
aF0.0
aF0.0
aF0.0
aF0.0
aF0.0
aF0.0
aF0.0
aF0.0
aF0.0
aF0.0
aF0.0
aF0.0
aF0.0
aF0.0
aF0.0
aF0.0
aF0.0
aF0.0
aF0.0
aF0.0
aF0.0
aF0.0
aF0.0
aF0.0
aF0.0
aF0.0
aF0.0
aF0.0
aF0.0
aF0.0
aF0.0
aF0.0
aF0.0
aF0.0
aF0.0
aF0.0
aF0.0
aF0.0
aF0.0
aF0.0
aF0.0
aF0.0
aF0.0
aF0.0
asVavgSGDIters
p826
(lp827
F1000000.0
aF1000000.0
aF1000000.0
assVconsensusNorm
p828
F0.76753325294483776
sVdualUpdates
p829
(lp830
F1.0
aF1.0
aF1.0
asVdualAvgNorm
p831
F0.0
sVprimalAvgNorm
p832
F0.76759321648022394
sViterations
p833
I1
sVruntime
p834
I41662
sVavgSGDIters
p835
(lp836
F1000000.0
aF1000000.0
aF1000000.0
assVtotalLoss
p837
F372893.29022993927
sValgorithm
p838
VADMM
p839
sVregPenalty
p840
F2.9455364718804216
sVroc
p841
F0.78437537870146035
sVmaxW
p842
F0.25175242707834528
sVnExamples
p843
I581012
sVruntimeMS
p844
I41662
sVparams
p845
(dp846
VpointCloudDim
p847
I10
sVinput
p848
V/user/root/bismarck_data/forest*
p849
sValgorithm
p850
VADMM
p851
sVformat
p852
Vbismarck
p853
sVpointCloudSize
p854
F1.0
sVwikipediaTargetWordToken
p855
I4690
sVdblpSplitYear
p856
I2007
sVnumPartitions
p857
I128
sValgParams
p858
(dp859
VregParam
p860
F10.0
sVmaxIterations
p861
I1000
sVusePorkChop
p862
I00
sVtol
p863
F0.0
sVworkerTol
p864
F0.0
sVadaptiveRho
p865
I00
sVuseLBFGS
p866
I00
sVrho0
p867
F1000.0
sVdisplayIncrementalStats
p868
I00
sVminiBatchSize
p869
I10
sVlocalTimeout
p870
I10000000
sVmaxWorkerIterations
p871
I1000000
sVruntimeMS
p872
I20000
sVbroadcastDelayMS
p873
I-1
sVeta0
p874
F1.0
sVlagrangianRho
p875
F1000.0
sVuseLineSearch
p876
I00
ssVinputTokenHashKernelDimension
p877
I100
sVpointCloudPoints
p878
I10000
sVregType
p879
VL2
p880
sVuseLR
p881
I00
sVpointCloudNoise
p882
F0.20000000000000001
sVpointCloudSkew
p883
F0.0
ssViterations
p884
I1
sVtrainingLoss
p885
F372890.34469346737
sVminW
p886
F-0.30143985983110838
sVtrainingError
p887
F0.31123453560339548
sa(dp888
VnDim
p889
I54
sVpr
p890
F0.76357999721685132
sg4
(dp891
g6
I0
sg7
I-1
sg8
I-1
sg9
g10
sg11
I10
sg12
I128
sg13
I4690
sg14
I2007
sg15
I10000000
sg16
g546
sg18
I1000000
sg19
g547
sg21
S'cd /mnt/spark; sbin/stop-all.sh; sleep 5; sbin/start-all.sh; sleep 3;./bin/spark-submit --driver-memory 52g --class org.apache.spark.examples.mllib.research.SynchronousADMMTests examples/target/scala-*/spark-examples-*.jar --algorithm ADMM --regType L2 --regParam 10 --format bismarck --numPartitions 128 --runtimeMS 40000 --ADMMmaxLocalIterations 1000000 --ADMMepsilon 0.0 --ADMMLocalepsilon 0 --ADMMrho 1000 --ADMMLagrangianrho 1000 --broadcastDelayMs -1 --dblpSplitYear 2007 --wikipediaTargetWordToken 4690 --inputTokenHashKernelDimension 100 --localTimeout 10000000  --input /user/root/bismarck_data/forest*   '
p892
sg23
I1000
sg24
F0.0
sg25
I100
sg26
g27
sg28
S'RESULT: {"trainingLoss": 372890.34469346737, "stats": {"dualAvgNorm": 0.0, "stats": {"avgDualUpdates": [1.0, 1.0, 1.0], "primalAvg": [-0.3014634098201577, -0.007719418400329003, 0.0024720945020555414, 0.06343661649194325, 0.021045908024265075, 0.03416257761550255, 0.03399757561906806, 0.07144796298920517, 0.011914676066610884, 0.03944854200468393, 0.08981902655885204, -0.0017723682762270903, 0.038638874963649095, -0.2599219700230648, -0.05385471810461952, -0.15635921684223397, -0.06081712493811952, -0.18775451364128884, -0.03829984290901855, -0.05424636034819686, 0.004934393200794542, 0.0035049148683075075, 0.025228389210611827, -0.09138687419125667, 0.10613070038023177, 0.1552055294663655, 0.14895648049866514, -0.03923384904686179, -9.21510765862354E-4, 0.02202551034703203, -0.07412142724598067, 0.022678532095669484, -0.05637474853963818, 0.028751670601767514, -0.033544043375887435, -0.19731237733181065, -0.22650313223188728, -0.08613341788383405, 0.02377820639343496, 0.05464761704609508, -0.015177706661888257, 0.03436008879184597, 0.25177209523671074, 0.14085506957448635, -0.011330193770340773, 0.11701423007616399, 0.10300962973605657, 0.047342543337749156, -0.04320356218137875, -0.0036677986881490203, -0.014973558478110636, -0.1330774405846517, -0.12534293619458317, -0.09516098403428866], "dualAvg": [0.0, 0.0, 0.0, 0.0, 0.0, 0.0, 0.0, 0.0, 0.0, 0.0, 0.0, 0.0, 0.0, 0.0, 0.0, 0.0, 0.0, 0.0, 0.0, 0.0, 0.0, 0.0, 0.0, 0.0, 0.0, 0.0, 0.0, 0.0, 0.0, 0.0, 0.0, 0.0, 0.0, 0.0, 0.0, 0.0, 0.0, 0.0, 0.0, 0.0, 0.0, 0.0, 0.0, 0.0, 0.0, 0.0, 0.0, 0.0, 0.0, 0.0, 0.0, 0.0, 0.0, 0.0], "avgResidual": [7.802920636161768E-4, 0.0017521888353562256, 0.007146289924487765], "avgMsgsSent": [0.0, 0.0, 0.0], "avgMsgsRcvd": [0.0, 0.0, 0.0], "avgLocalIters": [0.0, 0.0, 0.0], "avgSGDIters": [1000000.0, 1000000.0, 1000000.0]}, "dualUpdates": [1.0, 1.0, 1.0], "primalAvgNorm": 0.7675932164802239, "avgSGDIters": [1000000.0, 1000000.0, 1000000.0], "iterations": 1, "runtime": 40617, "consensusNorm": 0.7675332529448378}, "params": {"format": "bismarck", "algParams": {"usePorkChop": false, "lagrangianRho": 1000.0, "rho0": 1000.0, "maxWorkerIterations": 1000000, "useLBFGS": false, "maxIterations": 1000, "eta0": 1.0, "runtimeMS": 40000, "adaptiveRho": false, "broadcastDelayMS": -1, "regParam": 10.0, "tol": 0.0, "displayIncrementalStats": false, "localTimeout": 10000000, "useLineSearch": false, "workerTol": 0.0, "miniBatchSize": 10}, "wikipediaTargetWordToken": 4690, "dblpSplitYear": 2007, "regType": "L2", "algorithm": "ADMM", "inputTokenHashKernelDimension": 100, "useLR": false, "pointCloudPoints": 10000, "pointCloudDim": 10, "pointCloudSize": 1.0, "pointCloudSkew": 0.0, "input": "/user/root/bismarck_data/forest*", "numPartitions": 128, "pointCloudNoise": 0.2}, "nDim": 54, "algorithm": "ADMM", "pr": 0.7635799972168513, "totalLoss": 372893.2902299393, "nExamples": 581012, "runtimeMS": 40617, "regPenalty": 2.9455364718804216, "trainingError": 0.3112345356033955, "maxW": 0.2517524270783452, "minW": -0.3014398598311084, "iterations": 1, "roc": 0.7843753787014601}\n'
p893
sg30
I1000
sg31
I-1
ssVstats
p894
(dp895
Vstats
p896
(dp897
VavgMsgsRcvd
p898
(lp899
F0.0
aF0.0
aF0.0
asVavgMsgsSent
p900
(lp901
F0.0
aF0.0
aF0.0
asVavgDualUpdates
p902
(lp903
F1.0
aF1.0
aF1.0
asVavgLocalIters
p904
(lp905
F0.0
aF0.0
aF0.0
asVavgResidual
p906
(lp907
F0.00078029206361617681
aF0.0017521888353562256
aF0.0071462899244877651
asVprimalAvg
p908
(lp909
F-0.30146340982015768
aF-0.007719418400329003
aF0.0024720945020555414
aF0.063436616491943251
aF0.021045908024265075
aF0.034162577615502551
aF0.033997575619068063
aF0.071447962989205166
aF0.011914676066610884
aF0.03944854200468393
aF0.089819026558852044
aF-0.0017723682762270903
aF0.038638874963649095
aF-0.25992197002306477
aF-0.053854718104619517
aF-0.15635921684223397
aF-0.06081712493811952
aF-0.18775451364128884
aF-0.038299842909018549
aF-0.054246360348196861
aF0.004934393200794542
aF0.0035049148683075075
aF0.025228389210611827
aF-0.09138687419125667
aF0.10613070038023177
aF0.15520552946636551
aF0.14895648049866514
aF-0.039233849046861793
aF-0.00092151076586235395
aF0.02202551034703203
aF-0.07412142724598067
aF0.022678532095669484
aF-0.056374748539638177
aF0.028751670601767514
aF-0.033544043375887435
aF-0.19731237733181065
aF-0.22650313223188728
aF-0.086133417883834051
aF0.023778206393434961
aF0.054647617046095082
aF-0.015177706661888257
aF0.034360088791845968
aF0.25177209523671074
aF0.14085506957448635
aF-0.011330193770340773
aF0.11701423007616399
aF0.10300962973605657
aF0.047342543337749156
aF-0.043203562181378753
aF-0.0036677986881490203
aF-0.014973558478110636
aF-0.13307744058465171
aF-0.12534293619458317
aF-0.095160984034288659
asVdualAvg
p910
(lp911
F0.0
aF0.0
aF0.0
aF0.0
aF0.0
aF0.0
aF0.0
aF0.0
aF0.0
aF0.0
aF0.0
aF0.0
aF0.0
aF0.0
aF0.0
aF0.0
aF0.0
aF0.0
aF0.0
aF0.0
aF0.0
aF0.0
aF0.0
aF0.0
aF0.0
aF0.0
aF0.0
aF0.0
aF0.0
aF0.0
aF0.0
aF0.0
aF0.0
aF0.0
aF0.0
aF0.0
aF0.0
aF0.0
aF0.0
aF0.0
aF0.0
aF0.0
aF0.0
aF0.0
aF0.0
aF0.0
aF0.0
aF0.0
aF0.0
aF0.0
aF0.0
aF0.0
aF0.0
aF0.0
asVavgSGDIters
p912
(lp913
F1000000.0
aF1000000.0
aF1000000.0
assVconsensusNorm
p914
F0.76753325294483776
sVdualUpdates
p915
(lp916
F1.0
aF1.0
aF1.0
asVdualAvgNorm
p917
F0.0
sVprimalAvgNorm
p918
F0.76759321648022394
sViterations
p919
I1
sVruntime
p920
I40617
sVavgSGDIters
p921
(lp922
F1000000.0
aF1000000.0
aF1000000.0
assVtotalLoss
p923
F372893.29022993927
sValgorithm
p924
VADMM
p925
sVregPenalty
p926
F2.9455364718804216
sVroc
p927
F0.78437537870146012
sVmaxW
p928
F0.25175242707834522
sVnExamples
p929
I581012
sVruntimeMS
p930
I40617
sVparams
p931
(dp932
VpointCloudDim
p933
I10
sVinput
p934
V/user/root/bismarck_data/forest*
p935
sValgorithm
p936
VADMM
p937
sVformat
p938
Vbismarck
p939
sVpointCloudSize
p940
F1.0
sVwikipediaTargetWordToken
p941
I4690
sVdblpSplitYear
p942
I2007
sVnumPartitions
p943
I128
sValgParams
p944
(dp945
VregParam
p946
F10.0
sVmaxIterations
p947
I1000
sVusePorkChop
p948
I00
sVtol
p949
F0.0
sVworkerTol
p950
F0.0
sVadaptiveRho
p951
I00
sVuseLBFGS
p952
I00
sVrho0
p953
F1000.0
sVdisplayIncrementalStats
p954
I00
sVminiBatchSize
p955
I10
sVlocalTimeout
p956
I10000000
sVmaxWorkerIterations
p957
I1000000
sVruntimeMS
p958
I40000
sVbroadcastDelayMS
p959
I-1
sVeta0
p960
F1.0
sVlagrangianRho
p961
F1000.0
sVuseLineSearch
p962
I00
ssVinputTokenHashKernelDimension
p963
I100
sVpointCloudPoints
p964
I10000
sVregType
p965
VL2
p966
sVuseLR
p967
I00
sVpointCloudNoise
p968
F0.20000000000000001
sVpointCloudSkew
p969
F0.0
ssViterations
p970
I1
sVtrainingLoss
p971
F372890.34469346737
sVminW
p972
F-0.30143985983110838
sVtrainingError
p973
F0.31123453560339548
sa(dp974
VnDim
p975
I54
sVpr
p976
F0.78218453659456655
sg4
(dp977
g6
I0
sg7
I-1
sg8
I-1
sg9
g10
sg11
I10
sg12
I128
sg13
I4690
sg14
I2007
sg15
I10000000
sg16
g546
sg18
I1000000
sg19
g547
sg21
S'cd /mnt/spark; sbin/stop-all.sh; sleep 5; sbin/start-all.sh; sleep 3;./bin/spark-submit --driver-memory 52g --class org.apache.spark.examples.mllib.research.SynchronousADMMTests examples/target/scala-*/spark-examples-*.jar --algorithm ADMM --regType L2 --regParam 10 --format bismarck --numPartitions 128 --runtimeMS 80000 --ADMMmaxLocalIterations 1000000 --ADMMepsilon 0.0 --ADMMLocalepsilon 0 --ADMMrho 1000 --ADMMLagrangianrho 1000 --broadcastDelayMs -1 --dblpSplitYear 2007 --wikipediaTargetWordToken 4690 --inputTokenHashKernelDimension 100 --localTimeout 10000000  --input /user/root/bismarck_data/forest*   '
p978
sg23
I1000
sg24
F0.0
sg25
I100
sg26
g27
sg28
S'RESULT: {"trainingLoss": 354074.0400838067, "stats": {"dualAvgNorm": 0.0, "stats": {"avgDualUpdates": [3.0, 3.0, 3.0], "primalAvg": [-0.608185440529571, -0.008685132426208192, 0.006488769590600654, 0.10909048819478323, 0.021907210841886487, 0.07227771701372064, 0.06169110030368521, 0.1317379864291684, 0.022803408400835966, 0.006493789952525563, 0.10832779886757665, 0.04808454625302145, 0.10230071609286942, -0.4720929899030304, -0.08311078419205364, -0.24128002216064223, -0.10249450084979907, -0.28291468066663483, -0.058211482040514524, -0.048904008830590505, 0.008204549879400258, 0.003156796615525286, 0.013014612912955886, -0.0651623585882352, 0.07826169604396975, 0.15513402740344323, 0.13551571292366194, -0.07143656195516648, -0.0017925353074086997, 0.02148792518802815, -0.12456558496069693, 0.007271058503564794, -0.06433802206146422, 0.0335516308757234, -0.045989040252034534, -0.19502819506065083, -0.22565546077611132, -0.09373175673692122, 0.03552355168419586, 0.048289609978931114, -0.019988183346280382, 0.03406880379095219, 0.27039546168589357, 0.13912760690740736, -0.014902742335329205, 0.202748157703759, 0.15797254235740008, 0.05319789765054153, -0.059754080171209145, -0.004362317149279987, -0.022677538998198632, -0.1433782553081319, -0.15164006288035928, -0.10586208113011869], "dualAvg": [0.0, 0.0, 0.0, 0.0, 0.0, 0.0, 0.0, 0.0, 0.0, 0.0, 0.0, 0.0, 0.0, 0.0, 0.0, 0.0, 0.0, 0.0, 0.0, 0.0, 0.0, 0.0, 0.0, 0.0, 0.0, 0.0, 0.0, 0.0, 0.0, 0.0, 0.0, 0.0, 0.0, 0.0, 0.0, 0.0, 0.0, 0.0, 0.0, 0.0, 0.0, 0.0, 0.0, 0.0, 0.0, 0.0, 0.0, 0.0, 0.0, 0.0, 0.0, 0.0, 0.0, 0.0], "avgResidual": [6.096302377491742E-4, 0.0015620532014529232, 0.0058454657845176915], "avgMsgsSent": [0.0, 0.0, 0.0], "avgMsgsRcvd": [0.0, 0.0, 0.0], "avgLocalIters": [0.0, 0.0, 0.0], "avgSGDIters": [1000000.0, 1000000.0, 1000000.0]}, "dualUpdates": [3.0, 3.0, 3.0], "primalAvgNorm": 1.105928551395119, "avgSGDIters": [1000000.0, 1000000.0, 1000000.0], "iterations": 3, "runtime": 89426, "consensusNorm": 1.1058421574765662}, "params": {"format": "bismarck", "algParams": {"usePorkChop": false, "lagrangianRho": 1000.0, "rho0": 1000.0, "maxWorkerIterations": 1000000, "useLBFGS": false, "maxIterations": 1000, "eta0": 1.0, "runtimeMS": 80000, "adaptiveRho": false, "broadcastDelayMS": -1, "regParam": 10.0, "tol": 0.0, "displayIncrementalStats": false, "localTimeout": 10000000, "useLineSearch": false, "workerTol": 0.0, "miniBatchSize": 10}, "wikipediaTargetWordToken": 4690, "dblpSplitYear": 2007, "regType": "L2", "algorithm": "ADMM", "inputTokenHashKernelDimension": 100, "useLR": false, "pointCloudPoints": 10000, "pointCloudDim": 10, "pointCloudSize": 1.0, "pointCloudSkew": 0.0, "input": "/user/root/bismarck_data/forest*", "numPartitions": 128, "pointCloudNoise": 0.2}, "nDim": 54, "algorithm": "ADMM", "pr": 0.7821845365945665, "totalLoss": 354080.154518193, "nExamples": 581012, "runtimeMS": 89426, "regPenalty": 6.114434386262133, "trainingError": 0.29900243024240464, "maxW": 0.27037433869068334, "minW": -0.608137929753809, "iterations": 3, "roc": 0.8043134429266375}\n'
p979
sg30
I1000
sg31
I-1
ssVstats
p980
(dp981
Vstats
p982
(dp983
VavgMsgsRcvd
p984
(lp985
F0.0
aF0.0
aF0.0
asVavgMsgsSent
p986
(lp987
F0.0
aF0.0
aF0.0
asVavgDualUpdates
p988
(lp989
F3.0
aF3.0
aF3.0
asVavgLocalIters
p990
(lp991
F0.0
aF0.0
aF0.0
asVavgResidual
p992
(lp993
F0.00060963023774917419
aF0.0015620532014529232
aF0.0058454657845176915
asVprimalAvg
p994
(lp995
F-0.60818544052957102
aF-0.0086851324262081919
aF0.0064887695906006536
aF0.10909048819478323
aF0.021907210841886487
aF0.072277717013720641
aF0.061691100303685208
aF0.1317379864291684
aF0.022803408400835966
aF0.0064937899525255626
aF0.10832779886757665
aF0.04808454625302145
aF0.10230071609286942
aF-0.47209298990303039
aF-0.083110784192053644
aF-0.24128002216064223
aF-0.10249450084979907
aF-0.28291468066663483
aF-0.058211482040514524
aF-0.048904008830590505
aF0.0082045498794002577
aF0.003156796615525286
aF0.013014612912955886
aF-0.0651623585882352
aF0.07826169604396975
aF0.15513402740344323
aF0.13551571292366194
aF-0.071436561955166483
aF-0.0017925353074086997
aF0.02148792518802815
aF-0.12456558496069693
aF0.0072710585035647944
aF-0.064338022061464217
aF0.033551630875723402
aF-0.045989040252034534
aF-0.19502819506065083
aF-0.22565546077611132
aF-0.093731756736921218
aF0.03552355168419586
aF0.048289609978931114
aF-0.019988183346280382
aF0.034068803790952187
aF0.27039546168589357
aF0.13912760690740736
aF-0.014902742335329205
aF0.20274815770375901
aF0.15797254235740008
aF0.053197897650541531
aF-0.059754080171209145
aF-0.0043623171492799869
aF-0.022677538998198632
aF-0.14337825530813189
aF-0.15164006288035928
aF-0.10586208113011869
asVdualAvg
p996
(lp997
F0.0
aF0.0
aF0.0
aF0.0
aF0.0
aF0.0
aF0.0
aF0.0
aF0.0
aF0.0
aF0.0
aF0.0
aF0.0
aF0.0
aF0.0
aF0.0
aF0.0
aF0.0
aF0.0
aF0.0
aF0.0
aF0.0
aF0.0
aF0.0
aF0.0
aF0.0
aF0.0
aF0.0
aF0.0
aF0.0
aF0.0
aF0.0
aF0.0
aF0.0
aF0.0
aF0.0
aF0.0
aF0.0
aF0.0
aF0.0
aF0.0
aF0.0
aF0.0
aF0.0
aF0.0
aF0.0
aF0.0
aF0.0
aF0.0
aF0.0
aF0.0
aF0.0
aF0.0
aF0.0
asVavgSGDIters
p998
(lp999
F1000000.0
aF1000000.0
aF1000000.0
assVconsensusNorm
p1000
F1.1058421574765662
sVdualUpdates
p1001
(lp1002
F3.0
aF3.0
aF3.0
asVdualAvgNorm
p1003
F0.0
sVprimalAvgNorm
p1004
F1.1059285513951189
sViterations
p1005
I3
sVruntime
p1006
I89426
sVavgSGDIters
p1007
(lp1008
F1000000.0
aF1000000.0
aF1000000.0
assVtotalLoss
p1009
F354080.15451819298
sValgorithm
p1010
VADMM
p1011
sVregPenalty
p1012
F6.1144343862621326
sVroc
p1013
F0.80431344292663753
sVmaxW
p1014
F0.27037433869068334
sVnExamples
p1015
I581012
sVruntimeMS
p1016
I89426
sVparams
p1017
(dp1018
VpointCloudDim
p1019
I10
sVinput
p1020
V/user/root/bismarck_data/forest*
p1021
sValgorithm
p1022
VADMM
p1023
sVformat
p1024
Vbismarck
p1025
sVpointCloudSize
p1026
F1.0
sVwikipediaTargetWordToken
p1027
I4690
sVdblpSplitYear
p1028
I2007
sVnumPartitions
p1029
I128
sValgParams
p1030
(dp1031
VregParam
p1032
F10.0
sVmaxIterations
p1033
I1000
sVusePorkChop
p1034
I00
sVtol
p1035
F0.0
sVworkerTol
p1036
F0.0
sVadaptiveRho
p1037
I00
sVuseLBFGS
p1038
I00
sVrho0
p1039
F1000.0
sVdisplayIncrementalStats
p1040
I00
sVminiBatchSize
p1041
I10
sVlocalTimeout
p1042
I10000000
sVmaxWorkerIterations
p1043
I1000000
sVruntimeMS
p1044
I80000
sVbroadcastDelayMS
p1045
I-1
sVeta0
p1046
F1.0
sVlagrangianRho
p1047
F1000.0
sVuseLineSearch
p1048
I00
ssVinputTokenHashKernelDimension
p1049
I100
sVpointCloudPoints
p1050
I10000
sVregType
p1051
VL2
p1052
sVuseLR
p1053
I00
sVpointCloudNoise
p1054
F0.20000000000000001
sVpointCloudSkew
p1055
F0.0
ssViterations
p1056
I3
sVtrainingLoss
p1057
F354074.04008380673
sVminW
p1058
F-0.60813792975380898
sVtrainingError
p1059
F0.29900243024240464
sa.