(lp0
(dp1
S'training_loss'
p2
F240610210.16684988
sS'line'
p3
(lp4
S'RESULT:'
p5
aS'SVM'
p6
aS'1'
p7
aS'44025'
p8
aS'0.300014825'
p9
aS'2.4061021016684988E8'
p10
aS'0.003598195861445377'
p11
aS'2.4061021017044806E8'
p12
aS'-1.9994826992590795,-1.9992592423853628,-1.9991739931566723,-1.999428940658534,-1.9996104838820696,-1.999664003493515,-1.9996097100038488,-1.9996771098724468,-1.9995828339847925,1.665E-4'
p13
asS'reg_penalty'
p14
F0.0035981958614453771
sS'iterations'
p15
I1
sS'algorithm'
p16
S'SVM'
p17
sS'training_error'
p18
F0.30001482499999998
sS'total_loss'
p19
g12
sS'model'
p20
g13
sS'runtime_ms'
p21
I44025
sa(dp22
g2
F190613416.75536919
sg3
(lp23
S'RESULT:'
p24
aS'SVM'
p25
aS'3'
p26
aS'6031'
p27
aS'0.2882514'
p28
aS'1.906134167553692E8'
p29
aS'0.002298175611259168'
p30
aS'1.9061341675766736E8'
p31
aS'-1.5936400252973593,-1.593286162004648,-1.5930811518677082,-1.593564319508018,-1.5938657413286643,-1.5939004959543426,-1.5938686126130153,-1.59383209288565,-1.593690788923524,0.35306794503560557'
p32
asg14
F0.0022981756112591678
sg15
I3
sg16
g17
sg18
F0.28825139999999999
sg19
g31
sg20
g32
sg21
I6031
sa(dp33
g2
F153900247.78466266
sg3
(lp34
S'RESULT:'
p35
aS'SVM'
p36
aS'5'
p37
aS'7361'
p38
aS'0.2752101'
p39
aS'1.5390024778466266E8'
p40
aS'0.0015443795610665964'
p41
aS'1.5390024778620705E8'
p42
aS'-1.2943319005801057,-1.2938570013895856,-1.2935753164579045,-1.294241124361705,-1.294589699054321,-1.2946435916304426,-1.294602314155573,-1.2945116147254931,-1.2943397737768243,0.605724338061009'
p43
asg14
F0.0015443795610665964
sg15
I5
sg16
g17
sg18
F0.27521010000000001
sg19
g42
sg20
g43
sg21
I7361
sa(dp44
g2
F123600121.88008775
sg3
(lp45
S'RESULT:'
p46
aS'SVM'
p47
aS'7'
p48
aS'8813'
p49
aS'0.259304425'
p50
aS'1.2360012188008775E8'
p51
aS'0.0010499472723188518'
p52
aS'1.236001218811377E8'
p53
aS'-1.0460035533135854,-1.0454212862272283,-1.0450977015817329,-1.0459030858031684,-1.0462499659590945,-1.0463390056602984,-1.0462882897445691,-1.0461682625572155,-1.0459617768320908,0.8084637219658886'
p54
asg14
F0.0010499472723188518
sg15
I7
sg16
g17
sg18
F0.25930442500000001
sg19
g53
sg20
g54
sg21
I8813
sa(dp55
g2
F97345659.589472219
sg3
(lp56
S'RESULT:'
p57
aS'SVM'
p58
aS'9'
p59
aS'9013'
p60
aS'0.238821'
p61
aS'9.734565958947222E7'
p62
aS'7.145268442988057E-4'
p63
aS'9.734565959018674E7'
p64
aS'-0.8293071303600696,-0.828645071514219,-0.8282909346730952,-0.8291912349302862,-0.829542602113061,-0.8296457641166004,-0.8296230727491083,-0.8294638960959787,-0.829217826416572,0.9782134078930893'
p65
asg14
F0.00071452684429880572
sg15
I9
sg16
g17
sg18
F0.23882100000000001
sg19
g64
sg20
g65
sg21
I9013
sa(dp66
g2
F74031557.010478154
sg3
(lp67
S'RESULT:'
p68
aS'SVM'
p69
aS'11'
p70
aS'10678'
p71
aS'0.2111009'
p72
aS'7.403155701047815E7'
p73
aS'4.886816830192402E-4'
p74
aS'7.403155701096684E7'
p75
aS'-0.6349479178647897,-0.6342322898322027,-0.6338579375314507,-0.6348026635712081,-0.6351664488549555,-0.6352784682577315,-0.6352991302540438,-0.6351013070885168,-0.6348122736179316,1.1223620805208483'
p76
asg14
F0.00048868168301924016
sg15
I11
sg16
g17
sg18
F0.21110090000000001
sg19
g75
sg20
g76
sg21
I10678
sa(dp77
g2
F53096810.722592369
sg3
(lp78
S'RESULT:'
p79
aS'SVM'
p80
aS'13'
p81
aS'12143'
p82
aS'0.173010775'
p83
aS'5.309681072259237E7'
p84
aS'3.43241828690782E-4'
p85
aS'5.309681072293561E7'
p86
aS'-0.45781062817807805,-0.45705335301253047,-0.45667022218565434,-0.45762781579395884,-0.4580211917292057,-0.45812516246458185,-0.45819779550141354,-0.45793987701637917,-0.45762856846083033,1.2438725435203122'
p87
asg14
F0.000343241828690782
sg15
I13
sg16
g17
sg18
F0.17301077500000001
sg19
g86
sg20
g87
sg21
I12143
sa(dp88
g2
F34294959.469546258
sg3
(lp89
S'RESULT:'
p90
aS'SVM'
p91
aS'15'
p92
aS'13444'
p93
aS'0.1258416'
p94
aS'3.429495946954626E7'
p95
aS'2.584566670234632E-4'
p96
aS'3.429495946980471E7'
p97
aS'-0.29499735865938453,-0.29422772533779595,-0.2938402906715921,-0.2947820353312079,-0.29520107453336464,-0.29529072055813343,-0.2954026619002568,-0.29508189139929153,-0.29478723792033457,1.3424451029749984'
p98
asg14
F0.00025845666702346322
sg15
I15
sg16
g17
sg18
F0.1258416
sg19
g97
sg20
g98
sg21
I13444
sa(dp99
g2
F17821486.15785348
sg3
(lp100
S'RESULT:'
p101
aS'SVM'
p102
aS'17'
p103
aS'14824'
p104
aS'0.10025325'
p105
aS'1.782148615785348E7'
p106
aS'2.1849712635323506E-4'
p107
aS'1.7821486158071976E7'
p108
aS'-0.1456032346045036,-0.1448415151776531,-0.14445931815985524,-0.14535205149817604,-0.14578804817040472,-0.1458512324071239,-0.1460003239862679,-0.1456052740833529,-0.14538416384899316,1.4123087130939511'
p109
asg14
F0.00021849712635323506
sg15
I17
sg16
g17
sg18
F0.10025325
sg19
g108
sg20
g109
sg21
I14824
sa(dp110
g2
F35152187.721169487
sg3
(lp111
S'RESULT:'
p112
aS'SVM'
p113
aS'19'
p114
aS'16329'
p115
aS'0.49991675'
p116
aS'3.515218772116949E7'
p117
aS'2.0586919912465052E-4'
p118
aS'3.515218772137535E7'
p119
aS'-0.017743350950000958,-0.017033842644862247,-0.01665410956800057,-0.017489335506896173,-0.017937848356143954,-0.017961446022862954,-0.018134496209252664,-0.017683555174769085,-0.01750492126006016,1.4338449729432958'
p120
asg14
F0.00020586919912465052
sg15
I19
sg16
g17
sg18
F0.49991675000000002
sg19
g119
sg20
g120
sg21
I16329
sa(dp121
g2
F45384158.537647381
sg3
(lp122
S'RESULT:'
p123
aS'SVM'
p124
aS'21'
p125
aS'17795'
p126
aS'0.14975915'
p127
aS'4.538415853764738E7'
p128
aS'3.3052106753199065E-4'
p129
aS'4.5384158537977904E7'
p130
aS'-0.3971841154707825,-0.3964480468385253,-0.3960819940554008,-0.3969352951447397,-0.3974160170000018,-0.39742431452833593,-0.3976053587317069,-0.3971455512354051,-0.3969463108848296,1.3735280357965725'
p131
asg14
F0.00033052106753199065
sg15
I21
sg16
g17
sg18
F0.14975915000000001
sg19
g130
sg20
g131
sg21
I17795
sa(dp132
g2
F30741923.100912195
sg3
(lp133
S'RESULT:'
p134
aS'SVM'
p135
aS'23'
p136
aS'19413'
p137
aS'0.11451995'
p138
aS'3.0741923100912195E7'
p139
aS'2.723618593404871E-4'
p140
aS'3.0741923101184558E7'
p141
aS'-0.26780216801828965,-0.267057874662718,-0.26668832609296367,-0.2675355394172329,-0.2680214622643338,-0.26802573722243034,-0.26823690986726867,-0.2677183296813468,-0.2675444118753093,1.441875618570657'
p142
asg14
F0.00027236185934048711
sg15
I23
sg16
g17
sg18
F0.11451995
sg19
g141
sg20
g142
sg21
I19413
sa(dp143
g2
F17774841.162114676
sg3
(lp144
S'RESULT:'
p145
aS'SVM'
p146
aS'25'
p147
aS'20711'
p148
aS'0.1001603'
p149
aS'1.7774841162114676E7'
p150
aS'2.4109265579348726E-4'
p151
aS'1.777484116235577E7'
p152
aS'-0.14720802226944663,-0.14648108564781326,-0.14610311143209842,-0.14691740762941344,-0.14742412273038283,-0.14740614788830575,-0.14763484912930355,-0.14707401581418894,-0.14694407637753623,1.4887534997579208'
p153
asg14
F0.00024109265579348726
sg15
I25
sg16
g17
sg18
F0.10016029999999999
sg19
g152
sg20
g153
sg21
I20711
sa(dp154
g2
F19354803.640951492
sg3
(lp155
S'RESULT:'
p156
aS'SVM'
p157
aS'27'
p158
aS'22119'
p159
aS'0.10088215'
p160
aS'1.9354803640951492E7'
p161
aS'2.2758482425938063E-4'
p162
aS'1.9354803641179077E7'
p163
aS'-0.04144251635956334,-0.04075277774326619,-0.040375129607582244,-0.0411577756338512,-0.04167002786574868,-0.04162734320541308,-0.04187320651043414,-0.041265733420375345,-0.04116844761902124,1.5035044275856408'
p164
asg14
F0.00022758482425938063
sg15
I27
sg16
g17
sg18
F0.10088215
sg19
g163
sg20
g164
sg21
I22119
sa(dp165
g2
F41015782.96455235
sg3
(lp166
S'RESULT:'
p167
aS'SVM'
p168
aS'29'
p169
aS'23641'
p170
aS'0.13639045'
p171
aS'4.101578296455235E7'
p172
aS'3.280371507644214E-4'
p173
aS'4.1015782964880385E7'
p174
aS'-0.362130665380919,-0.3614190623008133,-0.3610538107925125,-0.36185024368530955,-0.36238125442920505,-0.3623338679869128,-0.36258102802085895,-0.3619626720067841,-0.36185587779784556,1.4495813318133721'
p175
asg14
F0.00032803715076442139
sg15
I29
sg16
g17
sg18
F0.13639045
sg19
g174
sg20
g175
sg21
I23641
sa(dp176
g2
F28736790.127817996
sg3
(lp177
S'RESULT:'
p178
aS'SVM'
p179
aS'31'
p180
aS'25233'
p181
aS'0.109378225'
p182
aS'2.8736790127817996E7'
p183
aS'2.8263940062214847E-4'
p184
aS'2.8736790128100634E7'
p185
aS'-0.25198036396832446,-0.25125793073892744,-0.2508920782424141,-0.25167985725372094,-0.2522206376525856,-0.25215880982156247,-0.2524355369735055,-0.2517646553695998,-0.25169119736949275,1.5019396968195322'
p186
asg14
F0.00028263940062214847
sg15
I31
sg16
g17
sg18
F0.109378225
sg19
g185
sg20
g186
sg21
I25233
sa(dp187
g2
F17807070.699190982
sg3
(lp188
S'RESULT:'
p189
aS'SVM'
p190
aS'33'
p191
aS'26720'
p192
aS'0.100124925'
p193
aS'1.780707069919098E7'
p194
aS'2.5606210304575166E-4'
p195
aS'1.7807070699447043E7'
p196
aS'-0.14860772468978214,-0.14790614333259622,-0.14751872721416157,-0.14828250416954325,-0.1488397129795176,-0.14876265283383758,-0.1490516757989922,-0.14836002501206225,-0.14830564676904784,1.5370119779888523'
p197
asg14
F0.00025606210304575166
sg15
I33
sg16
g17
sg18
F0.100124925
sg19
g196
sg20
g197
sg21
I26720
sa(dp198
g2
F10426940.971862068
sg3
(lp199
S'RESULT:'
p200
aS'SVM'
p201
aS'35'
p202
aS'28221'
p203
aS'0.100014325'
p204
aS'1.0426940971862068E7'
p205
aS'2.426189427574936E-4'
p206
aS'1.0426940972104687E7'
p207
aS'-0.056477661917333784,-0.05580598767694807,-0.05541708691365188,-0.056158711826094804,-0.05671937637553682,-0.05662475832050106,-0.056924505017744244,-0.05619998086490063,-0.05617196723337051,1.5484453366676667'
p208
asg14
F0.0002426189427574936
sg15
I35
sg16
g17
sg18
F0.100014325
sg19
g207
sg20
g208
sg21
I28221
sa(dp209
g2
F18811880.672544468
sg3
(lp210
S'RESULT:'
p211
aS'SVM'
p212
aS'37'
p213
aS'29511'
p214
aS'0.1002754'
p215
aS'1.881188067254447E7'
p216
aS'2.5453933176380417E-4'
p217
aS'1.8811880672799006E7'
p218
aS'-0.15820248583067698,-0.15762847723115345,-0.1573343618333139,-0.15791450960975958,-0.15842539302120362,-0.1583195828955611,-0.15858337218796054,-0.15796699453262078,-0.15795259212449075,1.5233556664104642'
p219
asg14
F0.00025453933176380417
sg15
I37
sg16
g17
sg18
F0.1002754
sg19
g218
sg20
g219
sg21
I29511
sa(dp220
g2
F10253671.543308632
sg3
(lp221
S'RESULT:'
p222
aS'SVM'
p223
aS'39'
p224
aS'30540'
p225
aS'0.100014325'
p226
aS'1.0253671543308632E7'
p227
aS'2.4064359850922866E-4'
p228
aS'1.0253671543549277E7'
p229
aS'-0.06954154738430973,-0.0689897820046072,-0.06868694266134275,-0.06925717075656491,-0.06976928872733021,-0.06964979252935995,-0.06992111241921387,-0.06927500462300501,-0.06928080583121246,1.5372440440386463'
p230
asg14
F0.00024064359850922866
sg15
I39
sg16
g17
sg18
F0.100014325
sg19
g229
sg20
g230
sg21
I30540
sa(dp231
g2
F38768361.220463812
sg3
(lp232
S'RESULT:'
p233
aS'SVM'
p234
aS'41'
p235
aS'32448'
p236
aS'0.130680525'
p237
aS'3.876836122046381E7'
p238
aS'3.20787350513086E-4'
p239
aS'3.87683612207846E7'
p240
aS'-0.3426060219755543,-0.34204159315509747,-0.3417546779081708,-0.34232924206242565,-0.342865382014544,-0.3427288918056241,-0.3430040132482421,-0.3423501894502331,-0.34234785406594215,1.4671194142191903'
p241
asg14
F0.00032078735051308601
sg15
I41
sg16
g17
sg18
F0.13068052499999999
sg19
g240
sg20
g241
sg21
I32448
sa(dp242
g2
F28450831.002640329
sg3
(lp243
S'RESULT:'
p244
aS'SVM'
p245
aS'43'
p246
aS'33997'
p247
aS'0.108752825'
p248
aS'2.845083100264033E7'
p249
aS'2.8389915099622063E-4'
p250
aS'2.845083100292423E7'
p251
aS'-0.2496184408918676,-0.24903563631236908,-0.24874443399126805,-0.24931906187838074,-0.24986605077423574,-0.24972382446784236,-0.2500162596402207,-0.24932390342139021,-0.2493498745321519,1.5096319674180647'
p252
asg14
F0.00028389915099622063
sg15
I43
sg16
g17
sg18
F0.108752825
sg19
g251
sg20
g252
sg21
I33997
sa(dp253
g2
F19083886.601338439
sg3
(lp254
S'RESULT:'
p255
aS'SVM'
p256
aS'45'
p257
aS'34979'
p258
aS'0.10030195'
p259
aS'1.908388660133844E7'
p260
aS'2.603730926376252E-4'
p261
aS'1.908388660159881E7'
p262
aS'-0.16127835153653886,-0.16070221749650854,-0.16038962148426078,-0.16095650633307895,-0.1615211802869328,-0.16137086622076632,-0.16166866998053922,-0.16096052557446536,-0.16099442984931012,1.539535412112266'
p263
asg14
F0.00026037309263762521
sg15
I45
sg16
g17
sg18
F0.10030195
sg19
g262
sg20
g263
sg21
I34979
sa(dp264
g2
F11242256.873172441
sg3
(lp265
S'RESULT:'
p266
aS'SVM'
p267
aS'47'
p268
aS'36301'
p269
aS'0.100014325'
p270
aS'1.1242256873172441E7'
p271
aS'2.4679754147286653E-4'
p272
aS'1.1242256873419238E7'
p273
aS'-0.08045167236700188,-0.07989605672066664,-0.07957751369138552,-0.08013240330979199,-0.08069888069589551,-0.08053879975861336,-0.08083966019448216,-0.0801097786454282,-0.08015964025943503,1.5524138551569844'
p274
asg14
F0.00024679754147286653
sg15
I47
sg16
g17
sg18
F0.100014325
sg19
g273
sg20
g274
sg21
I36301
sa(dp275
g2
F37191398.118659206
sg3
(lp276
S'RESULT:'
p277
aS'SVM'
p278
aS'49'
p279
aS'39477'
p280
aS'0.126354025'
p281
aS'3.7191398118659206E7'
p282
aS'3.191781323125054E-4'
p283
aS'3.719139811897838E7'
p284
aS'-0.3293497602947651,-0.32878451592399655,-0.32847852853712034,-0.329039411010254,-0.32962665033433375,-0.3294478348699709,-0.3297550740608583,-0.329017231937223,-0.32906088560762836,1.4888197688676208'
p285
asg14
F0.00031917813231250539
sg15
I49
sg16
g17
sg18
F0.12635402500000001
sg19
g284
sg20
g285
sg21
I39477
sa(dp286
g2
F27816421.606795724
sg3
(lp287
S'RESULT:'
p288
aS'SVM'
p289
aS'51'
p290
aS'38496'
p291
aS'0.107462675'
p292
aS'2.7816421606795724E7'
p293
aS'2.8653994266565554E-4'
p294
aS'2.7816421607082263E7'
p295
aS'-0.24436689610246493,-0.24379086632291214,-0.24347964106230502,-0.24404106444605633,-0.24463711045840908,-0.24445206236405725,-0.24477465184398461,-0.24400586494148813,-0.24407556091601224,1.5260345294718594'
p296
asg14
F0.00028653994266565554
sg15
I51
sg16
g17
sg18
F0.10746267499999999
sg19
g295
sg20
g296
sg21
I38496
sa(dp297
g2
F19263204.83037049
sg3
(lp298
S'RESULT:'
p299
aS'SVM'
p300
aS'53'
p301
aS'38457'
p302
aS'0.1003157'
p303
aS'1.926320483037049E7'
p304
aS'2.649332037129121E-4'
p305
aS'1.926320483063542E7'
p306
aS'-0.16334968611337974,-0.16278134897921406,-0.16245443202636678,-0.16300751770873306,-0.1636178487562856,-0.16342548310602661,-0.16375530090616514,-0.16297183761625525,-0.16304747132062983,1.5523367775681616'
p307
asg14
F0.00026493320371291212
sg15
I53
sg16
g17
sg18
F0.10031569999999999
sg19
g306
sg20
g307
sg21
I38457
sa(dp308
g2
F11989798.234044846
sg3
(lp309
S'RESULT:'
p310
aS'SVM'
p311
aS'55'
p312
aS'39780'
p313
aS'0.100014325'
p314
aS'1.1989798234044846E7'
p315
aS'2.517506659464288E-4'
p316
aS'1.1989798234296598E7'
p317
aS'-0.08862053625891253,-0.0880704155065522,-0.0877386333042985,-0.08828132869156795,-0.08889194122372204,-0.08869275354998721,-0.08902532709940728,-0.08822411165681102,-0.08831301225970176,1.5643300893789476'
p318
asg14
F0.00025175066594642877
sg15
I55
sg16
g17
sg18
F0.100014325
sg19
g317
sg20
g318
sg21
I39780
sa(dp319
g2
F28366589.001507048
sg3
(lp320
S'RESULT:'
p321
aS'SVM'
p322
aS'57'
p323
aS'40909'
p324
aS'0.108432375'
p325
aS'2.8366589001507048E7'
p326
aS'2.864151626429567E-4'
p327
aS'2.8366589001793463E7'
p328
aS'-0.2491915625917737,-0.24868626722375906,-0.24841157871983177,-0.2488927255211674,-0.24945795278153748,-0.24925769223950447,-0.24957468988286852,-0.24884052799129275,-0.24892571073389522,1.518559389614218'
p329
asg14
F0.00028641516264295671
sg15
I57
sg16
g17
sg18
F0.108432375
sg19
g328
sg20
g329
sg21
I40909
sa(dp330
g2
F20181267.733344223
sg3
(lp331
S'RESULT:'
p332
aS'SVM'
p333
aS'59'
p334
aS'42459'
p335
aS'0.10056685'
p336
aS'2.0181267733344223E7'
p337
aS'2.6519120033372293E-4'
p338
aS'2.0181267733609416E7'
p339
aS'-0.17214453348181458,-0.1716458614363548,-0.17135031737710146,-0.17182859445477594,-0.17241146928752538,-0.1722062425320941,-0.1725290740476158,-0.1717791450817384,-0.17186928997198384,1.5445827431454333'
p340
asg14
F0.00026519120033372293
sg15
I59
sg16
g17
sg18
F0.10056685
sg19
g339
sg20
g340
sg21
I42459
sa(dp341
g2
F13086989.044702441
sg3
(lp342
S'RESULT:'
p343
aS'SVM'
p344
aS'61'
p345
aS'43580'
p346
aS'0.10001435'
p347
aS'1.308698904470244E7'
p348
aS'2.517692772961636E-4'
p349
aS'1.308698904495421E7'
p350
aS'-0.10035554233184887,-0.09987298616678475,-0.09956753526794065,-0.10004211192457202,-0.10062847545843874,-0.10041549120856186,-0.10073989969737543,-0.09997521976152096,-0.10007155956053901,1.557997932137061'
p351
asg14
F0.00025176927729616362
sg15
I61
sg16
g17
sg18
F0.10001435
sg19
g350
sg20
g351
sg21
I43580
sa(dp352
g2
F22660090.98461194
sg3
(lp353
S'RESULT:'
p354
aS'SVM'
p355
aS'63'
p356
aS'44861'
p357
aS'0.1357521'
p358
aS'2.266009098461194E7'
p359
aS'2.444421735044281E-4'
p360
aS'2.2660090984856382E7'
p361
aS'-0.03823143963841204,-0.037753987210063414,-0.03745428557192326,-0.03791834804210016,-0.03851257564684499,-0.03828855404271874,-0.038623519490299255,-0.03783500138539552,-0.03793999734826585,1.5592889934361684'
p362
asg14
F0.0002444421735044281
sg15
I63
sg16
g17
sg18
F0.13575209999999999
sg19
g361
sg20
g362
sg21
I44861
sa(dp363
g2
F28543766.124743041
sg3
(lp364
S'RESULT:'
p365
aS'SVM'
p366
aS'65'
p367
aS'46171'
p368
aS'0.108710275'
p369
aS'2.854376612474304E7'
p370
aS'2.871960183196707E-4'
p371
aS'2.854376612503024E7'
p372
aS'-0.25085497441045174,-0.25036067758983777,-0.250068184144304,-0.2505395022653444,-0.25114978532468396,-0.25091864984994633,-0.25125426090766634,-0.25046467142089013,-0.2505685497965886,1.518672156950883'
p373
asg14
F0.00028719601831967068
sg15
I65
sg16
g17
sg18
F0.108710275
sg19
g372
sg20
g373
sg21
I46171
sa(dp374
g2
F20836537.434229333
sg3
(lp375
S'RESULT:'
p376
aS'SVM'
p377
aS'67'
p378
aS'47704'
p379
aS'0.100801075'
p380
aS'2.0836537434229333E7'
p381
aS'2.668353438549059E-4'
p382
aS'2.0836537434496168E7'
p383
aS'-0.17849942760807716,-0.17801139441120994,-0.17769921431539615,-0.17816770614791538,-0.17879267265527715,-0.17856017143108374,-0.17889698039558344,-0.17809654419732684,-0.17820482862450773,1.5434223562779605'
p384
asg14
F0.00026683534385490591
sg15
I67
sg16
g17
sg18
F0.100801075
sg19
g383
sg20
g384
sg21
I47704
sa(dp385
g2
F14049725.164518362
sg3
(lp386
S'RESULT:'
p387
aS'SVM'
p388
aS'69'
p389
aS'49023'
p390
aS'0.1000148'
p391
aS'1.4049725164518362E7'
p392
aS'2.534731420908679E-4'
p393
aS'1.4049725164771834E7'
p394
aS'-0.11053313258190696,-0.1100588628830689,-0.10973396906830146,-0.11020057632509919,-0.11082682625331344,-0.11058970910604585,-0.11092516135800252,-0.11011500575997843,-0.11022874206331901,1.5572804604666128'
p395
asg14
F0.00025347314209086792
sg15
I69
sg16
g17
sg18
F0.1000148
sg19
g394
sg20
g395
sg21
I49023
sa(dp396
g2
F15096752.754052939
sg3
(lp397
S'RESULT:'
p398
aS'SVM'
p399
aS'71'
p400
aS'50234'
p401
aS'0.100017575'
p402
aS'1.5096752754052939E7'
p403
aS'2.4555403714262463E-4'
p404
aS'1.5096752754298493E7'
p405
aS'-0.04877219113649414,-0.048307966761402005,-0.047981077492532366,-0.04844399211368097,-0.04907629413875869,-0.04882899832689125,-0.04917161168667616,-0.04833938044763771,-0.04846568951823525,1.560218818337258'
p406
asg14
F0.00024555403714262463
sg15
I71
sg16
g17
sg18
F0.100017575
sg19
g405
sg20
g406
sg21
I50234
sa(dp407
g2
F28181535.28269805
sg3
(lp408
S'RESULT:'
p409
aS'SVM'
p410
aS'73'
p411
aS'51378'
p412
aS'0.1080844'
p413
aS'2.818153528269805E7'
p414
aS'2.8672703020515806E-4'
p415
aS'2.818153528298478E7'
p416
aS'-0.24760526360211182,-0.24712706345015417,-0.2468086672760058,-0.24727574760990628,-0.24791997942323465,-0.24766740785950409,-0.24800989544137328,-0.2471812972864365,-0.24730697215476918,1.5219259623403323'
p417
asg14
F0.00028672703020515806
sg15
I73
sg16
g17
sg18
F0.1080844
sg19
g416
sg20
g417
sg21
I51378
sa(dp418
g2
F20917423.830734398
sg3
(lp419
S'RESULT:'
p420
aS'SVM'
p421
aS'75'
p422
aS'52730'
p423
aS'0.100827825'
p424
aS'2.09174238307344E7'
p425
aS'2.6757916385394424E-4'
p426
aS'2.091742383100198E7'
p427
aS'-0.17932889188401735,-0.17885685335905194,-0.1785211523504523,-0.17898537599204845,-0.17964325364439238,-0.17938929757957997,-0.17973427836442488,-0.1788954265520271,-0.179023987184444,1.5449684965435948'
p428
asg14
F0.00026757916385394424
sg15
I75
sg16
g17
sg18
F0.100827825
sg19
g427
sg20
g428
sg21
I52730
sa(dp429
g2
F14468528.096429732
sg3
(lp430
S'RESULT:'
p431
aS'SVM'
p432
aS'77'
p433
aS'54287'
p434
aS'0.100015625'
p435
aS'1.4468528096429732E7'
p436
aS'2.546790947830076E-4'
p437
aS'1.4468528096684411E7'
p438
aS'-0.11492626178624155,-0.11446545446070186,-0.1141192550853494,-0.11458236862338478,-0.11524011665791448,-0.1149819872561526,-0.1153262905275681,-0.1144796461723134,-0.11461265833896629,1.5582956370116758'
p439
asg14
F0.00025467909478300762
sg15
I77
sg16
g17
sg18
F0.100015625
sg19
g438
sg20
g439
sg21
I54287
sa(dp440
g2
F10709933.920816692
sg3
(lp441
S'RESULT:'
p442
aS'SVM'
p443
aS'79'
p444
aS'55525'
p445
aS'0.100014325'
p446
aS'1.0709933920816692E7'
p447
aS'2.466792596925626E-4'
p448
aS'1.0709933921063371E7'
p449
aS'-0.05603907615439131,-0.05558974263967875,-0.05524135235095694,-0.05570135573654986,-0.056361575568838904,-0.05609223051546902,-0.056444227649901625,-0.05558136163162917,-0.05572606620951403,1.5616350895027882'
p450
asg14
F0.00024667925969256262
sg15
I79
sg16
g17
sg18
F0.100014325
sg19
g449
sg20
g450
sg21
I55525
sa(dp451
g2
F17326322.661676034
sg3
(lp452
S'RESULT:'
p453
aS'SVM'
p454
aS'81'
p455
aS'56800'
p456
aS'0.10008505'
p457
aS'1.7326322661676034E7'
p458
aS'2.5531836200887403E-4'
p459
aS'1.7326322661931355E7'
p460
aS'-0.14379018913167874,-0.14337957820003067,-0.14308916868710053,-0.14348952650576374,-0.14409492583416522,-0.14384359388921203,-0.14415813711265751,-0.14338762857537052,-0.14351736027233095,1.538666111722445'
p461
asg14
F0.00025531836200887403
sg15
I81
sg16
g17
sg18
F0.10008504999999999
sg19
g460
sg20
g461
sg21
I56800
sa(dp462
g2
F11559507.031389896
sg3
(lp463
S'RESULT:'
p464
aS'SVM'
p465
aS'83'
p466
aS'58219'
p467
aS'0.100014325'
p468
aS'1.1559507031389896E7'
p469
aS'2.45497205869351E-4'
p470
aS'1.1559507031635392E7'
p471
aS'-0.08385580926858419,-0.08345712242569035,-0.08316221682097226,-0.08356105746386037,-0.08416433616696581,-0.08390907971801313,-0.0842244462212418,-0.08344193428937224,-0.08358314930301668,1.5465800788522397'
p472
asg14
F0.00024549720586935098
sg15
I83
sg16
g17
sg18
F0.100014325
sg19
g471
sg20
g472
sg21
I58219
sa(dp473
g2
F19569587.951985013
sg3
(lp474
S'RESULT:'
p475
aS'SVM'
p476
aS'85'
p477
aS'59282'
p478
aS'0.10045445'
p479
aS'1.9569587951985013E7'
p480
aS'2.552483880919146E-4'
p481
aS'1.9569587952240262E7'
p482
aS'-0.16546389642005846,-0.16509430733255503,-0.1648617247748277,-0.16520329156526667,-0.16575841223178928,-0.1655163427186196,-0.16580678883713829,-0.16509747255231516,-0.1652311527500807,1.518702084777648'
p483
asg14
F0.00025524838809191458
sg15
I85
sg16
g17
sg18
F0.10045445
sg19
g482
sg20
g483
sg21
I59282
sa(dp484
g2
F13566165.512338188
sg3
(lp485
S'RESULT:'
p486
aS'SVM'
p487
aS'87'
p488
aS'60619'
p489
aS'0.100014575'
p490
aS'1.3566165512338188E7'
p491
aS'2.4417841542089804E-4'
p492
aS'1.3566165512582365E7'
p493
aS'-0.10517673572233041,-0.10481610023690392,-0.10457246955215214,-0.10491481933854645,-0.10547272262618645,-0.1052282371899942,-0.10551957607982468,-0.1047987393938749,-0.10493449922085199,1.5305120678832267'
p494
asg14
F0.00024417841542089804
sg15
I87
sg16
g17
sg18
F0.10001457499999999
sg19
g493
sg20
g494
sg21
I60619
sa(dp495
g2
F13715525.590330152
sg3
(lp496
S'RESULT:'
p497
aS'SVM'
p498
aS'89'
p499
aS'61909'
p500
aS'0.100014775'
p501
aS'1.3715525590330152E7'
p502
aS'2.3731070585463152E-4'
p503
aS'1.3715525590567462E7'
p504
aS'-0.05000082961894048,-0.04964833741784803,-0.0494009697720274,-0.049742192042366455,-0.05030662178366435,-0.05005232412113796,-0.05035126944143435,-0.049609603185023374,-0.04975703647766094,1.5332055177323716'
p505
asg14
F0.00023731070585463152
sg15
I89
sg16
g17
sg18
F0.100014775
sg19
g504
sg20
g505
sg21
I61909
sa(dp506
g2
F25561136.315157041
sg3
(lp507
S'RESULT:'
p508
aS'SVM'
p509
aS'91'
p510
aS'63237'
p511
aS'0.1048943'
p512
aS'2.556113631515704E7'
p513
aS'2.6914300032282397E-4'
p514
aS'2.5561136315426186E7'
p515
aS'-0.22208953806313123,-0.2217307136744714,-0.22148610528650117,-0.22182779785451626,-0.2224002452690054,-0.22214236089339262,-0.22243860625856307,-0.22171008410684032,-0.2218555827451527,1.4993381113162827'
p516
asg14
F0.00026914300032282397
sg15
I91
sg16
g17
sg18
F0.1048943
sg19
g515
sg20
g516
sg21
I63237
sa(dp517
g2
F19130317.802138939
sg3
(lp518
S'RESULT:'
p519
aS'SVM'
p520
aS'93'
p521
aS'64609'
p522
aS'0.100346925'
p523
aS'1.913031780213894E7'
p524
aS'2.5397931051841766E-4'
p525
aS'1.913031780239292E7'
p526
aS'-0.1611765116994553,-0.1608171868335988,-0.1605568202857566,-0.1609023090512935,-0.16148328179044116,-0.16122361503990945,-0.16152582522258307,-0.16078529604184033,-0.16093220695543825,1.5186748963699224'
p527
asg14
F0.00025397931051841766
sg15
I93
sg16
g17
sg18
F0.100346925
sg19
g526
sg20
g527
sg21
I64609
sa(dp528
g2
F13425298.318419468
sg3
(lp529
S'RESULT:'
p530
aS'SVM'
p531
aS'95'
p532
aS'65984'
p533
aS'0.1000145'
p534
aS'1.3425298318419468E7'
p535
aS'2.435805748182509E-4'
p536
aS'1.3425298318663048E7'
p537
aS'-0.1036924012623113,-0.10334062873384657,-0.10307243275876618,-0.10341796477728823,-0.10400068702522479,-0.10373887905694137,-0.10404272862507682,-0.1032912123741528,-0.10343988739615806,1.5294716324779152'
p538
asg14
F0.00024358057481825091
sg15
I95
sg16
g17
sg18
F0.10001450000000001
sg19
g537
sg20
g538
sg21
I65984
sa(dp539
g2
F13076649.606663153
sg3
(lp540
S'RESULT:'
p541
aS'SVM'
p542
aS'97'
p543
aS'67235'
p544
aS'0.1000145'
p545
aS'1.3076649606663153E7'
p546
aS'2.3700964632484777E-4'
p547
aS'1.3076649606900163E7'
p548
aS'-0.050907002460744394,-0.05056257759154695,-0.0502926315334888,-0.05063617883272432,-0.05122497614058752,-0.05095372905680186,-0.05126566411022307,-0.050493893192829306,-0.05065334774059879,1.5319566412969188'
p549
asg14
F0.00023700964632484777
sg15
I97
sg16
g17
sg18
F0.10001450000000001
sg19
g548
sg20
g549
sg21
I67235
sa(dp550
g2
F24213899.266727004
sg3
(lp551
S'RESULT:'
p552
aS'SVM'
p553
aS'99'
p554
aS'68307'
p555
aS'0.103402825'
p556
aS'2.4213899266727004E7'
p557
aS'2.644478110457712E-4'
p558
aS'2.421389926699145E7'
p559
aS'-0.20941777647073023,-0.2090714144795136,-0.20880822597399545,-0.20914490529827318,-0.20973308442680047,-0.2094624450168641,-0.20976819957298246,-0.20902088887663478,-0.20916939727285688,1.5000874086154747'
p560
asg14
F0.00026444781104577119
sg15
I99
sg16
g17
sg18
F0.103402825
sg19
g559
sg20
g560
sg21
I68307
sa(dp561
g2
F40000000.0
sg3
(lp562
S'RESULT:'
p563
aS'SVMADMM'
p564
ag7
aS'6324'
p565
aS'1.0'
p566
aS'4.0E7'
p567
aS'0.0'
p568
aS'4.0E7'
p569
aS'0.0,0.0,0.0,0.0,0.0,0.0,0.0,0.0,0.0,0.0'
p570
asg14
F0.0
sg15
I1
sg16
S'SVMADMM'
p571
sg18
F1.0
sg19
g569
sg20
g570
sg21
I6324
sa(dp572
g2
F12226793.505925629
sg3
(lp573
S'RESULT:'
p574
aS'SVMADMM'
p575
ag26
aS'8057'
p576
aS'0.100014325'
p577
aS'1.222679350592563E7'
p578
aS'6.015430847724302E-5'
p579
aS'1.2226793505985783E7'
p580
aS'-0.04317381209015423,-0.042633433606156776,-0.04194491123468413,-0.04097541389118147,-0.04112082164145469,-0.042509705503196826,-0.04609391128031601,-0.04426128648456621,-0.03958955066985047,0.7650320890288723'
p581
asg14
F6.0154308477243017e-05
sg15
I3
sg16
g571
sg18
F0.100014325
sg19
g580
sg20
g581
sg21
I8057
sa(dp582
g2
F9246015.6671571508
sg3
(lp583
S'RESULT:'
p584
aS'SVMADMM'
p585
ag37
aS'7531'
p586
aS'0.100014325'
p587
aS'9246015.66715715'
p588
aS'1.7206750535943234E-4'
p589
aS'9246015.667329218'
p590
aS'-0.05414648047869997,-0.05399418582150089,-0.053941326722140956,-0.05432807458716131,-0.05434192412474844,-0.05399755893055288,-0.053753964729482635,-0.053752401316588976,-0.054600863155495144,1.3016673111858774'
p591
asg14
F0.00017206750535943234
sg15
I5
sg16
g571
sg18
F0.100014325
sg19
g590
sg20
g591
sg21
I7531
sa(dp592
g2
F9150499.0536224321
sg3
(lp593
S'RESULT:'
p594
aS'SVMADMM'
p595
ag48
aS'8638'
p596
aS'0.100014325'
p597
aS'9150499.053622432'
p598
aS'1.616908344376748E-4'
p599
aS'9150499.053784123'
p600
aS'-0.05402276647681697,-0.05399861202284579,-0.054032736144949675,-0.05399152458915307,-0.054191832256068204,-0.05409785279305729,-0.05403792316724215,-0.053930025395330934,-0.054130042144611396,1.2611968423183346'
p601
asg14
F0.00016169083443767481
sg15
I7
sg16
g571
sg18
F0.100014325
sg19
g600
sg20
g601
sg21
I8638
sa(dp602
g2
F9095716.7696589828
sg3
(lp603
S'RESULT:'
p604
aS'SVMADMM'
p605
ag59
aS'12459'
p606
aS'0.100014325'
p607
aS'9095716.769658983'
p608
aS'1.4861741488787878E-4'
p609
aS'9095716.7698076'
p610
aS'-0.05248077720681532,-0.05249009820509212,-0.05253279076834868,-0.05250712650820249,-0.05260565471339273,-0.0524947387754441,-0.05248848185809786,-0.052396253795956534,-0.05246929898821348,1.2088720056606725'
p611
asg14
F0.00014861741488787878
sg15
I9
sg16
g571
sg18
F0.100014325
sg19
g610
sg20
g611
sg21
I12459
sa(dp612
g2
F9083502.2316886354
sg3
(lp613
S'RESULT:'
p614
aS'SVMADMM'
p615
aS'11'
p616
aS'13492'
p617
aS'0.100014325'
p618
aS'9083502.231688635'
p619
aS'1.4210473481359088E-4'
p620
aS'9083502.23183074'
p621
aS'-0.05182656190303093,-0.05164495933222521,-0.051699137871497075,-0.051648952028597206,-0.05180692030811658,-0.05172967490587065,-0.05179174235005767,-0.051655251813531616,-0.05163068119355475,1.1819380041172722'
p622
asg14
F0.00014210473481359088
sg15
I11
sg16
g571
sg18
F0.100014325
sg19
g621
sg20
g622
sg21
I13492
sa(dp623
g2
F9082517.8926384673
sg3
(lp624
S'RESULT:'
p625
aS'SVMADMM'
p626
aS'13'
p627
aS'14830'
p628
aS'0.100014325'
p629
aS'9082517.892638467'
p630
aS'1.3931474785951802E-4'
p631
aS'9082517.892777782'
p632
aS'-0.05138970620728048,-0.051251992441481896,-0.05129517931690025,-0.05133556025964326,-0.0515234402386379,-0.05138095668138807,-0.05149472209224671,-0.051363227415743035,-0.051360378180608894,1.170209738127858'
p633
asg14
F0.00013931474785951802
sg15
I13
sg16
g571
sg18
F0.100014325
sg19
g632
sg20
g633
sg21
I14830
sa(dp634
g2
F9081774.0878609587
sg3
(lp635
S'RESULT:'
p636
aS'SVMADMM'
p637
aS'15'
p638
aS'15778'
p639
aS'0.100014325'
p640
aS'9081774.087860959'
p641
aS'1.3826647901909903E-4'
p642
aS'9081774.087999225'
p643
aS'-0.051258258115763386,-0.05121799100272922,-0.05120984064677648,-0.051301889246944996,-0.05136291105921671,-0.051334163892786236,-0.05140601237165266,-0.05121757462495649,-0.05129424277330275,1.1657570521035014'
p644
asg14
F0.00013826647901909903
sg15
I15
sg16
g571
sg18
F0.100014325
sg19
g643
sg20
g644
sg21
I15778
sa(dp645
g2
F9081898.6711142715
sg3
(lp646
S'RESULT:'
p647
aS'SVMADMM'
p648
aS'17'
p649
aS'15519'
p650
aS'0.100014325'
p651
aS'9081898.671114272'
p652
aS'1.3790574936437937E-4'
p653
aS'9081898.671252178'
p654
aS'-0.05121590116754635,-0.05117975600394902,-0.051196592151587075,-0.051270873309486154,-0.051375496957746195,-0.05122954606867074,-0.051409658002328815,-0.0511997648959196,-0.051163508045420796,1.1642247560905186'
p655
asg14
F0.00013790574936437937
sg15
I17
sg16
g571
sg18
F0.100014325
sg19
g654
sg20
g655
sg21
I15519
sa(dp656
g2
F9082447.9376870096
sg3
(lp657
S'RESULT:'
p658
aS'SVMADMM'
p659
aS'19'
p660
aS'18680'
p661
aS'0.100014325'
p662
aS'9082447.93768701'
p663
aS'1.3780392577522003E-4'
p664
aS'9082447.937824814'
p665
aS'-0.05119253257036733,-0.05122321783517845,-0.05112633206946374,-0.05115989857583519,-0.05139901616517896,-0.051228066431551256,-0.051295195943646704,-0.0511900417353306,-0.05116491861396963,1.1637989032530816'
p666
asg14
F0.00013780392577522003
sg15
I19
sg16
g571
sg18
F0.100014325
sg19
g665
sg20
g666
sg21
I18680
sa(dp667
g2
F9080053.6287736148
sg3
(lp668
S'RESULT:'
p669
aS'SVMADMM'
p670
aS'21'
p671
aS'18232'
p672
aS'0.100014325'
p673
aS'9080053.628773615'
p674
aS'1.3778485157193727E-4'
p675
aS'9080053.6289114'
p676
aS'-0.05129235959112462,-0.05124100208901787,-0.051242611989791895,-0.05126840321879751,-0.05143554551444581,-0.05135954336328124,-0.05135675665366158,-0.05129714275779647,-0.05128374824377691,1.1636818124555515'
p677
asg14
F0.00013778485157193727
sg15
I21
sg16
g571
sg18
F0.100014325
sg19
g676
sg20
g677
sg21
I18232
sa(dp678
g2
F9079468.9558919985
sg3
(lp679
S'RESULT:'
p680
aS'SVMADMM'
p681
aS'23'
p682
aS'19557'
p683
aS'0.100014325'
p684
aS'9079468.955891998'
p685
aS'1.3780767274647421E-4'
p686
aS'9079468.956029806'
p687
aS'-0.05131745438778907,-0.051252712319931275,-0.05118028546263674,-0.05129245464743122,-0.051468794359281984,-0.05155326521199395,-0.051363560983787936,-0.05130884393980683,-0.05128489591249162,1.1637690230183169'
p688
asg14
F0.00013780767274647421
sg15
I23
sg16
g571
sg18
F0.100014325
sg19
g687
sg20
g688
sg21
I19557
sa(dp689
g2
F9078826.0974535085
sg3
(lp690
S'RESULT:'
p691
aS'SVMADMM'
p692
aS'25'
p693
aS'23030'
p694
aS'0.100014325'
p695
aS'9078826.097453509'
p696
aS'1.378370284576849E-4'
p697
aS'9078826.097591346'
p698
aS'-0.05139578648378809,-0.051234702051241345,-0.05125101792301463,-0.051308202682253286,-0.051475770236289756,-0.0515340998383505,-0.051485645763105346,-0.05137089838056461,-0.05125523768757793,1.1638823848807083'
p699
asg14
F0.00013783702845768489
sg15
I25
sg16
g571
sg18
F0.100014325
sg19
g698
sg20
g699
sg21
I23030
sa(dp700
g2
F9078844.1957901195
sg3
(lp701
S'RESULT:'
p702
aS'SVMADMM'
p703
aS'27'
p704
aS'20440'
p705
aS'0.100014325'
p706
aS'9078844.19579012'
p707
aS'1.3787828547577962E-4'
p708
aS'9078844.195927998'
p709
aS'-0.051447844204183565,-0.05128268723023868,-0.05129801438991433,-0.0512918522705585,-0.05143647860292575,-0.05141088097490591,-0.05143665923272049,-0.051439064667011515,-0.051294154076482724,1.1640584745374023'
p710
asg14
F0.00013787828547577962
sg15
I27
sg16
g571
sg18
F0.100014325
sg19
g709
sg20
g710
sg21
I20440
sa(dp711
g2
F9078315.849262245
sg3
(lp712
S'RESULT:'
p713
aS'SVMADMM'
p714
aS'29'
p715
aS'22353'
p716
aS'0.100014325'
p717
aS'9078315.849262245'
p718
aS'1.3793424789917752E-4'
p719
aS'9078315.84940018'
p720
aS'-0.05145553960349071,-0.051278199346527956,-0.051374538452067145,-0.051254324504192296,-0.051501693365948106,-0.051417706059516115,-0.05149306705115381,-0.05143636351778695,-0.05140495173131462,1.1642865172720038'
p721
asg14
F0.00013793424789917752
sg15
I29
sg16
g571
sg18
F0.100014325
sg19
g720
sg20
g721
sg21
I22353
sa(dp722
g2
F9077677.5420436412
sg3
(lp723
S'RESULT:'
p724
aS'SVMADMM'
p725
aS'31'
p726
aS'24181'
p727
aS'0.100014325'
p728
aS'9077677.542043641'
p729
aS'1.3798924185952512E-4'
p730
aS'9077677.54218163'
p731
aS'-0.05150738092927072,-0.0513402404293925,-0.051402173315299546,-0.05141420020027698,-0.05156195318757979,-0.051533980765641994,-0.05150371672974442,-0.05135415184823261,-0.05134708239437346,1.1645072751187193'
p732
asg14
F0.00013798924185952512
sg15
I31
sg16
g571
sg18
F0.100014325
sg19
g731
sg20
g732
sg21
I24181
sa(dp733
g2
F9076702.4039038643
sg3
(lp734
S'RESULT:'
p735
aS'SVMADMM'
p736
aS'33'
p737
aS'25182'
p738
aS'0.100014325'
p739
aS'9076702.403903864'
p740
aS'1.3804293820167385E-4'
p741
aS'9076702.404041907'
p742
aS'-0.05152690179874927,-0.05138737134998773,-0.051469588271937365,-0.05138412253444353,-0.051621019255290536,-0.05158489998755199,-0.05153053208656522,-0.05151449502351108,-0.05151884069073886,1.1647124926313492'
p743
asg14
F0.00013804293820167385
sg15
I33
sg16
g571
sg18
F0.100014325
sg19
g742
sg20
g743
sg21
I25182
sa(dp744
g2
F9076929.3141296916
sg3
(lp745
S'RESULT:'
p746
aS'SVMADMM'
p747
aS'35'
p748
aS'25983'
p749
aS'0.100014325'
p750
aS'9076929.314129692'
p751
aS'1.380834397995305E-4'
p752
aS'9076929.314267775'
p753
aS'-0.051553506316627196,-0.05146183949981215,-0.051485222561458606,-0.05141285100928031,-0.05158991660811562,-0.0515657447310863,-0.05149356804790629,-0.051495872039963954,-0.05138075893495862,1.1648907087638993'
p754
asg14
F0.00013808343979953051
sg15
I35
sg16
g571
sg18
F0.100014325
sg19
g753
sg20
g754
sg21
I25983
sa(dp755
g2
F9076706.0099002756
sg3
(lp756
S'RESULT:'
p757
aS'SVMADMM'
p758
aS'37'
p759
aS'30243'
p760
aS'0.100014325'
p761
aS'9076706.009900276'
p762
aS'1.381301192530806E-4'
p763
aS'9076706.010038406'
p764
aS'-0.051514720779410425,-0.051545092748198185,-0.05140697482533999,-0.0514117235174364,-0.051608090258138124,-0.05159577298492621,-0.051575196242817964,-0.051502601049483426,-0.051447235742414936,1.1650836156661852'
p765
asg14
F0.00013813011925308059
sg15
I37
sg16
g571
sg18
F0.100014325
sg19
g764
sg20
g765
sg21
I30243
sa(dp766
g2
F9076332.5521980189
sg3
(lp767
S'RESULT:'
p768
aS'SVMADMM'
p769
aS'39'
p770
aS'28523'
p771
aS'0.100014325'
p772
aS'9076332.552198019'
p773
aS'1.381714286744751E-4'
p774
aS'9076332.55233619'
p775
aS'-0.05154035280129273,-0.051525875170648716,-0.051432251904118854,-0.05152255029752328,-0.05169772965148284,-0.05158692905714546,-0.05164808951333213,-0.051473115216247596,-0.0514460968811838,1.1652491317805231'
p776
asg14
F0.0001381714286744751
sg15
I39
sg16
g571
sg18
F0.100014325
sg19
g775
sg20
g776
sg21
I28523
sa(dp777
g2
F9075908.0523981117
sg3
(lp778
S'RESULT:'
p779
aS'SVMADMM'
p780
aS'41'
p781
aS'30165'
p782
aS'0.100014325'
p783
aS'9075908.052398112'
p784
aS'1.3820355819118183E-4'
p785
aS'9075908.052536314'
p786
aS'-0.05161179659163959,-0.051563627402250733,-0.05143205716433548,-0.05155760029960853,-0.051700842303764115,-0.051576310397901316,-0.051654820519100954,-0.05158096992271423,-0.051513317020365636,1.1653729112949491'
p787
asg14
F0.00013820355819118183
sg15
I41
sg16
g571
sg18
F0.100014325
sg19
g786
sg20
g787
sg21
I30165
sa(dp788
g2
F9075665.723321924
sg3
(lp789
S'RESULT:'
p790
aS'SVMADMM'
p791
aS'43'
p792
aS'30744'
p793
aS'0.100014325'
p794
aS'9075665.723321924'
p795
aS'1.382379844465263E-4'
p796
aS'9075665.723460162'
p797
aS'-0.051635639386251514,-0.05160170283940626,-0.05152203333619929,-0.05162659308179499,-0.051680942863544105,-0.05166696188143437,-0.051622453264278195,-0.05153898969242578,-0.0515097137455922,1.1655111556253617'
p798
asg14
F0.00013823798444652629
sg15
I43
sg16
g571
sg18
F0.100014325
sg19
g797
sg20
g798
sg21
I30744
sa(dp799
g2
F9075618.0672832057
sg3
(lp800
S'RESULT:'
p801
aS'SVMADMM'
p802
aS'45'
p803
aS'32955'
p804
aS'0.100014325'
p805
aS'9075618.067283206'
p806
aS'1.3827481560865583E-4'
p807
aS'9075618.067421481'
p808
aS'-0.051616373937163465,-0.05156139386362747,-0.05164578865103103,-0.0516614955857989,-0.05166328847487497,-0.051632810193674945,-0.05161919890009459,-0.0515444332980353,-0.051529452581852056,1.1656660901958185'
p809
asg14
F0.00013827481560865583
sg15
I45
sg16
g571
sg18
F0.100014325
sg19
g808
sg20
g809
sg21
I32955
sa(dp810
g2
F9075369.1240837295
sg3
(lp811
S'RESULT:'
p812
aS'SVMADMM'
p813
aS'47'
p814
aS'33488'
p815
aS'0.100014325'
p816
aS'9075369.12408373'
p817
aS'1.3830833037550616E-4'
p818
aS'9075369.124222038'
p819
aS'-0.05166397394599801,-0.05153368901859889,-0.05161597822190271,-0.051603099296997273,-0.05174419368082172,-0.051608826328321845,-0.051721117794327615,-0.051559237120183864,-0.05166482891531127,1.16579917281778'
p820
asg14
F0.00013830833037550616
sg15
I47
sg16
g571
sg18
F0.100014325
sg19
g819
sg20
g820
sg21
I33488
sa(dp821
g2
F9075464.3348927628
sg3
(lp822
S'RESULT:'
p823
aS'SVMADMM'
p824
aS'49'
p825
aS'35400'
p826
aS'0.100014325'
p827
aS'9075464.334892763'
p828
aS'1.3835194961187613E-4'
p829
aS'9075464.335031115'
p830
aS'-0.05160569054145485,-0.0516318483725003,-0.0515667801430149,-0.051510898391974036,-0.05172392044936974,-0.051605567948559306,-0.05175527392151897,-0.051647957760549444,-0.05161935086978148,1.1659883445793886'
p831
asg14
F0.00013835194961187613
sg15
I49
sg16
g571
sg18
F0.100014325
sg19
g830
sg20
g831
sg21
I35400
sa(dp832
g2
F9075256.4444791097
sg3
(lp833
S'RESULT:'
p834
aS'SVMADMM'
p835
aS'51'
p836
aS'36925'
p837
aS'0.100014325'
p838
aS'9075256.44447911'
p839
aS'1.3836589681833698E-4'
p840
aS'9075256.444617476'
p841
aS'-0.051633561063604234,-0.051538992431197,-0.05162390308614802,-0.0514859942037822,-0.05179610074754406,-0.05172335577401504,-0.05176744581871844,-0.05168704738817578,-0.0516114546399128,1.166039252210625'
p842
asg14
F0.00013836589681833698
sg15
I51
sg16
g571
sg18
F0.100014325
sg19
g841
sg20
g842
sg21
I36925
sa(dp843
g2
F9074694.5093046594
sg3
(lp844
S'RESULT:'
p845
aS'SVMADMM'
p846
aS'53'
p847
aS'37247'
p848
aS'0.100014325'
p849
aS'9074694.50930466'
p850
aS'1.384109633373608E-4'
p851
aS'9074694.50944307'
p852
aS'-0.05166324926032268,-0.05176848269672597,-0.051602107997022105,-0.051620794656527184,-0.051850167568586056,-0.051797984144179944,-0.05179789119617798,-0.051783642595943154,-0.05168532481206277,1.1662013853730195'
p853
asg14
F0.00013841096333736081
sg15
I53
sg16
g571
sg18
F0.100014325
sg19
g852
sg20
g853
sg21
I37247
sa(dp854
g2
F9074858.6163258273
sg3
(lp855
S'RESULT:'
p856
aS'SVMADMM'
p857
aS'55'
p858
aS'38794'
p859
aS'0.100014325'
p860
aS'9074858.616325827'
p861
aS'1.384309275101152E-4'
p862
aS'9074858.61646426'
p863
aS'-0.051705176055188214,-0.0516889949065074,-0.051614199967904055,-0.051595519963430016,-0.05187759673285961,-0.05179500870114446,-0.05176052280379911,-0.051624736183329925,-0.051694465062508146,1.16629643897383'
p864
asg14
F0.00013843092751011519
sg15
I55
sg16
g571
sg18
F0.100014325
sg19
g863
sg20
g864
sg21
I38794
sa(dp865
g2
F9074941.8805392683
sg3
(lp866
S'RESULT:'
p867
aS'SVMADMM'
p868
aS'57'
p869
aS'41083'
p870
aS'0.100014325'
p871
aS'9074941.880539268'
p872
aS'1.384379721472566E-4'
p873
aS'9074941.880677706'
p874
aS'-0.05173176710269193,-0.05171613858506801,-0.05155394844993704,-0.05161140817374315,-0.051886795394992136,-0.051768116557524196,-0.05172001440097591,-0.05159911905038715,-0.05167311436808793,1.1663308803882402'
p875
asg14
F0.00013843797214725659
sg15
I57
sg16
g571
sg18
F0.100014325
sg19
g874
sg20
g875
sg21
I41083
sa(dp876
g2
F9074838.3404499795
sg3
(lp877
S'RESULT:'
p878
aS'SVMADMM'
p879
aS'59'
p880
aS'40911'
p881
aS'0.100014325'
p882
aS'9074838.34044998'
p883
aS'1.3845620233351145E-4'
p884
aS'9074838.340588436'
p885
aS'-0.05175812183144882,-0.051719945923973054,-0.05162935017511148,-0.051590128527632305,-0.051919446338084735,-0.05166628501779842,-0.05175491391417052,-0.051619554757672825,-0.05174635919881672,1.1664026607645597'
p886
asg14
F0.00013845620233351145
sg15
I59
sg16
g571
sg18
F0.100014325
sg19
g885
sg20
g886
sg21
I40911
sa(dp887
g2
F9074771.6286897436
sg3
(lp888
S'RESULT:'
p889
aS'SVMADMM'
p890
aS'61'
p891
aS'42629'
p892
aS'0.100014325'
p893
aS'9074771.628689744'
p894
aS'1.384840219030384E-4'
p895
aS'9074771.628828228'
p896
aS'-0.05175429974674916,-0.05165257502122822,-0.05169025402672447,-0.05166896321017347,-0.05188622500471252,-0.0517342374514013,-0.05178045411205009,-0.05165392467990718,-0.05169474350819797,1.1665169768683348'
p897
asg14
F0.00013848402190303841
sg15
I61
sg16
g571
sg18
F0.100014325
sg19
g896
sg20
g897
sg21
I42629
sa(dp898
g2
F9074655.2703976687
sg3
(lp899
S'RESULT:'
p900
aS'SVMADMM'
p901
aS'63'
p902
aS'43550'
p903
aS'0.100014325'
p904
aS'9074655.270397669'
p905
aS'1.38491583644018E-4'
p906
aS'9074655.27053616'
p907
aS'-0.05174434812641356,-0.0516699807362608,-0.05169595950774489,-0.051686592758676736,-0.05185774579480685,-0.0518067094634725,-0.051855941197940944,-0.051681884690921956,-0.05169642378775595,1.1665414089726582'
p908
asg14
F0.00013849158364401799
sg15
I63
sg16
g571
sg18
F0.100014325
sg19
g907
sg20
g908
sg21
I43550
sa(dp909
g2
F9074525.2374996189
sg3
(lp910
S'RESULT:'
p911
aS'SVMADMM'
p912
aS'65'
p913
aS'45802'
p914
aS'0.100014325'
p915
aS'9074525.237499619'
p916
aS'1.385024837568663E-4'
p917
aS'9074525.237638121'
p918
aS'-0.05177929402479474,-0.05173626910507944,-0.051651383898759846,-0.05175628453503686,-0.05188709314494952,-0.051815536978738225,-0.0518352243139164,-0.051725932340353185,-0.051754693719826377,1.1665772118059314'
p919
asg14
F0.00013850248375686631
sg15
I65
sg16
g571
sg18
F0.100014325
sg19
g918
sg20
g919
sg21
I45802
sa(dp920
g2
F9074615.0010444578
sg3
(lp921
S'RESULT:'
p922
aS'SVMADMM'
p923
aS'67'
p924
aS'47538'
p925
aS'0.100014325'
p926
aS'9074615.001044458'
p927
aS'1.3851768809370146E-4'
p928
aS'9074615.001182975'
p929
aS'-0.0518179511593969,-0.05172314551651996,-0.05174589713671112,-0.05167296807602927,-0.05180578546337234,-0.051720692297841,-0.051806661213331905,-0.051780989671520956,-0.05171074170641915,1.1666493442023427'
p930
asg14
F0.00013851768809370146
sg15
I67
sg16
g571
sg18
F0.100014325
sg19
g929
sg20
g930
sg21
I47538
sa(dp931
g2
F9074358.9224646352
sg3
(lp932
S'RESULT:'
p933
aS'SVMADMM'
p934
aS'69'
p935
aS'48773'
p936
aS'0.100014325'
p937
aS'9074358.922464635'
p938
aS'1.3854020804281728E-4'
p939
aS'9074358.922603175'
p940
aS'-0.051879233742030205,-0.0518257580003046,-0.051778200954909544,-0.05183417420424941,-0.05183424756970271,-0.05181257032268592,-0.05191100186078283,-0.0518307527351681,-0.05176639311390632,1.1667153390903775'
p941
asg14
F0.00013854020804281728
sg15
I69
sg16
g571
sg18
F0.100014325
sg19
g940
sg20
g941
sg21
I48773
sa(dp942
g2
F9074404.7689114511
sg3
(lp943
S'RESULT:'
p944
aS'SVMADMM'
p945
aS'71'
p946
aS'48827'
p947
aS'0.100014325'
p948
aS'9074404.768911451'
p949
aS'1.3855667531867204E-4'
p950
aS'9074404.769050008'
p951
aS'-0.051781666487401325,-0.05178145907674043,-0.05171182994415512,-0.05185308453151611,-0.051909586216430235,-0.05185406840671858,-0.05185415264261364,-0.05178747465862793,-0.05176059426886784,1.1667938260971509'
p952
asg14
F0.00013855667531867204
sg15
I71
sg16
g571
sg18
F0.100014325
sg19
g951
sg20
g952
sg21
I48827
sa(dp953
g2
F9074369.6207529083
sg3
(lp954
S'RESULT:'
p955
aS'SVMADMM'
p956
aS'73'
p957
aS'50282'
p958
aS'0.100014325'
p959
aS'9074369.620752908'
p960
aS'1.385857938400865E-4'
p961
aS'9074369.620891495'
p962
aS'-0.05186344072694202,-0.051727487239288404,-0.05178275774729853,-0.0518906007952901,-0.05190060332347622,-0.05185918060656848,-0.0519023144792457,-0.05178201179193897,-0.05174103095137446,1.1669116898951548'
p963
asg14
F0.00013858579384008651
sg15
I73
sg16
g571
sg18
F0.100014325
sg19
g962
sg20
g963
sg21
I50282
sa(dp964
g2
F9074365.7949726786
sg3
(lp965
S'RESULT:'
p966
aS'SVMADMM'
p967
aS'75'
p968
aS'52806'
p969
aS'0.100014325'
p970
aS'9074365.794972679'
p971
aS'1.3859470274324255E-4'
p972
aS'9074365.795111272'
p973
aS'-0.051836012502503054,-0.05165609955821179,-0.05184799027884665,-0.05179628056689938,-0.051962309118653446,-0.051843854698239246,-0.05191288412232012,-0.05178275333339782,-0.05183666955184951,1.1669487245000743'
p974
asg14
F0.00013859470274324255
sg15
I75
sg16
g571
sg18
F0.100014325
sg19
g973
sg20
g974
sg21
I52806
sa(dp975
g2
F9074362.0659546535
sg3
(lp976
S'RESULT:'
p977
aS'SVMADMM'
p978
aS'77'
p979
aS'52474'
p980
aS'0.100014325'
p981
aS'9074362.065954654'
p982
aS'1.3861338575580737E-4'
p983
aS'9074362.066093266'
p984
aS'-0.051916851980076784,-0.051738341603443205,-0.05179029453720832,-0.051700644490879286,-0.051959971613940725,-0.05182437610678007,-0.05188318265879107,-0.05190175916689692,-0.051790238416507546,1.1670274033397903'
p985
asg14
F0.00013861338575580737
sg15
I77
sg16
g571
sg18
F0.100014325
sg19
g984
sg20
g985
sg21
I52474
sa(dp986
g2
F9074383.0121090394
sg3
(lp987
S'RESULT:'
p988
aS'SVMADMM'
p989
aS'79'
p990
aS'53392'
p991
aS'0.100014325'
p992
aS'9074383.01210904'
p993
aS'1.3863562854729916E-4'
p994
aS'9074383.012247674'
p995
aS'-0.051831121433620314,-0.051715302438019854,-0.05175863004224848,-0.051750071267235624,-0.051905838408986424,-0.051931336291250636,-0.051933108902260654,-0.05186472887020747,-0.05174324257524279,1.167125906384776'
p996
asg14
F0.00013863562854729916
sg15
I79
sg16
g571
sg18
F0.100014325
sg19
g995
sg20
g996
sg21
I53392
sa(dp997
g2
F9074417.0844712965
sg3
(lp998
S'RESULT:'
p999
aS'SVMADMM'
p1000
aS'81'
p1001
aS'55813'
p1002
aS'0.100014325'
p1003
aS'9074417.084471297'
p1004
aS'1.3865032960424918E-4'
p1005
aS'9074417.084609946'
p1006
aS'-0.05185042719449008,-0.05173206552385836,-0.05175964342342819,-0.051800718665401625,-0.05188968139713933,-0.05186674994226129,-0.0519709600718889,-0.05171580749795167,-0.05174566857275183,1.1671933983107656'
p1007
asg14
F0.00013865032960424918
sg15
I81
sg16
g571
sg18
F0.100014325
sg19
g1006
sg20
g1007
sg21
I55813
sa(dp1008
g2
F9074473.4822742548
sg3
(lp1009
S'RESULT:'
p1010
aS'SVMADMM'
p1011
aS'83'
p1012
aS'57815'
p1013
aS'0.100014325'
p1014
aS'9074473.482274255'
p1015
aS'1.3864122650002292E-4'
p1016
aS'9074473.482412895'
p1017
aS'-0.05187482098842515,-0.05165349637277691,-0.0516996039812808,-0.05182937199535603,-0.0518948104641507,-0.05180425203791358,-0.05189709945775995,-0.051783218630640615,-0.051737096109956936,1.167161412036388'
p1018
asg14
F0.00013864122650002292
sg15
I83
sg16
g571
sg18
F0.100014325
sg19
g1017
sg20
g1018
sg21
I57815
sa(dp1019
g2
F9074390.8994079344
sg3
(lp1020
S'RESULT:'
p1021
aS'SVMADMM'
p1022
aS'85'
p1023
aS'66763'
p1024
aS'0.100014325'
p1025
aS'9074390.899407934'
p1026
aS'1.386388013447771E-4'
p1027
aS'9074390.899546573'
p1028
aS'-0.05191489326330469,-0.05176793660730032,-0.05175497326479207,-0.05176992378971094,-0.05191506229151519,-0.051872508463637286,-0.051885705785709516,-0.0517926419601907,-0.051732648989240196,1.1671407086350976'
p1029
asg14
F0.00013863880134477711
sg15
I85
sg16
g571
sg18
F0.100014325
sg19
g1028
sg20
g1029
sg21
I66763
sa(dp1030
g2
F9074332.2951279748
sg3
(lp1031
S'RESULT:'
p1032
aS'SVMADMM'
p1033
aS'87'
p1034
aS'60989'
p1035
aS'0.100014325'
p1036
aS'9074332.295127975'
p1037
aS'1.3864452692594612E-4'
p1038
aS'9074332.295266619'
p1039
aS'-0.05186737075274414,-0.05190423087529041,-0.05183903322620372,-0.05183575168254777,-0.051929513808438764,-0.051882511603550334,-0.05181999185824113,-0.05181609357736811,-0.05182017527172553,1.167151552421496'
p1040
asg14
F0.00013864452692594612
sg15
I87
sg16
g571
sg18
F0.100014325
sg19
g1039
sg20
g1040
sg21
I60989
sa(dp1041
g2
F9074335.4023793433
sg3
(lp1042
S'RESULT:'
p1043
aS'SVMADMM'
p1044
aS'89'
p1045
aS'62843'
p1046
aS'0.100014325'
p1047
aS'9074335.402379343'
p1048
aS'1.3867261238052766E-4'
p1049
aS'9074335.402518015'
p1050
aS'-0.05185567534282752,-0.05183614167562578,-0.051803972510242276,-0.05182431516795194,-0.05195847033429881,-0.05188971472724033,-0.051883004665830255,-0.05185946728799153,-0.05179296026598691,1.1672723459236554'
p1051
asg14
F0.00013867261238052766
sg15
I89
sg16
g571
sg18
F0.100014325
sg19
g1050
sg20
g1051
sg21
I62843
sa(dp1052
g2
F9074326.6964848489
sg3
(lp1053
S'RESULT:'
p1054
aS'SVMADMM'
p1055
aS'91'
p1056
aS'63680'
p1057
aS'0.100014325'
p1058
aS'9074326.696484849'
p1059
aS'1.386747856087365E-4'
p1060
aS'9074326.696623523'
p1061
aS'-0.051843977627275564,-0.05189906551633962,-0.05178835931417034,-0.051772132983423445,-0.05204327565456987,-0.05191628399981577,-0.05189159454847096,-0.051837672100046056,-0.051799676614743655,1.1672777157726593'
p1062
asg14
F0.00013867478560873649
sg15
I91
sg16
g571
sg18
F0.100014325
sg19
g1061
sg20
g1062
sg21
I63680
sa(dp1063
g2
F9074331.455410745
sg3
(lp1064
S'RESULT:'
p1065
aS'SVMADMM'
p1066
aS'93'
p1067
aS'65589'
p1068
aS'0.100014325'
p1069
aS'9074331.455410745'
p1070
aS'1.3866342009059173E-4'
p1071
aS'9074331.455549408'
p1072
aS'-0.05194223982832037,-0.05181524281366468,-0.05176734322113424,-0.051843917261461016,-0.05203398146885589,-0.05188231178050525,-0.051799278448414164,-0.051822996292559285,-0.05182826255827227,1.1672315405107045'
p1073
asg14
F0.00013866342009059173
sg15
I93
sg16
g571
sg18
F0.100014325
sg19
g1072
sg20
g1073
sg21
I65589
sa(dp1074
g2
F9074342.8743536267
sg3
(lp1075
S'RESULT:'
p1076
aS'SVMADMM'
p1077
aS'95'
p1078
aS'66286'
p1079
aS'0.100014325'
p1080
aS'9074342.874353627'
p1081
aS'1.3867647613909068E-4'
p1082
aS'9074342.874492303'
p1083
aS'-0.05189450112631633,-0.05182650768838304,-0.051746688781039406,-0.051879348236559916,-0.0519843291684989,-0.051873729974895415,-0.05180349751708777,-0.05184592792533295,-0.051802959594547296,1.1672909427861282'
p1084
asg14
F0.00013867647613909068
sg15
I95
sg16
g571
sg18
F0.100014325
sg19
g1083
sg20
g1084
sg21
I66286
sa(dp1085
g2
F9074337.8020183351
sg3
(lp1086
S'RESULT:'
p1087
aS'SVMADMM'
p1088
aS'97'
p1089
aS'67718'
p1090
aS'0.100014325'
p1091
aS'9074337.802018335'
p1092
aS'1.3869373284938194E-4'
p1093
aS'9074337.80215703'
p1094
aS'-0.05195688781960157,-0.051904778095657834,-0.05187213645215994,-0.05187444146302925,-0.05210087872743778,-0.051868721196151,-0.05188668457857883,-0.05186168154990898,-0.051867429768580886,1.1673410255672134'
p1095
asg14
F0.00013869373284938194
sg15
I97
sg16
g571
sg18
F0.100014325
sg19
g1094
sg20
g1095
sg21
I67718
sa(dp1096
g2
F9074331.3283641674
sg3
(lp1097
S'RESULT:'
p1098
aS'SVMADMM'
p1099
aS'99'
p1100
aS'68171'
p1101
aS'0.100014325'
p1102
aS'9074331.328364167'
p1103
aS'1.3870486236697857E-4'
p1104
aS'9074331.328502873'
p1105
aS'-0.051911386820358424,-0.05183680033660245,-0.05189517244371953,-0.051725741575098745,-0.051952007836235645,-0.05194388058248403,-0.05187345443854379,-0.051810511497046956,-0.051819957550880015,1.167407575026326'
p1106
asg14
F0.00013870486236697857
sg15
I99
sg16
g571
sg18
F0.100014325
sg19
g1105
sg20
g1106
sg21
I68171
sa(dp1107
g2
F20389397.08039812
sg3
(lp1108
S'RESULT:'
p1109
aS'SVMADMMAsync'
p1110
ag7
aS'8514'
p1111
aS'0.101093975'
p1112
aS'2.038939708039812E7'
p1113
aS'6.822063842390149E-6'
p1114
aS'2.038939708040494E7'
p1115
aS'-0.029507476688746394,-0.029408694813869415,-0.029356853166016893,-0.02927587119762994,-0.029561982425876886,-0.029444690817674583,-0.029571220096759648,-0.029509070174803052,-0.029399256571153682,0.24579608471392034'
p1116
asg14
F6.8220638423901487e-06
sg15
I1
sg16
S'SVMADMMAsync'
p1117
sg18
F0.101093975
sg19
g1115
sg20
g1116
sg21
I8514
sa(dp1118
g2
F13670571.079639543
sg3
(lp1119
S'RESULT:'
p1120
aS'SVMADMMAsync'
p1121
ag26
aS'8391'
p1122
aS'0.100014325'
p1123
aS'1.3670571079639543E7'
p1124
aS'4.6590326540353215E-5'
p1125
aS'1.3670571079686133E7'
p1126
aS'-0.0397553095045272,-0.03964901432777802,-0.03952442619343962,-0.03968488890072182,-0.039793634109050284,-0.039805130910432966,-0.03981607426273777,-0.039860581069437316,-0.039825744961342925,0.6720754484003765'
p1127
asg14
F4.6590326540353215e-05
sg15
I3
sg16
g1117
sg18
F0.100014325
sg19
g1126
sg20
g1127
sg21
I8391
sa(dp1128
g2
F10830664.557107588
sg3
(lp1129
S'RESULT:'
p1130
aS'SVMADMMAsync'
p1131
ag37
aS'11580'
p1132
aS'0.100014325'
p1133
aS'1.0830664557107588E7'
p1134
aS'7.659838919983427E-5'
p1135
aS'1.0830664557184186E7'
p1136
aS'-0.043981795401765694,-0.04387610763665726,-0.04385256005344244,-0.04395719025511461,-0.043957141791750906,-0.04402874114163639,-0.04417248953697946,-0.04401870221036167,-0.044017109611652304,0.8652005420572219'
p1137
asg14
F7.6598389199834268e-05
sg15
I5
sg16
g1117
sg18
F0.100014325
sg19
g1136
sg20
g1137
sg21
I11580
sa(dp1138
g2
F9309141.918454472
sg3
(lp1139
S'RESULT:'
p1140
aS'SVMADMMAsync'
p1141
ag48
aS'11835'
p1142
aS'0.100014325'
p1143
aS'9309141.918454472'
p1144
aS'1.1660155793864567E-4'
p1145
aS'9309141.918571074'
p1146
aS'-0.052036599894820554,-0.05144984404592399,-0.051281040150792684,-0.05178684852387391,-0.05126985588391105,-0.0513804407287223,-0.05195629622766581,-0.05177611057115565,-0.05183014942810586,1.068650517195104'
p1147
asg14
F0.00011660155793864567
sg15
I7
sg16
g1117
sg18
F0.100014325
sg19
g1146
sg20
g1147
sg21
I11835
sa(dp1148
g2
F9107304.363061998
sg3
(lp1149
S'RESULT:'
p1150
aS'SVMADMMAsync'
p1151
ag59
aS'12558'
p1152
aS'0.100014325'
p1153
aS'9107304.363061998'
p1154
aS'1.2876444890970036E-4'
p1155
aS'9107304.363190763'
p1156
aS'-0.050116453956636685,-0.0501591697231594,-0.05001582450189324,-0.0501109247840747,-0.050200254738815384,-0.05013125156242852,-0.050215678157379595,-0.05020074317865444,-0.05017806258330018,1.1247272671528037'
p1157
asg14
F0.00012876444890970036
sg15
I9
sg16
g1117
sg18
F0.100014325
sg19
g1156
sg20
g1157
sg21
I12558
sa(dp1158
g2
F9080776.3539720401
sg3
(lp1159
S'RESULT:'
p1160
aS'SVMADMMAsync'
p1161
aS'11'
p1162
aS'14346'
p1163
aS'0.100014325'
p1164
aS'9080776.35397204'
p1165
aS'1.3394379549161166E-4'
p1166
aS'9080776.354105985'
p1167
aS'-0.05116815152409507,-0.05105459125895211,-0.0510332441250124,-0.051082926406705864,-0.05112732780433729,-0.05113853612927717,-0.05121103519744187,-0.05106643925357453,-0.051044858270213316,1.14714178029361'
p1168
asg14
F0.00013394379549161166
sg15
I11
sg16
g1117
sg18
F0.100014325
sg19
g1167
sg20
g1168
sg21
I14346
sa(dp1169
g2
F9080404.5402383283
sg3
(lp1170
S'RESULT:'
p1171
aS'SVMADMMAsync'
p1172
aS'13'
p1173
aS'17528'
p1174
aS'0.100014325'
p1175
aS'9080404.540238328'
p1176
aS'1.359753806773504E-4'
p1177
aS'9080404.540374303'
p1178
aS'-0.052063110464989175,-0.05197030411154601,-0.051904227920966946,-0.05207685738541314,-0.05212673735107672,-0.05211613565858163,-0.0520822895308852,-0.0520198603556611,-0.05195447055637695,1.1555886347371667'
p1179
asg14
F0.00013597538067735041
sg15
I13
sg16
g1117
sg18
F0.100014325
sg19
g1178
sg20
g1179
sg21
I17528
sa(dp1180
g2
F9075851.397794364
sg3
(lp1181
S'RESULT:'
p1182
aS'SVMADMMAsync'
p1183
aS'15'
p1184
aS'19348'
p1185
aS'0.100014325'
p1186
aS'9075851.397794364'
p1187
aS'1.3734013994788597E-4'
p1188
aS'9075851.397931704'
p1189
aS'-0.052158559476370825,-0.05199996101044156,-0.051948798748656155,-0.0519932055300378,-0.05201623263835446,-0.05192219353018528,-0.0520001178727274,-0.0517667596906705,-0.05182110222615659,1.1615093964974836'
p1190
asg14
F0.00013734013994788597
sg15
I15
sg16
g1117
sg18
F0.100014325
sg19
g1189
sg20
g1190
sg21
I19348
sa(dp1191
g2
F9074400.739885984
sg3
(lp1192
S'RESULT:'
p1193
aS'SVMADMMAsync'
p1194
aS'17'
p1195
aS'21282'
p1196
aS'0.100014325'
p1197
aS'9074400.739885984'
p1198
aS'1.3823175220065075E-4'
p1199
aS'9074400.740024216'
p1200
aS'-0.05192686401789325,-0.05169915814644926,-0.05175624487405586,-0.051837691447400316,-0.052014212618670404,-0.05199271117202237,-0.05189092742576306,-0.05183092670391011,-0.05186046274321493,1.1653776741774633'
p1201
asg14
F0.00013823175220065075
sg15
I17
sg16
g1117
sg18
F0.100014325
sg19
g1200
sg20
g1201
sg21
I21282
sa(dp1202
g2
F9088067.8803259041
sg3
(lp1203
S'RESULT:'
p1204
aS'SVMADMMAsync'
p1205
aS'19'
p1206
aS'23484'
p1207
aS'0.100014325'
p1208
aS'9088067.880325904'
p1209
aS'1.3844605361969448E-4'
p1210
aS'9088067.88046435'
p1211
aS'-0.05114305415098814,-0.050969971090090584,-0.051022280285013454,-0.05102434310656332,-0.05133166106745154,-0.051137628881646933,-0.05112922690320917,-0.05110276700068694,-0.0512060596928556,1.1665943947565902'
p1212
asg14
F0.00013844605361969448
sg15
I19
sg16
g1117
sg18
F0.100014325
sg19
g1211
sg20
g1212
sg21
I23484
sa(dp1213
g2
F9074335.884582743
sg3
(lp1214
S'RESULT:'
p1215
aS'SVMADMMAsync'
p1216
aS'21'
p1217
aS'25248'
p1218
aS'0.100014325'
p1219
aS'9074335.884582743'
p1220
aS'1.386627978560459E-4'
p1221
aS'9074335.884721406'
p1222
aS'-0.05190870792387847,-0.05185849497935935,-0.05185533507577036,-0.05193543440377576,-0.05207126769475478,-0.05190252563854422,-0.05198005927304858,-0.05182929544854006,-0.05180387820229778,1.167210676212979'
p1223
asg14
F0.00013866279785604589
sg15
I21
sg16
g1117
sg18
F0.100014325
sg19
g1222
sg20
g1223
sg21
I25248
sa(dp1224
g2
F9074348.1788908634
sg3
(lp1225
S'RESULT:'
p1226
aS'SVMADMMAsync'
p1227
aS'23'
p1228
aS'26650'
p1229
aS'0.100014325'
p1230
aS'9074348.178890863'
p1231
aS'1.3879595916613035E-4'
p1232
aS'9074348.17902966'
p1233
aS'-0.05191881107434072,-0.05180615799763527,-0.05179591713022791,-0.05178953062194747,-0.052074572978686756,-0.05179896231240339,-0.05193681301492035,-0.05175335967969369,-0.05186983737516261,1.1677987676551507'
p1234
asg14
F0.00013879595916613035
sg15
I23
sg16
g1117
sg18
F0.100014325
sg19
g1233
sg20
g1234
sg21
I26650
sa(dp1235
g2
F9074522.1770229321
sg3
(lp1236
S'RESULT:'
p1237
aS'SVMADMMAsync'
p1238
aS'25'
p1239
aS'29848'
p1240
aS'0.100014325'
p1241
aS'9074522.177022932'
p1242
aS'1.3875015465905E-4'
p1243
aS'9074522.177161682'
p1244
aS'-0.051858060824905586,-0.05182014013156954,-0.051681032026623594,-0.05171988314583118,-0.051929869707896925,-0.05175871861383062,-0.05184723823501251,-0.05183556468814814,-0.051718462319603725,1.1676281720935406'
p1245
asg14
F0.00013875015465905001
sg15
I25
sg16
g1117
sg18
F0.100014325
sg19
g1244
sg20
g1245
sg21
I29848
sa(dp1246
g2
F9075314.2358202897
sg3
(lp1247
S'RESULT:'
p1248
aS'SVMADMMAsync'
p1249
aS'27'
p1250
aS'30464'
p1251
aS'0.100014325'
p1252
aS'9075314.23582029'
p1253
aS'1.387507672324669E-4'
p1254
aS'9075314.23595904'
p1255
aS'-0.05169114747731887,-0.051680034260941886,-0.05156924366720764,-0.05156814465177983,-0.05187138553945723,-0.05173075058374653,-0.05174979567379382,-0.05163228818400737,-0.05167206623931767,1.1676752815154234'
p1256
asg14
F0.00013875076723246689
sg15
I27
sg16
g1117
sg18
F0.100014325
sg19
g1255
sg20
g1256
sg21
I30464
sa(dp1257
g2
F9074323.5196656622
sg3
(lp1258
S'RESULT:'
p1259
aS'SVMADMMAsync'
p1260
aS'29'
p1261
aS'32967'
p1262
aS'0.100014325'
p1263
aS'9074323.519665662'
p1264
aS'1.3869471729911165E-4'
p1265
aS'9074323.519804357'
p1266
aS'-0.05197248477787636,-0.05183096717330883,-0.05187550469485539,-0.051797999741960685,-0.05200203165047491,-0.051895837492514245,-0.051933413820619695,-0.05188007469485247,-0.05186494088471014,1.1673514898843396'
p1267
asg14
F0.00013869471729911165
sg15
I29
sg16
g1117
sg18
F0.100014325
sg19
g1266
sg20
g1267
sg21
I32967
sa(dp1268
g2
F9074434.9040209483
sg3
(lp1269
S'RESULT:'
p1270
aS'SVMADMMAsync'
p1271
aS'31'
p1272
aS'34545'
p1273
aS'0.100014325'
p1274
aS'9074434.904020948'
p1275
aS'1.3876135215805743E-4'
p1276
aS'9074434.90415971'
p1277
aS'-0.051798289794152574,-0.051720566489267865,-0.051736166777350524,-0.05174477806390188,-0.05191871404463749,-0.051897075337895296,-0.051933768753719675,-0.05183718009341216,-0.051798102562644416,1.167666551907924'
p1278
asg14
F0.00013876135215805743
sg15
I31
sg16
g1117
sg18
F0.100014325
sg19
g1277
sg20
g1278
sg21
I34545
sa(dp1279
g2
F9074359.7124071587
sg3
(lp1280
S'RESULT:'
p1281
aS'SVMADMMAsync'
p1282
aS'33'
p1283
aS'37221'
p1284
aS'0.100014325'
p1285
aS'9074359.712407159'
p1286
aS'1.3875517081380267E-4'
p1287
aS'9074359.712545915'
p1288
aS'-0.05198634378517417,-0.0518537363637004,-0.05185051835265088,-0.051871476528892194,-0.052011982819081766,-0.05191945744000403,-0.05200931231137626,-0.05193979009999725,-0.05194159928378365,1.1675956814650121'
p1289
asg14
F0.00013875517081380267
sg15
I33
sg16
g1117
sg18
F0.100014325
sg19
g1288
sg20
g1289
sg21
I37221
sa(dp1290
g2
F9074618.4119337201
sg3
(lp1291
S'RESULT:'
p1292
aS'SVMADMMAsync'
p1293
aS'35'
p1294
aS'39479'
p1295
aS'0.100014325'
p1296
aS'9074618.41193372'
p1297
aS'1.3879288975542827E-4'
p1298
aS'9074618.412072513'
p1299
aS'-0.05181089311192374,-0.051715204973998195,-0.05172832837015332,-0.051792130208131754,-0.051805794587851256,-0.05178912235583063,-0.05190453216460343,-0.051693802734895704,-0.05179364413068398,1.1678171761693847'
p1300
asg14
F0.00013879288975542827
sg15
I35
sg16
g1117
sg18
F0.100014325
sg19
g1299
sg20
g1300
sg21
I39479
sa(dp1301
g2
F9074488.6507217903
sg3
(lp1302
S'RESULT:'
p1303
aS'SVMADMMAsync'
p1304
aS'37'
p1305
aS'41325'
p1306
aS'0.100014325'
p1307
aS'9074488.65072179'
p1308
aS'1.3877334942347195E-4'
p1309
aS'9074488.650860563'
p1310
aS'-0.05186800546873663,-0.051770768155500274,-0.05182241790125073,-0.05183651891851046,-0.05183351098964039,-0.05181259739604972,-0.05185299833775246,-0.051781008544161844,-0.0516868890548789,1.1677232571222549'
p1311
asg14
F0.00013877334942347195
sg15
I37
sg16
g1117
sg18
F0.100014325
sg19
g1310
sg20
g1311
sg21
I41325
sa(dp1312
g2
F9074584.4141481295
sg3
(lp1313
S'RESULT:'
p1314
aS'SVMADMMAsync'
p1315
aS'39'
p1316
aS'42581'
p1317
aS'0.100014325'
p1318
aS'9074584.41414813'
p1319
aS'1.3880803626443484E-4'
p1320
aS'9074584.414286938'
p1321
aS'-0.05185036790437987,-0.0516903716129267,-0.05168178022697269,-0.05175681689920608,-0.051834608282828015,-0.05184067148946413,-0.05190699532091251,-0.051764806851701255,-0.05178116590129033,1.1678787311198155'
p1322
asg14
F0.00013880803626443484
sg15
I39
sg16
g1117
sg18
F0.100014325
sg19
g1321
sg20
g1322
sg21
I42581
sa(dp1323
g2
F9074322.2331145201
sg3
(lp1324
S'RESULT:'
p1325
aS'SVMADMMAsync'
p1326
aS'41'
p1327
aS'45042'
p1328
aS'0.100014325'
p1329
aS'9074322.23311452'
p1330
aS'1.3877249030832544E-4'
p1331
aS'9074322.233253293'
p1332
aS'-0.05190232063557598,-0.051805625172467194,-0.05177951013718142,-0.0518709273106508,-0.05203157373073586,-0.0520116757636373,-0.051987592824047885,-0.05186672661787842,-0.051857126451171874,1.1676818876920925'
p1333
asg14
F0.00013877249030832544
sg15
I41
sg16
g1117
sg18
F0.100014325
sg19
g1332
sg20
g1333
sg21
I45042
sa(dp1334
g2
F9074457.9942342732
sg3
(lp1335
S'RESULT:'
p1336
aS'SVMADMMAsync'
p1337
aS'43'
p1338
aS'46674'
p1339
aS'0.100014325'
p1340
aS'9074457.994234273'
p1341
aS'1.387815981057627E-4'
p1342
aS'9074457.994373055'
p1343
aS'-0.05181397674414527,-0.05189576626015281,-0.05175182200980766,-0.05180973355238851,-0.05189994396584838,-0.05181222899931292,-0.0518597090955781,-0.05181741660933854,-0.05168528970122808,1.167754969256467'
p1344
asg14
F0.00013878159810576271
sg15
I43
sg16
g1117
sg18
F0.100014325
sg19
g1343
sg20
g1344
sg21
I46674
sa(dp1345
g2
F9074346.4183328152
sg3
(lp1346
S'RESULT:'
p1347
aS'SVMADMMAsync'
p1348
aS'45'
p1349
aS'48870'
p1350
aS'0.100014325'
p1351
aS'9074346.418332815'
p1352
aS'1.388971229286733E-4'
p1353
aS'9074346.418471713'
p1354
aS'-0.05194718740832753,-0.051940051731933404,-0.05189286211964342,-0.051870827636459976,-0.05211692081417051,-0.05187314868700859,-0.0519784002023433,-0.051956399392819076,-0.051848783633275296,1.168201602145347'
p1355
asg14
F0.00013889712292867331
sg15
I45
sg16
g1117
sg18
F0.100014325
sg19
g1354
sg20
g1355
sg21
I48870
sa(dp1356
g2
F9074340.7016486153
sg3
(lp1357
S'RESULT:'
p1358
aS'SVMADMMAsync'
p1359
aS'47'
p1360
aS'51344'
p1361
aS'0.100014325'
p1362
aS'9074340.701648615'
p1363
aS'1.3875371997186807E-4'
p1364
aS'9074340.70178737'
p1365
aS'-0.05197174943546404,-0.051872090171412394,-0.05183747005988796,-0.05202617134287916,-0.051996502684178124,-0.05190976323258218,-0.05189006843926816,-0.05185841430382356,-0.051911669957206315,1.1675943738340833'
p1366
asg14
F0.00013875371997186807
sg15
I47
sg16
g1117
sg18
F0.100014325
sg19
g1365
sg20
g1366
sg21
I51344
sa(dp1367
g2
F9074339.6078721937
sg3
(lp1368
S'RESULT:'
p1369
aS'SVMADMMAsync'
p1370
aS'49'
p1371
aS'52539'
p1372
aS'0.100014325'
p1373
aS'9074339.607872194'
p1374
aS'1.3877455321124248E-4'
p1375
aS'9074339.608010968'
p1376
aS'-0.05195516537693961,-0.05179157330777215,-0.05181278215040486,-0.05179795652362135,-0.051981969421105265,-0.05193100813158853,-0.05182603494677968,-0.051798523186873655,-0.05187653689534001,1.1677059040742397'
p1377
asg14
F0.00013877455321124248
sg15
I49
sg16
g1117
sg18
F0.100014325
sg19
g1376
sg20
g1377
sg21
I52539
sa(dp1378
g2
F9074321.8369064722
sg3
(lp1379
S'RESULT:'
p1380
aS'SVMADMMAsync'
p1381
aS'51'
p1382
aS'54620'
p1383
aS'0.100014325'
p1384
aS'9074321.836906472'
p1385
aS'1.3877997949551343E-4'
p1386
aS'9074321.837045252'
p1387
aS'-0.05189268212262003,-0.051894533261169044,-0.05186685031040557,-0.051920521728945734,-0.05206355884297441,-0.05192547909943329,-0.051904045917636796,-0.051835780142745196,-0.05180095533513623,1.1677143505921177'
p1388
asg14
F0.00013877997949551343
sg15
I51
sg16
g1117
sg18
F0.100014325
sg19
g1387
sg20
g1388
sg21
I54620
sa(dp1389
g2
F9074703.9330585264
sg3
(lp1390
S'RESULT:'
p1391
aS'SVMADMMAsync'
p1392
aS'53'
p1393
aS'56207'
p1394
aS'0.100014325'
p1395
aS'9074703.933058526'
p1396
aS'1.3878635240131455E-4'
p1397
aS'9074703.933197312'
p1398
aS'-0.051803605474878674,-0.05172298145331489,-0.05169480235471718,-0.051710738037067945,-0.05193364683735666,-0.05184481387999229,-0.051812161551946304,-0.05173217130154348,-0.051636488522596974,1.1677954691059635'
p1399
asg14
F0.00013878635240131455
sg15
I53
sg16
g1117
sg18
F0.100014325
sg19
g1398
sg20
g1399
sg21
I56207
sa(dp1400
g2
F9074325.5947609283
sg3
(lp1401
S'RESULT:'
p1402
aS'SVMADMMAsync'
p1403
aS'55'
p1404
aS'58341'
p1405
aS'0.100014325'
p1406
aS'9074325.594760928'
p1407
aS'1.3877937514483022E-4'
p1408
aS'9074325.594899708'
p1409
aS'-0.05185784290063821,-0.05189804416786058,-0.05183037955290183,-0.051895859424935194,-0.05200731980216288,-0.05190500915016444,-0.05196225436024105,-0.051738094463500625,-0.051807473019625364,1.1677207407055936'
p1410
asg14
F0.00013877937514483022
sg15
I55
sg16
g1117
sg18
F0.100014325
sg19
g1409
sg20
g1410
sg21
I58341
sa(dp1411
g2
F9074324.2316492517
sg3
(lp1412
S'RESULT:'
p1413
aS'SVMADMMAsync'
p1414
aS'57'
p1415
aS'60739'
p1416
aS'0.100014325'
p1417
aS'9074324.231649252'
p1418
aS'1.3877089791798026E-4'
p1419
aS'9074324.231788022'
p1420
aS'-0.05188898633984717,-0.05192767588148744,-0.05181704352454011,-0.05187176246341255,-0.05194783359029872,-0.051903229968383334,-0.051968384818874946,-0.05177231234744593,-0.051812714366053704,1.167684108653085'
p1421
asg14
F0.00013877089791798026
sg15
I57
sg16
g1117
sg18
F0.100014325
sg19
g1420
sg20
g1421
sg21
I60739
sa(dp1422
g2
F9074363.7604415417
sg3
(lp1423
S'RESULT:'
p1424
aS'SVMADMMAsync'
p1425
aS'59'
p1426
aS'62537'
p1427
aS'0.100014325'
p1428
aS'9074363.760441542'
p1429
aS'1.3876203628808464E-4'
p1430
aS'9074363.760580303'
p1431
aS'-0.0518371279170906,-0.05184471246802565,-0.05182541215044648,-0.05188759209361627,-0.05201202138228433,-0.05185463402083685,-0.05189198458499762,-0.05171565097984503,-0.05175984507710848,1.1676586331890295'
p1432
asg14
F0.00013876203628808464
sg15
I59
sg16
g1117
sg18
F0.100014325
sg19
g1431
sg20
g1432
sg21
I62537
sa(dp1433
g2
F9075242.8349699266
sg3
(lp1434
S'RESULT:'
p1435
aS'SVMADMMAsync'
p1436
aS'61'
p1437
aS'64466'
p1438
aS'0.100014325'
p1439
aS'9075242.834969927'
p1440
aS'1.3877224971131172E-4'
p1441
aS'9075242.8351087'
p1442
aS'-0.05172334329161175,-0.05165363948928216,-0.051633035664734594,-0.051606040005984184,-0.05189831068879648,-0.05167197005463216,-0.0516722972184001,-0.05175657486263001,-0.05163767904938028,1.1677633725552834'
p1443
asg14
F0.00013877224971131172
sg15
I61
sg16
g1117
sg18
F0.100014325
sg19
g1442
sg20
g1443
sg21
I64466
sa(dp1444
g2
F9074828.9305935558
sg3
(lp1445
S'RESULT:'
p1446
aS'SVMADMMAsync'
p1447
aS'63'
p1448
aS'66739'
p1449
aS'0.100014325'
p1450
aS'9074828.930593556'
p1451
aS'1.3878241247261965E-4'
p1452
aS'9074828.930732338'
p1453
aS'-0.05175899237226228,-0.05171047077437186,-0.05166905721093435,-0.051639363466196936,-0.051869626444167996,-0.05176472048127705,-0.05176860286190076,-0.0518203235174557,-0.05171399647631732,1.1677864219443532'
p1454
asg14
F0.00013878241247261965
sg15
I63
sg16
g1117
sg18
F0.100014325
sg19
g1453
sg20
g1454
sg21
I66739
sa(dp1455
g2
F9074763.9069245923
sg3
(lp1456
S'RESULT:'
p1457
aS'SVMADMMAsync'
p1458
aS'65'
p1459
aS'68821'
p1460
aS'0.100014325'
p1461
aS'9074763.906924592'
p1462
aS'1.3886225087333484E-4'
p1463
aS'9074763.907063454'
p1464
aS'-0.051813821903156386,-0.05182963442631158,-0.051697412029212506,-0.05167866086186778,-0.051873088135696355,-0.05178879966248049,-0.051775971272306265,-0.05173551482382324,-0.05169085151372595,1.1681207400438842'
p1465
asg14
F0.00013886225087333484
sg15
I65
sg16
g1117
sg18
F0.100014325
sg19
g1464
sg20
g1465
sg21
I68821
sa(dp1466
g2
F9074367.1393603012
sg3
(lp1467
S'RESULT:'
p1468
aS'SVMADMMAsync'
p1469
aS'67'
p1470
aS'70964'
p1471
aS'0.100014325'
p1472
aS'9074367.139360301'
p1473
aS'1.3875953790345538E-4'
p1474
aS'9074367.13949906'
p1475
aS'-0.0518993753994501,-0.051840257223581133,-0.05183200733266219,-0.05175818105681004,-0.051889845700664926,-0.05191237016252303,-0.05191245617586348,-0.051800871121027804,-0.05176476831179732,1.1676487830045639'
p1476
asg14
F0.00013875953790345538
sg15
I67
sg16
g1117
sg18
F0.100014325
sg19
g1475
sg20
g1476
sg21
I70964
sa(dp1477
g2
F9074491.7356895115
sg3
(lp1478
S'RESULT:'
p1479
aS'SVMADMMAsync'
p1480
aS'69'
p1481
aS'72370'
p1482
aS'0.100014325'
p1483
aS'9074491.735689512'
p1484
aS'1.389863882362983E-4'
p1485
aS'9074491.735828498'
p1486
aS'-0.05196702460815711,-0.05204572091108251,-0.05193095867323195,-0.05203269728147472,-0.05204229764554094,-0.05202435054160963,-0.05201649966929481,-0.05199246214461368,-0.051938695732617765,1.1685584424111974'
p1487
asg14
F0.00013898638823629829
sg15
I69
sg16
g1117
sg18
F0.100014325
sg19
g1486
sg20
g1487
sg21
I72370
sa(dp1488
g2
F9074355.0573761556
sg3
(lp1489
S'RESULT:'
p1490
aS'SVMADMMAsync'
p1491
aS'71'
p1492
aS'74193'
p1493
aS'0.100014325'
p1494
aS'9074355.057376156'
p1495
aS'1.3876817176091002E-4'
p1496
aS'9074355.057514925'
p1497
aS'-0.05185249698595089,-0.05176427663921167,-0.05180547640078566,-0.05177352282725041,-0.052001601651699536,-0.051888223153239786,-0.05197473855331435,-0.051840795970047315,-0.05177317158016515,1.1676828908706678'
p1498
asg14
F0.00013876817176091002
sg15
I71
sg16
g1117
sg18
F0.100014325
sg19
g1497
sg20
g1498
sg21
I74193
sa(dp1499
g2
F9074684.3574499376
sg3
(lp1500
S'RESULT:'
p1501
aS'SVMADMMAsync'
p1502
aS'73'
p1503
aS'76387'
p1504
aS'0.100014325'
p1505
aS'9074684.357449938'
p1506
aS'1.3876296657382758E-4'
p1507
aS'9074684.357588701'
p1508
aS'-0.051787524239740444,-0.05167305967178335,-0.05163577307189409,-0.05177450589347835,-0.051923646829531406,-0.05178771116717086,-0.05187817638779936,-0.0517428905842853,-0.05169408224275749,1.1676950707594986'
p1509
asg14
F0.00013876296657382758
sg15
I73
sg16
g1117
sg18
F0.100014325
sg19
g1508
sg20
g1509
sg21
I76387
sa(dp1510
g2
F9079280.6902744304
sg3
(lp1511
S'RESULT:'
p1512
aS'SVMADMMAsync'
p1513
aS'75'
p1514
aS'78801'
p1515
aS'0.100014325'
p1516
aS'9079280.69027443'
p1517
aS'1.3880695854449576E-4'
p1518
aS'9079280.690413237'
p1519
aS'-0.05238746501953931,-0.05236683263299393,-0.05222163018678619,-0.05236434894439847,-0.052512564992236735,-0.052402487053639576,-0.05249905396572011,-0.05230322958834107,-0.05229105205465455,1.1676403587341935'
p1520
asg14
F0.00013880695854449576
sg15
I75
sg16
g1117
sg18
F0.100014325
sg19
g1519
sg20
g1520
sg21
I78801
sa(dp1521
g2
F9074373.3494227063
sg3
(lp1522
S'RESULT:'
p1523
aS'SVMADMMAsync'
p1524
aS'77'
p1525
aS'80739'
p1526
aS'0.100014325'
p1527
aS'9074373.349422706'
p1528
aS'1.387770932502484E-4'
p1529
aS'9074373.349561483'
p1530
aS'-0.051951643942720956,-0.05190770564206862,-0.0518379695865543,-0.05191613453383148,-0.052073354847188745,-0.05203021931506922,-0.052039838170042194,-0.051839600104641746,-0.051868762542290045,1.1676859396870634'
p1531
asg14
F0.0001387770932502484
sg15
I77
sg16
g1117
sg18
F0.100014325
sg19
g1530
sg20
g1531
sg21
I80739
sa(dp1532
g2
F9076053.3909690548
sg3
(lp1533
S'RESULT:'
p1534
aS'SVMADMMAsync'
p1535
aS'79'
p1536
aS'82352'
p1537
aS'0.100014325'
p1538
aS'9076053.390969055'
p1539
aS'1.3887755253798258E-4'
p1540
aS'9076053.391107932'
p1541
aS'-0.0516256454544553,-0.05162118598969964,-0.05161991870985599,-0.051551249392215774,-0.05163254098724481,-0.0517855949501696,-0.0516476568916451,-0.051548738553803014,-0.05167867872109497,1.1682381255850012'
p1542
asg14
F0.00013887755253798258
sg15
I79
sg16
g1117
sg18
F0.100014325
sg19
g1541
sg20
g1542
sg21
I82352
sa(dp1543
g2
F9074323.5711487699
sg3
(lp1544
S'RESULT:'
p1545
aS'SVMADMMAsync'
p1546
aS'81'
p1547
aS'84631'
p1548
aS'0.100014325'
p1549
aS'9074323.57114877'
p1550
aS'1.3875867376472088E-4'
p1551
aS'9074323.571287528'
p1552
aS'-0.05188498407820741,-0.05189963168005247,-0.05187477644610416,-0.051855831346327055,-0.05199104162048668,-0.051917204041994666,-0.05194680655671034,-0.05189746919990148,-0.05185874117067693,1.1676221491086114'
p1553
asg14
F0.00013875867376472088
sg15
I81
sg16
g1117
sg18
F0.100014325
sg19
g1552
sg20
g1553
sg21
I84631
sa(dp1554
g2
F9074402.874516895
sg3
(lp1555
S'RESULT:'
p1556
aS'SVMADMMAsync'
p1557
aS'83'
p1558
aS'86519'
p1559
aS'0.100014325'
p1560
aS'9074402.874516895'
p1561
aS'1.3883220447165703E-4'
p1562
aS'9074402.874655727'
p1563
aS'-0.051853289143334716,-0.05175957159732316,-0.051742736888070406,-0.051873976070571814,-0.05197395977107794,-0.05184279373804787,-0.05182760874024432,-0.051819199379141846,-0.05186152364098849,1.1679623674641098'
p1564
asg14
F0.00013883220447165703
sg15
I83
sg16
g1117
sg18
F0.100014325
sg19
g1563
sg20
g1564
sg21
I86519
sa(dp1565
g2
F9074373.0769356471
sg3
(lp1566
S'RESULT:'
p1567
aS'SVMADMMAsync'
p1568
aS'85'
p1569
aS'88527'
p1570
aS'0.100014325'
p1571
aS'9074373.076935647'
p1572
aS'1.3877296613914287E-4'
p1573
aS'9074373.07707442'
p1574
aS'-0.05192310529378047,-0.05188791379056165,-0.051832162063656734,-0.051925992686288905,-0.05204350811086113,-0.0519591569759139,-0.05206638640300961,-0.051941265590473525,-0.051880871546567765,1.1676684914662727'
p1575
asg14
F0.00013877296613914287
sg15
I85
sg16
g1117
sg18
F0.100014325
sg19
g1574
sg20
g1575
sg21
I88527
sa(dp1576
g2
F9074500.1953841299
sg3
(lp1577
S'RESULT:'
p1578
aS'SVMADMMAsync'
p1579
aS'87'
p1580
aS'90716'
p1581
aS'0.100014325'
p1582
aS'9074500.19538413'
p1583
aS'1.3881549157289044E-4'
p1584
aS'9074500.195522945'
p1585
aS'-0.05177262194526935,-0.05178406767902336,-0.05176920035138484,-0.051768469543991384,-0.05194150432781345,-0.05182912448561778,-0.05193421769213326,-0.05173982654736525,-0.051742459703496044,1.1679029344791831'
p1586
asg14
F0.00013881549157289044
sg15
I87
sg16
g1117
sg18
F0.100014325
sg19
g1585
sg20
g1586
sg21
I90716
sa(dp1587
g2
F9074334.3566480968
sg3
(lp1588
S'RESULT:'
p1589
aS'SVMADMMAsync'
p1590
aS'89'
p1591
aS'92828'
p1592
aS'0.100014325'
p1593
aS'9074334.356648097'
p1594
aS'1.387625745301377E-4'
p1595
aS'9074334.35678686'
p1596
aS'-0.051876570350995875,-0.05180295479837189,-0.05178578845169997,-0.05182855523691,-0.052002398844432016,-0.051771781237482786,-0.05199345068925427,-0.05194758080600385,-0.051791742638792375,1.1676533013317056'
p1597
asg14
F0.0001387625745301377
sg15
I89
sg16
g1117
sg18
F0.100014325
sg19
g1596
sg20
g1597
sg21
I92828
sa(dp1598
g2
F9074399.8586309087
sg3
(lp1599
S'RESULT:'
p1600
aS'SVMADMMAsync'
p1601
aS'91'
p1602
aS'94432'
p1603
aS'0.100014325'
p1604
aS'9074399.858630909'
p1605
aS'1.387809323975334E-4'
p1606
aS'9074399.858769689'
p1607
aS'-0.051874585551167134,-0.05179401482720221,-0.051744034002842526,-0.05179499069620409,-0.05196234398274396,-0.05184178473148415,-0.051929946642447156,-0.05183310477889613,-0.05173437308023067,1.1677448668084833'
p1608
asg14
F0.00013878093239753339
sg15
I91
sg16
g1117
sg18
F0.100014325
sg19
g1607
sg20
g1608
sg21
I94432
sa(dp1609
g2
F9074898.8633734323
sg3
(lp1610
S'RESULT:'
p1611
aS'SVMADMMAsync'
p1612
aS'93'
p1613
aS'96903'
p1614
aS'0.100014325'
p1615
aS'9074898.863373432'
p1616
aS'1.3904326159645204E-4'
p1617
aS'9074898.863512475'
p1618
aS'-0.05189688839774046,-0.05185234127908999,-0.05192927542694867,-0.0523098284851799,-0.05235386111846455,-0.0522735678828445,-0.05192569560114504,-0.05206249003142477,-0.05209953243003293,1.1687699094158506'
p1619
asg14
F0.00013904326159645204
sg15
I93
sg16
g1117
sg18
F0.100014325
sg19
g1618
sg20
g1619
sg21
I96903
sa(dp1620
g2
F9074408.2505177241
sg3
(lp1621
S'RESULT:'
p1622
aS'SVMADMMAsync'
p1623
aS'95'
p1624
aS'98709'
p1625
aS'0.100014325'
p1626
aS'9074408.250517724'
p1627
aS'1.388425397619241E-4'
p1628
aS'9074408.250656568'
p1629
aS'-0.05191513463522247,-0.05175000001494859,-0.05175312652711133,-0.05178692069153329,-0.0519861546303768,-0.051868298601292356,-0.051923225224161144,-0.05183327832587914,-0.051732361962067035,1.1680068726880637'
p1630
asg14
F0.00013884253976192409
sg15
I95
sg16
g1117
sg18
F0.100014325
sg19
g1629
sg20
g1630
sg21
I98709
sa(dp1631
g2
F9091029.9706257898
sg3
(lp1632
S'RESULT:'
p1633
aS'SVMADMMAsync'
p1634
aS'97'
p1635
aS'100578'
p1636
aS'0.100014325'
p1637
aS'9091029.97062579'
p1638
aS'1.389821915484942E-4'
p1639
aS'9091029.970764771'
p1640
aS'-0.0528846530367888,-0.0526440614950479,-0.05278596980425543,-0.052886063612696065,-0.05283196863055383,-0.05285506581012789,-0.05286168299276817,-0.05271115018814772,-0.05283022316728415,1.1682130401432527'
p1641
asg14
F0.00013898219154849419
sg15
I97
sg16
g1117
sg18
F0.100014325
sg19
g1640
sg20
g1641
sg21
I100578
sa(dp1642
g2
F9074611.1954230834
sg3
(lp1643
S'RESULT:'
p1644
aS'SVMADMMAsync'
p1645
aS'99'
p1646
aS'102559'
p1647
aS'0.100014325'
p1648
aS'9074611.195423083'
p1649
aS'1.3878435650634726E-4'
p1650
aS'9074611.195561867'
p1651
aS'-0.05182623074739308,-0.05179135279099894,-0.05167076978072007,-0.05171850263080179,-0.051889431119098564,-0.05179517222914685,-0.05191181189667682,-0.05174190379133841,-0.05169149354081618,1.1677804872607804'
p1652
asg14
F0.00013878435650634726
sg15
I99
sg16
g1117
sg18
F0.100014325
sg19
g1651
sg20
g1652
sg21
I102559
sa.