(lp0
(dp1
S'broadcastDelay'
p2
I-1
sS'dataset'
p3
S'cloud'
p4
sS'ADMMmaxLocalIterations'
p5
I1000
sS'expected_runtime'
p6
F1000.0
sS'iterations'
p7
F2.0
sS'total_loss'
p8
F22448223.12586474
sS'ADMMlocalEpsilon'
p9
F9.9999999999999995e-07
sS'numPartitions'
p10
I40
sS'datasetConfigStr'
p11
S'--pointCloudPointsPerPartition 500000 --pointCloudPartitionSkew 0.000000 --pointCloudLabelNoise 0.050000 --pointCloudDimension 2 '
p12
sS'ADMMrho'
p13
F1.0
sS'ADMMepsilon'
p14
F9.9999999999999995e-07
sS'pointCloudDim'
p15
I2
sS'regParam'
p16
F0.0001
sS'regType'
p17
S'L2'
p18
sS'line'
p19
(lp20
S'RESULT:'
p21
aS'SVMADMM'
p22
aS'2'
p23
aS'1000'
p24
aS'1654'
p25
aS'0.4999891'
p26
aS'2.244822312586409E7'
p27
aS'6.525316609872999E-7'
p28
aS'2.244822312586474E7'
p29
aS'-0.05441740625770221,-0.059699769732028195'
p30
aS'{input:'
p31
aS'null,'
p32
aS'format:'
p33
aS'cloud,'
p34
aS'numPartitions:'
p35
aS'40,'
p36
aS'algorithm:'
p37
aS'SVMADMM,'
p38
aS'algParams:'
p39
aS'{eta0:'
p40
aS'1.0,'
p41
aS'tol:'
p42
aS'1.0E-6,'
p43
aS'workerTol:'
p44
aS'1.0E-6,'
p45
aS'maxIterations:'
p46
aS'1000,'
p47
aS'maxWorkerIterations:'
p48
aS'1000,'
p49
aS'miniBatchSize:'
p50
aS'10,'
p51
aS'useLBFGS:'
p52
aS'false,'
p53
aS'rho0:'
p54
aS'1.0,'
p55
aS'lagrangianRho:'
p56
aS'0.5,'
p57
aS'regParam:'
p58
aS'1.0E-4,'
p59
aS'runtimeMS:'
p60
aS'1000,'
p61
aS'displayIncrementalStats:'
p62
aS'false,'
p63
aS'adaptiveRho:'
p64
aS'false,'
p65
aS'broadcastDelayMS:'
p66
aS'-1,'
p67
aS'usePorkChop:'
p68
aS'false},'
p69
aS'regType:'
p70
aS'L2,'
p71
aS'pointCloudDim:'
p72
aS'2,'
p73
aS'pointCloudNoise:'
p74
aS'0.05,'
p75
aS'pointCloudSkew:'
p76
aS'0.0,'
p77
aS'pointCloudPoints:'
p78
aS'500000,'
p79
aS'pointCloudSize:'
p80
aS'1.0}'
p81
aS'{iterations:'
p82
aS'2,'
p83
aS'avgSGDIters:'
p84
aS'[1000.0,'
p85
aS'1000.0,'
p86
aS'1000.0],'
p87
aS'runtime:'
p88
aS'1654}'
p89
asS'ADMMlagrangianRho'
p90
F0.5
sS'training_loss'
p91
F22448223.125864089
sS'algorithm'
p92
S'SVMADMM'
p93
sS'reg_penalty'
p94
F6.5253166098729988e-07
sS'command'
p95
S'cd /mnt/spark; sbin/stop-all.sh; sleep 5; sbin/start-all.sh; sleep 3;./bin/spark-submit --driver-memory 52g --class org.apache.spark.examples.mllib.research.SynchronousADMMTests examples/target/scala-*/spark-examples-*.jar --algorithm SVMADMM --regType L2 --regParam 0.000100 --format cloud --numPartitions 40 --runtimeMS 1000 --ADMMmaxLocalIterations 1000 --ADMMepsilon 0.000001  --ADMMLocalepsilon 0.000001 --ADMMrho 1.000000 --ADMMLagrangianrho 0.500000 --broadcastDelayMs -1  --pointCloudPointsPerPartition 500000 --pointCloudPartitionSkew 0.000000 --pointCloudLabelNoise 0.050000 --pointCloudDimension 2   '
p96
sS'pointCloudSkew'
p97
F0.0
sS'training_error'
p98
F0.49998910000000002
sS'model'
p99
g30
sS'runtime_ms'
p100
F1654.0
sa(dp101
g2
I100
sg3
g4
sg5
I1000
sg6
F1000.0
sg7
F76.25
sg8
F3802018.1703362218
sg9
F9.9999999999999995e-07
sg10
I40
sg11
S'--pointCloudPointsPerPartition 500000 --pointCloudPartitionSkew 0.000000 --pointCloudLabelNoise 0.050000 --pointCloudDimension 2 '
p102
sg13
F1.0
sg14
F9.9999999999999995e-07
sg15
I2
sg16
F0.0001
sg17
g18
sg19
(lp103
S'RESULT:'
p104
aS'SVMADMMAsync'
p105
aS'76.25'
p106
aS'1000'
p107
aS'1414'
p108
aS'0.0567126'
p109
aS'3802018.167838041'
p110
aS'0.0024981804292902713'
p111
aS'3802018.170336222'
p112
aS'0.68139539764815,-4.951515384704629'
p113
aS'{input:'
p114
aS'null,'
p115
aS'format:'
p116
aS'cloud,'
p117
aS'numPartitions:'
p118
aS'40,'
p119
aS'algorithm:'
p120
aS'SVMADMMAsync,'
p121
aS'algParams:'
p122
aS'{eta0:'
p123
aS'1.0,'
p124
aS'tol:'
p125
aS'1.0E-6,'
p126
aS'workerTol:'
p127
aS'1.0E-6,'
p128
aS'maxIterations:'
p129
aS'1000,'
p130
aS'maxWorkerIterations:'
p131
aS'1000,'
p132
aS'miniBatchSize:'
p133
aS'10,'
p134
aS'useLBFGS:'
p135
aS'false,'
p136
aS'rho0:'
p137
aS'1.0,'
p138
aS'lagrangianRho:'
p139
aS'0.5,'
p140
aS'regParam:'
p141
aS'1.0E-4,'
p142
aS'runtimeMS:'
p143
aS'1000,'
p144
aS'displayIncrementalStats:'
p145
aS'false,'
p146
aS'adaptiveRho:'
p147
aS'false,'
p148
aS'broadcastDelayMS:'
p149
aS'100,'
p150
aS'usePorkChop:'
p151
aS'false},'
p152
aS'regType:'
p153
aS'L2,'
p154
aS'pointCloudDim:'
p155
aS'2,'
p156
aS'pointCloudNoise:'
p157
aS'0.05,'
p158
aS'pointCloudSkew:'
p159
aS'0.0,'
p160
aS'pointCloudPoints:'
p161
aS'500000,'
p162
aS'pointCloudSize:'
p163
aS'1.0}'
p164
aS'{avgMsgsSent:'
p165
aS'[10.0,'
p166
aS'10.0,'
p167
aS'10.0],'
p168
aS'avgMsgsRcvd:'
p169
aS'[70.0,'
p170
aS'70.0,'
p171
aS'70.0],'
p172
aS'avgSGDIters:'
p173
aS'[0.0,'
p174
aS'5.025,'
p175
aS'201.0],'
p176
aS'iterations:'
p177
aS'76.25,'
p178
aS'runtime:'
p179
aS'1414}'
p180
asg90
F0.5
sg91
F3802018.1678380412
sg92
S'SVMADMMAsync'
p181
sg94
F0.0024981804292902713
sg95
S'cd /mnt/spark; sbin/stop-all.sh; sleep 5; sbin/start-all.sh; sleep 3;./bin/spark-submit --driver-memory 52g --class org.apache.spark.examples.mllib.research.SynchronousADMMTests examples/target/scala-*/spark-examples-*.jar --algorithm SVMADMMAsync --regType L2 --regParam 0.000100 --format cloud --numPartitions 40 --runtimeMS 1000 --ADMMmaxLocalIterations 1000 --ADMMepsilon 0.000001  --ADMMLocalepsilon 0.000001 --ADMMrho 1.000000 --ADMMLagrangianrho 0.500000 --broadcastDelayMs 100  --pointCloudPointsPerPartition 500000 --pointCloudPartitionSkew 0.000000 --pointCloudLabelNoise 0.050000 --pointCloudDimension 2   '
p182
sg97
F0.0
sg98
F0.056712600000000002
sg99
g113
sg100
F1414.0
sa(dp183
g2
I5
sg3
g4
sg5
I1000
sg6
F1000.0
sg7
F9557.0
sg8
F79526679.369871289
sg9
F9.9999999999999995e-07
sg10
I40
sg11
S'--pointCloudPointsPerPartition 500000 --pointCloudPartitionSkew 0.000000 --pointCloudLabelNoise 0.050000 --pointCloudDimension 2 '
p184
sg13
F1.0
sg14
F9.9999999999999995e-07
sg15
I2
sg16
F0.0001
sg17
g18
sg19
(lp185
S'RESULT:'
p186
aS'HOGWILDSVM'
p187
aS'9557.0'
p188
aS'1000'
p189
aS'1884'
p190
aS'0.4999891'
p191
aS'7.952667936891533E7'
p192
aS'9.559506591227683E-4'
p193
aS'7.952667936987129E7'
p194
aS'-0.3986718542774997,-3.066034465532738'
p195
aS'{input:'
p196
aS'null,'
p197
aS'format:'
p198
aS'cloud,'
p199
aS'numPartitions:'
p200
aS'40,'
p201
aS'algorithm:'
p202
aS'HOGWILDSVM,'
p203
aS'algParams:'
p204
aS'{eta0:'
p205
aS'1.0,'
p206
aS'tol:'
p207
aS'1.0E-6,'
p208
aS'workerTol:'
p209
aS'1.0E-6,'
p210
aS'maxIterations:'
p211
aS'1000,'
p212
aS'maxWorkerIterations:'
p213
aS'1000,'
p214
aS'miniBatchSize:'
p215
aS'10,'
p216
aS'useLBFGS:'
p217
aS'false,'
p218
aS'rho0:'
p219
aS'1.0,'
p220
aS'lagrangianRho:'
p221
aS'0.5,'
p222
aS'regParam:'
p223
aS'1.0E-4,'
p224
aS'runtimeMS:'
p225
aS'1000,'
p226
aS'displayIncrementalStats:'
p227
aS'false,'
p228
aS'adaptiveRho:'
p229
aS'false,'
p230
aS'broadcastDelayMS:'
p231
aS'5,'
p232
aS'usePorkChop:'
p233
aS'false},'
p234
aS'regType:'
p235
aS'L2,'
p236
aS'pointCloudDim:'
p237
aS'2,'
p238
aS'pointCloudNoise:'
p239
aS'0.05,'
p240
aS'pointCloudSkew:'
p241
aS'0.0,'
p242
aS'pointCloudPoints:'
p243
aS'500000,'
p244
aS'pointCloudSize:'
p245
aS'1.0}'
p246
aS'{iterations:'
p247
aS'9557.0,'
p248
aS'msgsSent:'
p249
aS'[139.0,'
p250
aS'150.275,'
p251
aS'163.0],'
p252
aS'avgMsgsRcvd:'
p253
aS'[0.0,'
p254
aS'0.0,'
p255
aS'0.0],'
p256
aS'runtime:'
p257
aS'1884}'
p258
asg90
F0.5
sg91
F79526679.368915334
sg92
S'HOGWILDSVM'
p259
sg94
F0.00095595065912276831
sg95
S'cd /mnt/spark; sbin/stop-all.sh; sleep 5; sbin/start-all.sh; sleep 3;./bin/spark-submit --driver-memory 52g --class org.apache.spark.examples.mllib.research.SynchronousADMMTests examples/target/scala-*/spark-examples-*.jar --algorithm HOGWILDSVM --regType L2 --regParam 0.000100 --format cloud --numPartitions 40 --runtimeMS 1000 --ADMMmaxLocalIterations 1000 --ADMMepsilon 0.000001  --ADMMLocalepsilon 0.000001 --ADMMrho 1.000000 --ADMMLagrangianrho 0.500000 --broadcastDelayMs 5  --pointCloudPointsPerPartition 500000 --pointCloudPartitionSkew 0.000000 --pointCloudLabelNoise 0.050000 --pointCloudDimension 2   '
p260
sg97
F0.0
sg98
F0.49998910000000002
sg99
g195
sg100
F1884.0
sa(dp261
g2
I100
sg3
g4
sg5
I1000
sg6
F1000.0
sg7
F2.0
sg8
F128102780.84278721
sg9
F9.9999999999999995e-07
sg10
I40
sg11
S'--pointCloudPointsPerPartition 500000 --pointCloudPartitionSkew 0.000000 --pointCloudLabelNoise 0.050000 --pointCloudDimension 2 '
p262
sg13
F1.0
sg14
F9.9999999999999995e-07
sg15
I2
sg16
F0.0001
sg17
g18
sg19
(lp263
S'RESULT:'
p264
aS'SVM'
p265
ag23
aS'1000'
p266
aS'2315'
p267
aS'0.5000107'
p268
aS'1.2810278084228118E8'
p269
aS'5.060291784500365E-4'
p270
aS'1.281027808427872E8'
p271
aS'2.2495092318159364,-2.18E-5'
p272
aS'{input:'
p273
aS'null,'
p274
aS'format:'
p275
aS'cloud,'
p276
aS'numPartitions:'
p277
aS'40,'
p278
aS'algorithm:'
p279
aS'SVM,'
p280
aS'algParams:'
p281
aS'{eta0:'
p282
aS'1.0,'
p283
aS'tol:'
p284
aS'1.0E-6,'
p285
aS'workerTol:'
p286
aS'1.0E-6,'
p287
aS'maxIterations:'
p288
aS'1000,'
p289
aS'maxWorkerIterations:'
p290
aS'1000,'
p291
aS'miniBatchSize:'
p292
aS'10,'
p293
aS'useLBFGS:'
p294
aS'false,'
p295
aS'rho0:'
p296
aS'1.0,'
p297
aS'lagrangianRho:'
p298
aS'0.5,'
p299
aS'regParam:'
p300
aS'1.0E-4,'
p301
aS'runtimeMS:'
p302
aS'1000,'
p303
aS'displayIncrementalStats:'
p304
aS'false,'
p305
aS'adaptiveRho:'
p306
aS'false,'
p307
aS'broadcastDelayMS:'
p308
aS'100,'
p309
aS'usePorkChop:'
p310
aS'false},'
p311
aS'regType:'
p312
aS'L2,'
p313
aS'pointCloudDim:'
p314
aS'2,'
p315
aS'pointCloudNoise:'
p316
aS'0.05,'
p317
aS'pointCloudSkew:'
p318
aS'0.0,'
p319
aS'pointCloudPoints:'
p320
aS'500000,'
p321
aS'pointCloudSize:'
p322
aS'1.0}'
p323
aS'{iterations:'
p324
aS'2,'
p325
aS'runtime:'
p326
aS'2315}'
p327
asg90
F0.5
sg91
F128102780.84228118
sg92
S'SVM'
p328
sg94
F0.0005060291784500365
sg95
S'cd /mnt/spark; sbin/stop-all.sh; sleep 5; sbin/start-all.sh; sleep 3;./bin/spark-submit --driver-memory 52g --class org.apache.spark.examples.mllib.research.SynchronousADMMTests examples/target/scala-*/spark-examples-*.jar --algorithm SVM --regType L2 --regParam 0.000100 --format cloud --numPartitions 40 --runtimeMS 1000 --ADMMmaxLocalIterations 1000 --ADMMepsilon 0.000001  --ADMMLocalepsilon 0.000001 --ADMMrho 1.000000 --ADMMLagrangianrho 0.500000 --broadcastDelayMs 100  --pointCloudPointsPerPartition 500000 --pointCloudPartitionSkew 0.000000 --pointCloudLabelNoise 0.050000 --pointCloudDimension 2   '
p329
sg97
F0.0
sg98
F0.50001070000000003
sg99
g272
sg100
F2315.0
sa(dp330
g2
I-1
sg3
g4
sg5
I1000
sg6
F1000.0
sg7
F2.0
sg8
F18575545.556689385
sg9
F9.9999999999999995e-07
sg10
I40
sg11
S'--pointCloudPointsPerPartition 500000 --pointCloudPartitionSkew 0.000000 --pointCloudLabelNoise 0.050000 --pointCloudDimension 100 '
p331
sg13
F1.0
sg14
F9.9999999999999995e-07
sg15
I100
sg16
F0.0001
sg17
g18
sg19
(lp332
S'RESULT:'
p333
aS'SVMADMM'
p334
ag23
aS'1000'
p335
aS'1555'
p336
aS'0.5000127'
p337
aS'1.857554555668938E7'
p338
aS'4.1362275812891435E-9'
p339
aS'1.8575545556689385E7'
p340
aS'-7.667951631747703E-5,-3.00010481424933E-4,2.682564102825957E-4,7.042827472404312E-4,4.246407183431203E-4,7.039957003189311E-4,-6.66772107553502E-4,5.196463890635787E-4,0.0010416378156702815,0.001084783316498569,-6.816792407268313E-5,1.285507644254936E-4,-7.737179416732803E-4,6.480094800781728E-4,0.0024214416479470396,-2.1642943409624446E-4,5.742711492281464E-4,6.446032675906927E-4,1.7519885146717953E-4,-1.263679431168729E-4,5.254592443589142E-4,0.0010406298895698433,6.727002980533615E-4,-7.62800871867624E-4,1.4079865749045326E-5,1.675990185537509E-5,-3.398248605487798E-5,-5.891439199094807E-5,0.001635669220156335,-3.4985065079290106E-5,-2.3921695201948435E-4,3.210849400584063E-4,5.907582231223353E-4,-1.1319957286632436E-4,-1.9146564673993552E-4,-7.187601250723475E-4,-2.3969707429727607E-4,-3.995500204111096E-4,3.398320948955876E-4,8.637578086856156E-4,1.458772215143699E-4,8.905275645020247E-4,1.1192048156372896E-4,2.2405172265903544E-4,7.992819992562808E-4,2.118028134135272E-4,7.341051941512688E-4,3.751449135281319E-4,4.7208459917553905E-4,0.0010857346147424415,0.001064800220059142,4.0164982166153294E-4,-2.6213524638648504E-4,-3.7192815205417046E-4,8.081849498815025E-5,2.391763284708025E-4,6.99334223333561E-4,5.180070779525592E-4,1.1406077647077261E-4,9.698533465018146E-4,4.063799204157102E-4,7.749403461636739E-5,1.7285873546299556E-4,-1.3995298388173443E-4,0.0015946305717648044,6.820740348949029E-4,-6.137222095970294E-5,9.150873957432078E-5,-2.8959396855385714E-5,2.696029088928036E-4,6.49857684794577E-4,-6.50573227498174E-4,9.795379537716818E-4,1.6521121673307183E-4,-6.199597709395149E-4,3.039147812630138E-4,0.001417510739122517,4.347379178407105E-4,8.66399020685426E-4,-3.2948389123462477E-4,6.622107794137248E-4,8.887785157968311E-4,5.25670072024366E-4,1.8889620969345008E-4,-1.2582959171616068E-4,-3.040897729626838E-4,6.511887571815322E-4,5.473914342469006E-4,2.76592700545845E-4,7.399611326100023E-4,-6.957462277432595E-4,2.0755274938094646E-4,8.164834283387927E-5,2.9451390881754953E-4,-8.3553888552747E-5,4.6581615145742345E-4,0.0011910837914163152,1.0155040658953656E-4,9.197071145484404E-4,-5.992838494351711E-4'
p341
aS'{input:'
p342
aS'null,'
p343
aS'format:'
p344
aS'cloud,'
p345
aS'numPartitions:'
p346
aS'40,'
p347
aS'algorithm:'
p348
aS'SVMADMM,'
p349
aS'algParams:'
p350
aS'{eta0:'
p351
aS'1.0,'
p352
aS'tol:'
p353
aS'1.0E-6,'
p354
aS'workerTol:'
p355
aS'1.0E-6,'
p356
aS'maxIterations:'
p357
aS'1000,'
p358
aS'maxWorkerIterations:'
p359
aS'1000,'
p360
aS'miniBatchSize:'
p361
aS'10,'
p362
aS'useLBFGS:'
p363
aS'false,'
p364
aS'rho0:'
p365
aS'1.0,'
p366
aS'lagrangianRho:'
p367
aS'0.5,'
p368
aS'regParam:'
p369
aS'1.0E-4,'
p370
aS'runtimeMS:'
p371
aS'1000,'
p372
aS'displayIncrementalStats:'
p373
aS'false,'
p374
aS'adaptiveRho:'
p375
aS'false,'
p376
aS'broadcastDelayMS:'
p377
aS'-1,'
p378
aS'usePorkChop:'
p379
aS'false},'
p380
aS'regType:'
p381
aS'L2,'
p382
aS'pointCloudDim:'
p383
aS'100,'
p384
aS'pointCloudNoise:'
p385
aS'0.05,'
p386
aS'pointCloudSkew:'
p387
aS'0.0,'
p388
aS'pointCloudPoints:'
p389
aS'500000,'
p390
aS'pointCloudSize:'
p391
aS'1.0}'
p392
aS'{iterations:'
p393
aS'2,'
p394
aS'avgSGDIters:'
p395
aS'[701.0,'
p396
aS'987.575,'
p397
aS'1000.0],'
p398
aS'runtime:'
p399
aS'1555}'
p400
asg90
F0.5
sg91
F18575545.556689382
sg92
g93
sg94
F4.1362275812891435e-09
sg95
S'cd /mnt/spark; sbin/stop-all.sh; sleep 5; sbin/start-all.sh; sleep 3;./bin/spark-submit --driver-memory 52g --class org.apache.spark.examples.mllib.research.SynchronousADMMTests examples/target/scala-*/spark-examples-*.jar --algorithm SVMADMM --regType L2 --regParam 0.000100 --format cloud --numPartitions 40 --runtimeMS 1000 --ADMMmaxLocalIterations 1000 --ADMMepsilon 0.000001  --ADMMLocalepsilon 0.000001 --ADMMrho 1.000000 --ADMMLagrangianrho 0.500000 --broadcastDelayMs -1  --pointCloudPointsPerPartition 500000 --pointCloudPartitionSkew 0.000000 --pointCloudLabelNoise 0.050000 --pointCloudDimension 100   '
p401
sg97
F0.0
sg98
F0.50001269999999998
sg99
g341
sg100
F1555.0
sa(dp402
g2
I100
sg3
g4
sg5
I1000
sg6
F1000.0
sg7
F24.5
sg8
F17065202.295038022
sg9
F9.9999999999999995e-07
sg10
I40
sg11
S'--pointCloudPointsPerPartition 500000 --pointCloudPartitionSkew 0.000000 --pointCloudLabelNoise 0.050000 --pointCloudDimension 100 '
p403
sg13
F1.0
sg14
F9.9999999999999995e-07
sg15
I100
sg16
F0.0001
sg17
g18
sg19
(lp404
S'RESULT:'
p405
aS'SVMADMMAsync'
p406
aS'24.5'
p407
aS'1000'
p408
aS'1391'
p409
aS'0.5000127'
p410
aS'1.7065202295035698E7'
p411
aS'2.3227289294112942E-6'
p412
aS'1.7065202295038022E7'
p413
aS'-0.003472050214914817,0.0010717043717857063,-0.004923041010015748,0.004805563643313542,0.006799365144709976,0.0034273709071232935,0.008871346214355908,0.007051247024243319,-0.0027710789542396445,0.003952260673949114,0.0022361656282086566,0.0013928556532168083,0.003878929014422726,9.065780052901297E-4,0.005204383475793223,0.0028656846271056524,0.004073394192037794,0.0022904915038899003,0.004561613146966314,-0.0077225988861363126,-0.004494252550417942,0.0013739348836507323,-3.030402907274128E-4,-0.0016001667577499098,0.003253971980270277,-0.0033720335818834715,0.0028048868090338277,-0.0014244800212664418,-8.346673676044481E-5,0.0047842982641207645,0.004417989059567245,9.871794312870752E-4,0.008168107932299273,0.0020687069262248703,-2.2584312613004422E-4,5.208111053677729E-4,-0.006040095472022131,2.950629669980882E-4,0.0019529767165871806,0.0018132242316485107,-0.00243210030176903,0.005524224176335708,9.36012477696155E-4,0.005216636780290299,9.906423633669168E-4,0.004639947742587679,0.001023660225071365,0.006219261350264919,0.0021710868741506547,-0.002508822667093942,0.00304252839499017,0.0011903959614439953,0.0030241355091525464,0.005812933149874369,-0.0031514410248932715,2.725152814548714E-4,0.006522021761747836,0.00416458136569472,7.04634482300673E-5,0.0019373217086275955,0.0016161877165564288,0.0031439241228657234,-9.379750837134128E-4,0.003848505386088955,0.0020016574964043785,-7.618697527853234E-4,-6.743543847394534E-5,3.0685325148617466E-4,0.0014171827432310573,0.006677173341927435,-0.0013219310745335884,7.364166114703683E-4,-0.0012728218469121209,-9.630827907976471E-4,3.207290161628825E-4,0.0015038132834460096,0.003059693286650477,9.549758423458556E-4,0.002205980059477289,0.001607705964374309,-0.0033192471808246964,-0.002934673577644355,0.0037584862361698793,-8.713195975743527E-4,3.327417186791971E-4,0.001648896488147782,0.001702321217481088,2.300923111549277E-4,0.001623409065321251,0.004382391562483604,0.003967110364108418,0.002544499246464596,0.003366168251725669,0.001763670608320837,0.008003520581977518,0.0022697957961071596,9.096838397472009E-4,4.5922913842273434E-4,0.0015197119715689388,-0.14846188170003838'
p414
aS'{input:'
p415
aS'null,'
p416
aS'format:'
p417
aS'cloud,'
p418
aS'numPartitions:'
p419
aS'40,'
p420
aS'algorithm:'
p421
aS'SVMADMMAsync,'
p422
aS'algParams:'
p423
aS'{eta0:'
p424
aS'1.0,'
p425
aS'tol:'
p426
aS'1.0E-6,'
p427
aS'workerTol:'
p428
aS'1.0E-6,'
p429
aS'maxIterations:'
p430
aS'1000,'
p431
aS'maxWorkerIterations:'
p432
aS'1000,'
p433
aS'miniBatchSize:'
p434
aS'10,'
p435
aS'useLBFGS:'
p436
aS'false,'
p437
aS'rho0:'
p438
aS'1.0,'
p439
aS'lagrangianRho:'
p440
aS'0.5,'
p441
aS'regParam:'
p442
aS'1.0E-4,'
p443
aS'runtimeMS:'
p444
aS'1000,'
p445
aS'displayIncrementalStats:'
p446
aS'false,'
p447
aS'adaptiveRho:'
p448
aS'false,'
p449
aS'broadcastDelayMS:'
p450
aS'100,'
p451
aS'usePorkChop:'
p452
aS'false},'
p453
aS'regType:'
p454
aS'L2,'
p455
aS'pointCloudDim:'
p456
aS'100,'
p457
aS'pointCloudNoise:'
p458
aS'0.05,'
p459
aS'pointCloudSkew:'
p460
aS'0.0,'
p461
aS'pointCloudPoints:'
p462
aS'500000,'
p463
aS'pointCloudSize:'
p464
aS'1.0}'
p465
aS'{avgMsgsSent:'
p466
aS'[10.0,'
p467
aS'10.0,'
p468
aS'10.0],'
p469
aS'avgMsgsRcvd:'
p470
aS'[70.0,'
p471
aS'70.0,'
p472
aS'70.0],'
p473
aS'avgSGDIters:'
p474
aS'[0.0,'
p475
aS'357.95,'
p476
aS'1000.0],'
p477
aS'iterations:'
p478
aS'24.5,'
p479
aS'runtime:'
p480
aS'1391}'
p481
asg90
F0.5
sg91
F17065202.295035698
sg92
g181
sg94
F2.3227289294112942e-06
sg95
S'cd /mnt/spark; sbin/stop-all.sh; sleep 5; sbin/start-all.sh; sleep 3;./bin/spark-submit --driver-memory 52g --class org.apache.spark.examples.mllib.research.SynchronousADMMTests examples/target/scala-*/spark-examples-*.jar --algorithm SVMADMMAsync --regType L2 --regParam 0.000100 --format cloud --numPartitions 40 --runtimeMS 1000 --ADMMmaxLocalIterations 1000 --ADMMepsilon 0.000001  --ADMMLocalepsilon 0.000001 --ADMMrho 1.000000 --ADMMLagrangianrho 0.500000 --broadcastDelayMs 100  --pointCloudPointsPerPartition 500000 --pointCloudPartitionSkew 0.000000 --pointCloudLabelNoise 0.050000 --pointCloudDimension 100   '
p482
sg97
F0.0
sg98
F0.50001269999999998
sg99
g414
sg100
F1391.0
sa(dp483
g2
I5
sg3
g4
sg5
I1000
sg6
F1000.0
sg7
F5748.25
sg8
F144539508.88441938
sg9
F9.9999999999999995e-07
sg10
I40
sg11
S'--pointCloudPointsPerPartition 500000 --pointCloudPartitionSkew 0.000000 --pointCloudLabelNoise 0.050000 --pointCloudDimension 100 '
p484
sg13
F1.0
sg14
F9.9999999999999995e-07
sg15
I100
sg16
F0.0001
sg17
g18
sg19
(lp485
S'RESULT:'
p486
aS'HOGWILDSVM'
p487
aS'5748.25'
p488
aS'1000'
p489
aS'1879'
p490
aS'0.55023615'
p491
aS'1.4453950887400976E8'
p492
aS'0.010409618722238884'
p493
aS'1.4453950888441938E8'
p494
aS'1.3375721394456788,0.9631809168190684,0.44438435223288164,0.5316772959012591,0.2934533717354097,0.0343034647158618,0.09192803570692934,0.09069422471970855,-0.29851347699646047,1.3486454769366534,-0.19636427692580685,1.92385395479897,0.5797067477466886,-1.4332089760289497,-0.21626608037767875,-1.4532731567240695,1.439680942278528,0.047281816876270845,0.9593779264824047,-0.5688109066005409,1.168592427167277,1.971897881308465,0.5135817335393918,-1.2546208593966273,-1.8245586293478668,-0.5469946186293827,-1.6954818471686546,0.14070271757965047,-1.7056823088700923,-0.8466981827115236,0.8413201409825388,1.6120643959333885,-0.8479691141322248,-0.34413084151793516,1.3082176185884002,-0.2675424319245972,0.11787309346815672,-0.5522087671086796,-0.22138863276714474,0.23700505855597853,-0.1604977848573105,-1.5491353401956984,-1.0562197284673902,0.39409035258070424,-0.8972425756774595,0.7881990989920147,-0.5682989794646045,-0.8441662865441596,-0.9772356854583168,0.587868173331717,2.1749311561001814E-4,0.6769777511578228,0.8244944125461361,-0.7394216787074148,-0.8823417599918065,0.6212040455877446,-0.49681951957516785,0.9480618854617473,-0.6567816943707572,-0.4930009343433398,0.7377038545646466,0.30361692300600984,-3.7845148487442866,0.8355586911331078,-0.3617118538301051,0.06567630425989153,-1.0275951776280527,2.1720804510383975,-0.0019279499772882555,0.605559397169748,-2.007792328746798,-0.5841528332180375,0.311437036394903,0.4654623705258795,-0.5521856530799629,0.003290911027915188,0.412195566776249,-0.2785918066850198,1.2402753414917602,-0.8396211794006733,-0.10010429520225693,0.06509249384624073,0.6340906442564715,0.31280562873615453,1.503575510213924,1.1161415254056166,1.5265198176129935,-0.4751688218077667,-0.47553024642924246,0.3824514885277634,-0.1846241679326276,1.0462307589396511,-1.0998152169533904,0.17580653331838325,-0.5960719781426621,-0.9549056234665878,0.622552954330228,-1.5970485462393431,0.26083061709063127,-2.924612447144435'
p495
aS'{input:'
p496
aS'null,'
p497
aS'format:'
p498
aS'cloud,'
p499
aS'numPartitions:'
p500
aS'40,'
p501
aS'algorithm:'
p502
aS'HOGWILDSVM,'
p503
aS'algParams:'
p504
aS'{eta0:'
p505
aS'1.0,'
p506
aS'tol:'
p507
aS'1.0E-6,'
p508
aS'workerTol:'
p509
aS'1.0E-6,'
p510
aS'maxIterations:'
p511
aS'1000,'
p512
aS'maxWorkerIterations:'
p513
aS'1000,'
p514
aS'miniBatchSize:'
p515
aS'10,'
p516
aS'useLBFGS:'
p517
aS'false,'
p518
aS'rho0:'
p519
aS'1.0,'
p520
aS'lagrangianRho:'
p521
aS'0.5,'
p522
aS'regParam:'
p523
aS'1.0E-4,'
p524
aS'runtimeMS:'
p525
aS'1000,'
p526
aS'displayIncrementalStats:'
p527
aS'false,'
p528
aS'adaptiveRho:'
p529
aS'false,'
p530
aS'broadcastDelayMS:'
p531
aS'5,'
p532
aS'usePorkChop:'
p533
aS'false},'
p534
aS'regType:'
p535
aS'L2,'
p536
aS'pointCloudDim:'
p537
aS'100,'
p538
aS'pointCloudNoise:'
p539
aS'0.05,'
p540
aS'pointCloudSkew:'
p541
aS'0.0,'
p542
aS'pointCloudPoints:'
p543
aS'500000,'
p544
aS'pointCloudSize:'
p545
aS'1.0}'
p546
aS'{iterations:'
p547
aS'5748.25,'
p548
aS'msgsSent:'
p549
aS'[144.0,'
p550
aS'160.4,'
p551
aS'169.0],'
p552
aS'avgMsgsRcvd:'
p553
aS'[0.0,'
p554
aS'0.0,'
p555
aS'0.0],'
p556
aS'runtime:'
p557
aS'1879}'
p558
asg90
F0.5
sg91
F144539508.87400976
sg92
g259
sg94
F0.010409618722238884
sg95
S'cd /mnt/spark; sbin/stop-all.sh; sleep 5; sbin/start-all.sh; sleep 3;./bin/spark-submit --driver-memory 52g --class org.apache.spark.examples.mllib.research.SynchronousADMMTests examples/target/scala-*/spark-examples-*.jar --algorithm HOGWILDSVM --regType L2 --regParam 0.000100 --format cloud --numPartitions 40 --runtimeMS 1000 --ADMMmaxLocalIterations 1000 --ADMMepsilon 0.000001  --ADMMLocalepsilon 0.000001 --ADMMrho 1.000000 --ADMMLagrangianrho 0.500000 --broadcastDelayMs 5  --pointCloudPointsPerPartition 500000 --pointCloudPartitionSkew 0.000000 --pointCloudLabelNoise 0.050000 --pointCloudDimension 100   '
p559
sg97
F0.0
sg98
F0.55023615000000003
sg99
g495
sg100
F1879.0
sa(dp560
g2
I100
sg3
g4
sg5
I1000
sg6
F1000.0
sg7
F2.0
sg8
F11703465201.089462
sg9
F9.9999999999999995e-07
sg10
I40
sg11
S'--pointCloudPointsPerPartition 500000 --pointCloudPartitionSkew 0.000000 --pointCloudLabelNoise 0.050000 --pointCloudDimension 100 '
p561
sg13
F1.0
sg14
F9.9999999999999995e-07
sg15
I100
sg16
F0.0001
sg17
g18
sg19
(lp562
S'RESULT:'
p563
aS'SVM'
p564
ag23
aS'1000'
p565
aS'2526'
p566
aS'0.5000127'
p567
aS'1.1703465201039356E10'
p568
aS'0.05010535969966744'
p569
aS'1.1703465201089462E10'
p570
aS'2.249489846134916,2.2499477342718817,2.249217331803953,2.2499334180764143,2.249828531420588,2.249728517574647,2.2491818495994336,2.2497606432877584,2.2494401465644462,2.2498592946309626,2.249913436766298,2.249640861948689,2.2497321204709824,2.2497266467047536,2.2497761408397094,2.2496456396647946,2.249537300448693,2.2496762732084714,2.249738013610834,2.2495394705059417,2.249798802932603,2.2497170011105774,2.249649786956416,2.24983841049783,2.2499961165816895,2.2499345885167337,2.2496045709338675,2.249792798889215,2.249554317705784,2.2496895334406193,2.2501264343317082,2.249413785885085,2.249964763281614,2.249386515133601,2.249518054382708,2.2495611492889998,2.249603319799243,2.2497284527719934,2.2495068055312766,2.250043789087867,2.249908500937409,2.2499160342867284,2.2494407122658004,2.249698383929415,2.249468473321051,2.2498573867040967,2.2495129057826713,2.24948206025106,2.2497634963112274,2.2495713086593723,2.249828116671342,2.2493523428473616,2.2497482823512325,2.249503926793744,2.2497988012643044,2.250079403939333,2.2493822863126933,2.2496053235685722,2.249721478542106,2.2501321211292877,2.249581006548478,2.249872451680194,2.249589597995117,2.249833260155658,2.2500671059510164,2.249925023924833,2.2499693344100553,2.249920522682013,2.249460596309547,2.249703842854801,2.249699140298719,2.249394865558481,2.2498686671520693,2.249998173461581,2.249520424546846,2.249520936184019,2.249875499906509,2.2495528811072507,2.249363075080816,2.2497032504389907,2.2498725026757636,2.24930324892443,2.2497048932371273,2.2498353151612736,2.2496701510417902,2.249904406641425,2.249649794225174,2.2494773956417182,2.2497352498169936,2.249778184543269,2.2499971651755706,2.2496675253028644,2.249783853951599,2.249691597895085,2.2493521385972306,2.249550809941223,2.2495978561363703,2.249710133928805,2.250025402166121,-2.54E-5'
p571
aS'{input:'
p572
aS'null,'
p573
aS'format:'
p574
aS'cloud,'
p575
aS'numPartitions:'
p576
aS'40,'
p577
aS'algorithm:'
p578
aS'SVM,'
p579
aS'algParams:'
p580
aS'{eta0:'
p581
aS'1.0,'
p582
aS'tol:'
p583
aS'1.0E-6,'
p584
aS'workerTol:'
p585
aS'1.0E-6,'
p586
aS'maxIterations:'
p587
aS'1000,'
p588
aS'maxWorkerIterations:'
p589
aS'1000,'
p590
aS'miniBatchSize:'
p591
aS'10,'
p592
aS'useLBFGS:'
p593
aS'false,'
p594
aS'rho0:'
p595
aS'1.0,'
p596
aS'lagrangianRho:'
p597
aS'0.5,'
p598
aS'regParam:'
p599
aS'1.0E-4,'
p600
aS'runtimeMS:'
p601
aS'1000,'
p602
aS'displayIncrementalStats:'
p603
aS'false,'
p604
aS'adaptiveRho:'
p605
aS'false,'
p606
aS'broadcastDelayMS:'
p607
aS'100,'
p608
aS'usePorkChop:'
p609
aS'false},'
p610
aS'regType:'
p611
aS'L2,'
p612
aS'pointCloudDim:'
p613
aS'100,'
p614
aS'pointCloudNoise:'
p615
aS'0.05,'
p616
aS'pointCloudSkew:'
p617
aS'0.0,'
p618
aS'pointCloudPoints:'
p619
aS'500000,'
p620
aS'pointCloudSize:'
p621
aS'1.0}'
p622
aS'{iterations:'
p623
aS'2,'
p624
aS'runtime:'
p625
aS'2526}'
p626
asg90
F0.5
sg91
F11703465201.039356
sg92
g328
sg94
F0.050105359699667437
sg95
S'cd /mnt/spark; sbin/stop-all.sh; sleep 5; sbin/start-all.sh; sleep 3;./bin/spark-submit --driver-memory 52g --class org.apache.spark.examples.mllib.research.SynchronousADMMTests examples/target/scala-*/spark-examples-*.jar --algorithm SVM --regType L2 --regParam 0.000100 --format cloud --numPartitions 40 --runtimeMS 1000 --ADMMmaxLocalIterations 1000 --ADMMepsilon 0.000001  --ADMMLocalepsilon 0.000001 --ADMMrho 1.000000 --ADMMLagrangianrho 0.500000 --broadcastDelayMs 100  --pointCloudPointsPerPartition 500000 --pointCloudPartitionSkew 0.000000 --pointCloudLabelNoise 0.050000 --pointCloudDimension 100   '
p627
sg97
F0.0
sg98
F0.50001269999999998
sg99
g571
sg100
F2526.0
sa(dp628
g2
I-1
sg3
g4
sg5
I1000
sg6
F5000.0
sg7
F10.0
sg8
F19170480.202637739
sg9
F9.9999999999999995e-07
sg10
I40
sg11
S'--pointCloudPointsPerPartition 500000 --pointCloudPartitionSkew 0.000000 --pointCloudLabelNoise 0.050000 --pointCloudDimension 2 '
p629
sg13
F1.0
sg14
F9.9999999999999995e-07
sg15
I2
sg16
F0.0001
sg17
g18
sg19
(lp630
S'RESULT:'
p631
aS'SVMADMM'
p632
aS'10'
p633
aS'5000'
p634
aS'5368'
p635
aS'0.4999891'
p636
aS'1.9170480202618096E7'
p637
aS'1.9642455698879465E-5'
p638
aS'1.917048020263774E7'
p639
aS'0.01843350359470124,-0.44281459205181894'
p640
aS'{input:'
p641
aS'null,'
p642
aS'format:'
p643
aS'cloud,'
p644
aS'numPartitions:'
p645
aS'40,'
p646
aS'algorithm:'
p647
aS'SVMADMM,'
p648
aS'algParams:'
p649
aS'{eta0:'
p650
aS'1.0,'
p651
aS'tol:'
p652
aS'1.0E-6,'
p653
aS'workerTol:'
p654
aS'1.0E-6,'
p655
aS'maxIterations:'
p656
aS'1000,'
p657
aS'maxWorkerIterations:'
p658
aS'1000,'
p659
aS'miniBatchSize:'
p660
aS'10,'
p661
aS'useLBFGS:'
p662
aS'false,'
p663
aS'rho0:'
p664
aS'1.0,'
p665
aS'lagrangianRho:'
p666
aS'0.5,'
p667
aS'regParam:'
p668
aS'1.0E-4,'
p669
aS'runtimeMS:'
p670
aS'5000,'
p671
aS'displayIncrementalStats:'
p672
aS'false,'
p673
aS'adaptiveRho:'
p674
aS'false,'
p675
aS'broadcastDelayMS:'
p676
aS'-1,'
p677
aS'usePorkChop:'
p678
aS'false},'
p679
aS'regType:'
p680
aS'L2,'
p681
aS'pointCloudDim:'
p682
aS'2,'
p683
aS'pointCloudNoise:'
p684
aS'0.05,'
p685
aS'pointCloudSkew:'
p686
aS'0.0,'
p687
aS'pointCloudPoints:'
p688
aS'500000,'
p689
aS'pointCloudSize:'
p690
aS'1.0}'
p691
aS'{iterations:'
p692
aS'10,'
p693
aS'avgSGDIters:'
p694
aS'[1000.0,'
p695
aS'1000.0,'
p696
aS'1000.0],'
p697
aS'runtime:'
p698
aS'5368}'
p699
asg90
F0.5
sg91
F19170480.202618096
sg92
g93
sg94
F1.9642455698879465e-05
sg95
S'cd /mnt/spark; sbin/stop-all.sh; sleep 5; sbin/start-all.sh; sleep 3;./bin/spark-submit --driver-memory 52g --class org.apache.spark.examples.mllib.research.SynchronousADMMTests examples/target/scala-*/spark-examples-*.jar --algorithm SVMADMM --regType L2 --regParam 0.000100 --format cloud --numPartitions 40 --runtimeMS 5000 --ADMMmaxLocalIterations 1000 --ADMMepsilon 0.000001  --ADMMLocalepsilon 0.000001 --ADMMrho 1.000000 --ADMMLagrangianrho 0.500000 --broadcastDelayMs -1  --pointCloudPointsPerPartition 500000 --pointCloudPartitionSkew 0.000000 --pointCloudLabelNoise 0.050000 --pointCloudDimension 2   '
p700
sg97
F0.0
sg98
F0.49998910000000002
sg99
g640
sg100
F5368.0
sa(dp701
g2
I100
sg3
g4
sg5
I1000
sg6
F5000.0
sg7
F599.125
sg8
F3721423.8312000479
sg9
F9.9999999999999995e-07
sg10
I40
sg11
S'--pointCloudPointsPerPartition 500000 --pointCloudPartitionSkew 0.000000 --pointCloudLabelNoise 0.050000 --pointCloudDimension 2 '
p702
sg13
F1.0
sg14
F9.9999999999999995e-07
sg15
I2
sg16
F0.0001
sg17
g18
sg19
(lp703
S'RESULT:'
p704
aS'SVMADMMAsync'
p705
aS'599.125'
p706
aS'5000'
p707
aS'5418'
p708
aS'0.0556472'
p709
aS'3721423.828222419'
p710
aS'0.0029776286178250164'
p711
aS'3721423.831200048'
p712
aS'0.7211039117688073,-5.408908885041593'
p713
aS'{input:'
p714
aS'null,'
p715
aS'format:'
p716
aS'cloud,'
p717
aS'numPartitions:'
p718
aS'40,'
p719
aS'algorithm:'
p720
aS'SVMADMMAsync,'
p721
aS'algParams:'
p722
aS'{eta0:'
p723
aS'1.0,'
p724
aS'tol:'
p725
aS'1.0E-6,'
p726
aS'workerTol:'
p727
aS'1.0E-6,'
p728
aS'maxIterations:'
p729
aS'1000,'
p730
aS'maxWorkerIterations:'
p731
aS'1000,'
p732
aS'miniBatchSize:'
p733
aS'10,'
p734
aS'useLBFGS:'
p735
aS'false,'
p736
aS'rho0:'
p737
aS'1.0,'
p738
aS'lagrangianRho:'
p739
aS'0.5,'
p740
aS'regParam:'
p741
aS'1.0E-4,'
p742
aS'runtimeMS:'
p743
aS'5000,'
p744
aS'displayIncrementalStats:'
p745
aS'false,'
p746
aS'adaptiveRho:'
p747
aS'false,'
p748
aS'broadcastDelayMS:'
p749
aS'100,'
p750
aS'usePorkChop:'
p751
aS'false},'
p752
aS'regType:'
p753
aS'L2,'
p754
aS'pointCloudDim:'
p755
aS'2,'
p756
aS'pointCloudNoise:'
p757
aS'0.05,'
p758
aS'pointCloudSkew:'
p759
aS'0.0,'
p760
aS'pointCloudPoints:'
p761
aS'500000,'
p762
aS'pointCloudSize:'
p763
aS'1.0}'
p764
aS'{avgMsgsSent:'
p765
aS'[50.0,'
p766
aS'50.0,'
p767
aS'50.0],'
p768
aS'avgMsgsRcvd:'
p769
aS'[350.0,'
p770
aS'350.0,'
p771
aS'350.0],'
p772
aS'avgSGDIters:'
p773
aS'[0.0,'
p774
aS'0.0,'
p775
aS'0.0],'
p776
aS'iterations:'
p777
aS'599.125,'
p778
aS'runtime:'
p779
aS'5418}'
p780
asg90
F0.5
sg91
F3721423.8282224191
sg92
g181
sg94
F0.0029776286178250164
sg95
S'cd /mnt/spark; sbin/stop-all.sh; sleep 5; sbin/start-all.sh; sleep 3;./bin/spark-submit --driver-memory 52g --class org.apache.spark.examples.mllib.research.SynchronousADMMTests examples/target/scala-*/spark-examples-*.jar --algorithm SVMADMMAsync --regType L2 --regParam 0.000100 --format cloud --numPartitions 40 --runtimeMS 5000 --ADMMmaxLocalIterations 1000 --ADMMepsilon 0.000001  --ADMMLocalepsilon 0.000001 --ADMMrho 1.000000 --ADMMLagrangianrho 0.500000 --broadcastDelayMs 100  --pointCloudPointsPerPartition 500000 --pointCloudPartitionSkew 0.000000 --pointCloudLabelNoise 0.050000 --pointCloudDimension 2   '
p781
sg97
F0.0
sg98
F0.055647200000000001
sg99
g713
sg100
F5418.0
sa(dp782
g2
I5
sg3
g4
sg5
I1000
sg6
F5000.0
sg7
F990286.0
sg8
F24444125.696073856
sg9
F9.9999999999999995e-07
sg10
I40
sg11
S'--pointCloudPointsPerPartition 500000 --pointCloudPartitionSkew 0.000000 --pointCloudLabelNoise 0.050000 --pointCloudDimension 2 '
p783
sg13
F1.0
sg14
F9.9999999999999995e-07
sg15
I2
sg16
F0.0001
sg17
g18
sg19
(lp784
S'RESULT:'
p785
aS'HOGWILDSVM'
p786
aS'990286.0'
p787
aS'5000'
p788
aS'5899'
p789
aS'0.4822299'
p790
aS'2.4444125695483755E7'
p791
aS'5.901016901218242E-4'
p792
aS'2.4444125696073856E7'
p793
aS'0.7155769837421542,-2.3214147586238703'
p794
aS'{input:'
p795
aS'null,'
p796
aS'format:'
p797
aS'cloud,'
p798
aS'numPartitions:'
p799
aS'40,'
p800
aS'algorithm:'
p801
aS'HOGWILDSVM,'
p802
aS'algParams:'
p803
aS'{eta0:'
p804
aS'1.0,'
p805
aS'tol:'
p806
aS'1.0E-6,'
p807
aS'workerTol:'
p808
aS'1.0E-6,'
p809
aS'maxIterations:'
p810
aS'1000,'
p811
aS'maxWorkerIterations:'
p812
aS'1000,'
p813
aS'miniBatchSize:'
p814
aS'10,'
p815
aS'useLBFGS:'
p816
aS'false,'
p817
aS'rho0:'
p818
aS'1.0,'
p819
aS'lagrangianRho:'
p820
aS'0.5,'
p821
aS'regParam:'
p822
aS'1.0E-4,'
p823
aS'runtimeMS:'
p824
aS'5000,'
p825
aS'displayIncrementalStats:'
p826
aS'false,'
p827
aS'adaptiveRho:'
p828
aS'false,'
p829
aS'broadcastDelayMS:'
p830
aS'5,'
p831
aS'usePorkChop:'
p832
aS'false},'
p833
aS'regType:'
p834
aS'L2,'
p835
aS'pointCloudDim:'
p836
aS'2,'
p837
aS'pointCloudNoise:'
p838
aS'0.05,'
p839
aS'pointCloudSkew:'
p840
aS'0.0,'
p841
aS'pointCloudPoints:'
p842
aS'500000,'
p843
aS'pointCloudSize:'
p844
aS'1.0}'
p845
aS'{iterations:'
p846
aS'990286.0,'
p847
aS'msgsSent:'
p848
aS'[876.0,'
p849
aS'888.95,'
p850
aS'903.0],'
p851
aS'avgMsgsRcvd:'
p852
aS'[0.0,'
p853
aS'0.0,'
p854
aS'0.0],'
p855
aS'runtime:'
p856
aS'5899}'
p857
asg90
F0.5
sg91
F24444125.695483755
sg92
g259
sg94
F0.00059010169012182416
sg95
S'cd /mnt/spark; sbin/stop-all.sh; sleep 5; sbin/start-all.sh; sleep 3;./bin/spark-submit --driver-memory 52g --class org.apache.spark.examples.mllib.research.SynchronousADMMTests examples/target/scala-*/spark-examples-*.jar --algorithm HOGWILDSVM --regType L2 --regParam 0.000100 --format cloud --numPartitions 40 --runtimeMS 5000 --ADMMmaxLocalIterations 1000 --ADMMepsilon 0.000001  --ADMMLocalepsilon 0.000001 --ADMMrho 1.000000 --ADMMLagrangianrho 0.500000 --broadcastDelayMs 5  --pointCloudPointsPerPartition 500000 --pointCloudPartitionSkew 0.000000 --pointCloudLabelNoise 0.050000 --pointCloudDimension 2   '
p858
sg97
F0.0
sg98
F0.48222989999999999
sg99
g794
sg100
F5899.0
sa(dp859
g2
I100
sg3
g4
sg5
I1000
sg6
F5000.0
sg7
F5.0
sg8
F75256167.57350193
sg9
F9.9999999999999995e-07
sg10
I40
sg11
S'--pointCloudPointsPerPartition 500000 --pointCloudPartitionSkew 0.000000 --pointCloudLabelNoise 0.050000 --pointCloudDimension 2 '
p860
sg13
F1.0
sg14
F9.9999999999999995e-07
sg15
I2
sg16
F0.0001
sg17
g18
sg19
(lp861
S'RESULT:'
p862
aS'SVM'
p863
aS'5'
p864
aS'5000'
p865
aS'5283'
p866
aS'0.5000102'
p867
aS'7.525616757331304E7'
p868
aS'1.8889005759721388E-4'
p869
aS'7.525616757350193E7'
p870
aS'1.317475982147316,-0.3913535644875402'
p871
aS'{input:'
p872
aS'null,'
p873
aS'format:'
p874
aS'cloud,'
p875
aS'numPartitions:'
p876
aS'40,'
p877
aS'algorithm:'
p878
aS'SVM,'
p879
aS'algParams:'
p880
aS'{eta0:'
p881
aS'1.0,'
p882
aS'tol:'
p883
aS'1.0E-6,'
p884
aS'workerTol:'
p885
aS'1.0E-6,'
p886
aS'maxIterations:'
p887
aS'1000,'
p888
aS'maxWorkerIterations:'
p889
aS'1000,'
p890
aS'miniBatchSize:'
p891
aS'10,'
p892
aS'useLBFGS:'
p893
aS'false,'
p894
aS'rho0:'
p895
aS'1.0,'
p896
aS'lagrangianRho:'
p897
aS'0.5,'
p898
aS'regParam:'
p899
aS'1.0E-4,'
p900
aS'runtimeMS:'
p901
aS'5000,'
p902
aS'displayIncrementalStats:'
p903
aS'false,'
p904
aS'adaptiveRho:'
p905
aS'false,'
p906
aS'broadcastDelayMS:'
p907
aS'100,'
p908
aS'usePorkChop:'
p909
aS'false},'
p910
aS'regType:'
p911
aS'L2,'
p912
aS'pointCloudDim:'
p913
aS'2,'
p914
aS'pointCloudNoise:'
p915
aS'0.05,'
p916
aS'pointCloudSkew:'
p917
aS'0.0,'
p918
aS'pointCloudPoints:'
p919
aS'500000,'
p920
aS'pointCloudSize:'
p921
aS'1.0}'
p922
aS'{iterations:'
p923
aS'5,'
p924
aS'runtime:'
p925
aS'5283}'
p926
asg90
F0.5
sg91
F75256167.573313043
sg92
g328
sg94
F0.00018889005759721388
sg95
S'cd /mnt/spark; sbin/stop-all.sh; sleep 5; sbin/start-all.sh; sleep 3;./bin/spark-submit --driver-memory 52g --class org.apache.spark.examples.mllib.research.SynchronousADMMTests examples/target/scala-*/spark-examples-*.jar --algorithm SVM --regType L2 --regParam 0.000100 --format cloud --numPartitions 40 --runtimeMS 5000 --ADMMmaxLocalIterations 1000 --ADMMepsilon 0.000001  --ADMMLocalepsilon 0.000001 --ADMMrho 1.000000 --ADMMLagrangianrho 0.500000 --broadcastDelayMs 100  --pointCloudPointsPerPartition 500000 --pointCloudPartitionSkew 0.000000 --pointCloudLabelNoise 0.050000 --pointCloudDimension 2   '
p927
sg97
F0.0
sg98
F0.50001019999999996
sg99
g871
sg100
F5283.0
sa(dp928
g2
I-1
sg3
g4
sg5
I1000
sg6
F5000.0
sg7
F10.0
sg8
F17970046.821663149
sg9
F9.9999999999999995e-07
sg10
I40
sg11
S'--pointCloudPointsPerPartition 500000 --pointCloudPartitionSkew 0.000000 --pointCloudLabelNoise 0.050000 --pointCloudDimension 100 '
p929
sg13
F1.0
sg14
F9.9999999999999995e-07
sg15
I100
sg16
F0.0001
sg17
g18
sg19
(lp930
S'RESULT:'
p931
aS'SVMADMM'
p932
aS'10'
p933
aS'5000'
p934
aS'5418'
p935
aS'0.5000127'
p936
aS'1.797004682166313E7'
p937
aS'1.9210195677777723E-8'
p938
aS'1.797004682166315E7'
p939
aS'-8.398513501441726E-4,0.0010733828630587318,1.4993427009618134E-5,0.0014653695196670889,1.3916930763138402E-5,0.002926479649490303,4.924453177519027E-4,0.001055551775030155,0.0017339661037988122,4.3753532857446605E-4,-5.907893493446935E-4,3.0455444833191213E-4,8.802081943267164E-4,0.003084679208677908,0.001266215817626809,-6.916742868010318E-4,-0.0011721702201730408,0.001635304600741592,0.001402933041400879,4.0521795316680783E-4,0.0022178513292797695,6.725923202183452E-4,-3.423440602681792E-4,1.3878566863622708E-4,4.0814961761060075E-4,-7.191610066206379E-4,-5.75599050499256E-4,0.001276418425528911,0.0010887705747312229,-5.093456472756837E-5,4.179031668975736E-4,-0.0011002365560846684,9.154375744391504E-4,7.331122934826483E-5,-3.915949640150522E-4,7.171831396592546E-4,-6.654639867018753E-4,3.6842712212522936E-5,0.0030252576292535546,7.452985533180801E-4,0.0010639075414379338,0.002244861471533256,0.0013478367974901352,0.0014206838921090818,0.0016360610779810572,-8.018213232002673E-4,0.0013777710485158023,7.188910461006414E-4,0.0013408210561415557,-0.0011047948782314796,-2.542859179577634E-4,4.367058175583903E-4,0.001880498073827946,3.514504991261178E-4,-3.5192026507479185E-4,1.4931148949109664E-4,4.47007591211675E-4,-0.001654313599422058,6.888068798655047E-4,0.001721083651837607,-3.81943951365133E-5,3.640705736736067E-4,-7.271658171688816E-5,-7.748519501538028E-4,0.00168619526603614,0.0012565329208361435,-0.0014801330095669397,9.43264713640058E-4,5.045032145384218E-4,8.391404281985012E-4,9.580267160600865E-4,-8.622465612323306E-4,6.327361179136412E-4,6.426083074541903E-4,-1.7043748379366903E-4,0.0013216699775415299,0.0011551961022423071,2.0141242846064217E-4,0.0023811104278150677,8.096520131023855E-4,2.869975161286579E-5,0.0022477784489060605,0.001504599205230125,3.2428974287913837E-4,4.6187774479981473E-4,8.012768374213472E-4,-6.887089812286745E-4,-0.0031372256868708415,-6.445070562305223E-4,-3.825466526600311E-4,-0.0016830450190814055,8.030136405288327E-4,1.2743752466948105E-5,-3.852451975796105E-6,3.279975165188604E-4,-2.9227447385570595E-4,-5.686594979097077E-4,6.821598939147009E-4,-4.2094581624396705E-4,-0.007710856344600543'
p940
aS'{input:'
p941
aS'null,'
p942
aS'format:'
p943
aS'cloud,'
p944
aS'numPartitions:'
p945
aS'40,'
p946
aS'algorithm:'
p947
aS'SVMADMM,'
p948
aS'algParams:'
p949
aS'{eta0:'
p950
aS'1.0,'
p951
aS'tol:'
p952
aS'1.0E-6,'
p953
aS'workerTol:'
p954
aS'1.0E-6,'
p955
aS'maxIterations:'
p956
aS'1000,'
p957
aS'maxWorkerIterations:'
p958
aS'1000,'
p959
aS'miniBatchSize:'
p960
aS'10,'
p961
aS'useLBFGS:'
p962
aS'false,'
p963
aS'rho0:'
p964
aS'1.0,'
p965
aS'lagrangianRho:'
p966
aS'0.5,'
p967
aS'regParam:'
p968
aS'1.0E-4,'
p969
aS'runtimeMS:'
p970
aS'5000,'
p971
aS'displayIncrementalStats:'
p972
aS'false,'
p973
aS'adaptiveRho:'
p974
aS'false,'
p975
aS'broadcastDelayMS:'
p976
aS'-1,'
p977
aS'usePorkChop:'
p978
aS'false},'
p979
aS'regType:'
p980
aS'L2,'
p981
aS'pointCloudDim:'
p982
aS'100,'
p983
aS'pointCloudNoise:'
p984
aS'0.05,'
p985
aS'pointCloudSkew:'
p986
aS'0.0,'
p987
aS'pointCloudPoints:'
p988
aS'500000,'
p989
aS'pointCloudSize:'
p990
aS'1.0}'
p991
aS'{iterations:'
p992
aS'10,'
p993
aS'avgSGDIters:'
p994
aS'[301.0,'
p995
aS'922.725,'
p996
aS'1000.0],'
p997
aS'runtime:'
p998
aS'5418}'
p999
asg90
F0.5
sg91
F17970046.82166313
sg92
g93
sg94
F1.9210195677777723e-08
sg95
S'cd /mnt/spark; sbin/stop-all.sh; sleep 5; sbin/start-all.sh; sleep 3;./bin/spark-submit --driver-memory 52g --class org.apache.spark.examples.mllib.research.SynchronousADMMTests examples/target/scala-*/spark-examples-*.jar --algorithm SVMADMM --regType L2 --regParam 0.000100 --format cloud --numPartitions 40 --runtimeMS 5000 --ADMMmaxLocalIterations 1000 --ADMMepsilon 0.000001  --ADMMLocalepsilon 0.000001 --ADMMrho 1.000000 --ADMMLagrangianrho 0.500000 --broadcastDelayMs -1  --pointCloudPointsPerPartition 500000 --pointCloudPartitionSkew 0.000000 --pointCloudLabelNoise 0.050000 --pointCloudDimension 100   '
p1000
sg97
F0.0
sg98
F0.50001269999999998
sg99
g940
sg100
F5418.0
sa(dp1001
g2
I100
sg3
g4
sg5
I1000
sg6
F5000.0
sg7
F149.34999999999999
sg8
F2277734.5088841068
sg9
F9.9999999999999995e-07
sg10
I40
sg11
S'--pointCloudPointsPerPartition 500000 --pointCloudPartitionSkew 0.000000 --pointCloudLabelNoise 0.050000 --pointCloudDimension 100 '
p1002
sg13
F1.0
sg14
F9.9999999999999995e-07
sg15
I100
sg16
F0.0001
sg17
g18
sg19
(lp1003
S'RESULT:'
p1004
aS'SVMADMMAsync'
p1005
aS'149.35'
p1006
aS'5000'
p1007
aS'5408'
p1008
aS'0.0500328'
p1009
aS'2277734.5073136035'
p1010
aS'0.0015705030584300683'
p1011
aS'2277734.5088841068'
p1012
aS'0.0034948854638312816,4.442265762205566E-4,0.008786379784981853,0.004261679670117601,0.008298833196556636,0.005686841506907525,0.0022737669250869636,0.008696277386151894,0.0030002014840696495,0.0030068603188694383,0.012550560314250697,0.004314976795766821,0.004839425549186303,0.004476248766171169,0.004336041675593412,0.0017190650958249442,0.004348501160242262,0.006260546146309586,0.015147521499029704,0.009691854456492165,0.00578463546527076,-0.0011191138335272504,-0.0014820514225784111,0.0035910859765862294,0.007054786911457072,0.007855500105500707,0.005106264987782101,0.003093860870291208,0.005849059712760075,0.008350907906796353,0.003213859179066838,0.007058884978027447,0.005652866385555236,0.006495228921275753,0.003148660197449901,0.0028264498821737754,0.006473660002308481,0.0019260375706908965,0.0058155272734455735,0.008902191590453672,0.006516476721289021,0.005448761338416962,0.011432523972064937,0.004610923900824373,0.008574563743447245,0.004123223790322729,0.006540089926408469,0.0029630995810038265,0.00268130588474007,0.006674007556542498,0.00735471172577322,0.005174675138203476,0.001616828492667864,0.0016774897398650769,0.01052430673207389,0.006270914548980033,0.0043914892611936025,4.369567353690574E-4,0.004131955877050193,0.004037745036432179,5.748899794964375E-4,0.005076855558036273,0.003810655065897924,0.008455851526073461,0.006166544419294772,0.005901191623948029,0.0027637250969769307,0.008575045793833697,0.007258504846939644,0.004660184725486087,0.00383237286709581,0.003986902932872432,0.004054225212312306,0.008008953658699235,0.006228739026497477,0.006477154619239614,0.0032049109278918355,0.0020722012927214396,0.004473904463199584,-3.681972696861287E-5,0.0027105698477083357,0.003660801602775699,0.007405185970221124,0.005068595307033825,0.0069788866738410785,0.008658744671450315,0.008942293142827299,0.005740793768000094,0.0054356838299033355,0.002448724277463032,0.0015762605941203338,0.00801132000526728,-0.0013495544148387393,0.004197847150329189,0.011921670608473071,-0.002990129217479104,0.0080853979618104,0.0018076398411290063,0.009164350354005363,-3.9625056126606513'
p1013
aS'{input:'
p1014
aS'null,'
p1015
aS'format:'
p1016
aS'cloud,'
p1017
aS'numPartitions:'
p1018
aS'40,'
p1019
aS'algorithm:'
p1020
aS'SVMADMMAsync,'
p1021
aS'algParams:'
p1022
aS'{eta0:'
p1023
aS'1.0,'
p1024
aS'tol:'
p1025
aS'1.0E-6,'
p1026
aS'workerTol:'
p1027
aS'1.0E-6,'
p1028
aS'maxIterations:'
p1029
aS'1000,'
p1030
aS'maxWorkerIterations:'
p1031
aS'1000,'
p1032
aS'miniBatchSize:'
p1033
aS'10,'
p1034
aS'useLBFGS:'
p1035
aS'false,'
p1036
aS'rho0:'
p1037
aS'1.0,'
p1038
aS'lagrangianRho:'
p1039
aS'0.5,'
p1040
aS'regParam:'
p1041
aS'1.0E-4,'
p1042
aS'runtimeMS:'
p1043
aS'5000,'
p1044
aS'displayIncrementalStats:'
p1045
aS'false,'
p1046
aS'adaptiveRho:'
p1047
aS'false,'
p1048
aS'broadcastDelayMS:'
p1049
aS'100,'
p1050
aS'usePorkChop:'
p1051
aS'false},'
p1052
aS'regType:'
p1053
aS'L2,'
p1054
aS'pointCloudDim:'
p1055
aS'100,'
p1056
aS'pointCloudNoise:'
p1057
aS'0.05,'
p1058
aS'pointCloudSkew:'
p1059
aS'0.0,'
p1060
aS'pointCloudPoints:'
p1061
aS'500000,'
p1062
aS'pointCloudSize:'
p1063
aS'1.0}'
p1064
aS'{avgMsgsSent:'
p1065
aS'[50.0,'
p1066
aS'50.0,'
p1067
aS'50.0],'
p1068
aS'avgMsgsRcvd:'
p1069
aS'[350.0,'
p1070
aS'350.0,'
p1071
aS'350.0],'
p1072
aS'avgSGDIters:'
p1073
aS'[0.0,'
p1074
aS'265.525,'
p1075
aS'1000.0],'
p1076
aS'iterations:'
p1077
aS'149.35,'
p1078
aS'runtime:'
p1079
aS'5408}'
p1080
asg90
F0.5
sg91
F2277734.5073136035
sg92
g181
sg94
F0.0015705030584300683
sg95
S'cd /mnt/spark; sbin/stop-all.sh; sleep 5; sbin/start-all.sh; sleep 3;./bin/spark-submit --driver-memory 52g --class org.apache.spark.examples.mllib.research.SynchronousADMMTests examples/target/scala-*/spark-examples-*.jar --algorithm SVMADMMAsync --regType L2 --regParam 0.000100 --format cloud --numPartitions 40 --runtimeMS 5000 --ADMMmaxLocalIterations 1000 --ADMMepsilon 0.000001  --ADMMLocalepsilon 0.000001 --ADMMrho 1.000000 --ADMMLagrangianrho 0.500000 --broadcastDelayMs 100  --pointCloudPointsPerPartition 500000 --pointCloudPartitionSkew 0.000000 --pointCloudLabelNoise 0.050000 --pointCloudDimension 100   '
p1081
sg97
F0.0
sg98
F0.050032800000000002
sg99
g1013
sg100
F5408.0
sa(dp1082
g2
I5
sg3
g4
sg5
I1000
sg6
F5000.0
sg7
F443751.75
sg8
F3657403153.3357167
sg9
F9.9999999999999995e-07
sg10
I40
sg11
S'--pointCloudPointsPerPartition 500000 --pointCloudPartitionSkew 0.000000 --pointCloudLabelNoise 0.050000 --pointCloudDimension 100 '
p1083
sg13
F1.0
sg14
F9.9999999999999995e-07
sg15
I100
sg16
F0.0001
sg17
g18
sg19
(lp1084
S'RESULT:'
p1085
aS'HOGWILDSVM'
p1086
aS'443751.75'
p1087
aS'5000'
p1088
aS'5859'
p1089
aS'0.4999873'
p1090
aS'3.6574031533243575E9'
p1091
aS'0.011359269927912596'
p1092
aS'3.6574031533357167E9'
p1093
aS'1.0115858614170252,0.7283706645749289,0.28229138755733624,-0.40126443393467404,-0.2704180620264239,-0.23796361258628174,-0.12349163542209217,-0.46457072746630823,-0.9745508140487841,0.2608409478098715,-1.0542427928372322,0.08407842369065857,0.292831651456349,-1.4129251566237606,-0.8786991971545404,-1.125929328887648,0.34158896365556235,-0.5543973845233411,0.7767598952004703,-0.36552494812762815,0.23759749792488002,0.21178301382283302,1.9241917835977254,-0.974185064806642,-0.5563349244460963,-0.8921800707738692,-1.332946229262481,-0.4767047189362105,-1.3454746285357666,-1.31506249599783,0.1712555365147855,1.0317158269940327,-0.48659138447616596,0.4320554057110371,1.200739319290129,-0.4749768579077311,-0.39721257735299165,-0.24832595265446553,0.06566612485963504,0.743859606971559,-1.0834488974407777,-2.485892195468635,-1.534551671321307,2.554619321647524,-1.5257397141795195,0.14658512829168563,-0.7249202430719892,-0.6786875019930322,-0.4270312805485588,-0.09962179593022562,-1.4531709044105288,-0.15056712432096886,0.2017080341957772,-1.4951193105476688,-1.6231230187902128,1.1691196471807899,-1.4385740597032584,0.9549183412139718,-2.2713882049823666,-1.1120924774495307,0.020112503988055995,0.21126393162088497,-0.8553069954649102,1.0544294029055667,-1.2436464372338816,0.3500794193644723,-1.2431050497534943,1.2549704302807099,0.5616818682108837,0.5419843095878676,-2.7431469664533075,-0.2801893091934804,1.0998207642487277,-0.10227920063467158,-0.0203274250930422,-1.4265116620568679,0.668608430107728,-2.124442917225511,0.7430101300768648,-0.9197984508545903,-1.6134458101667497,-1.2614329307988907,-1.0552854298678473,-0.6835029426668716,1.4724741639047025,-0.016986214673806798,-0.025314277796152782,-1.1983042882663935,-0.8684712778363727,-0.31205640646698674,-1.4676366692991327,1.1686769371840964,-0.7636315232363298,-0.2934772929940462,-0.9266009074157339,-1.6680614135432712,-0.6885192586531484,-2.0572900312293605,-0.8758454997608276,-1.7502102715507104'
p1094
aS'{input:'
p1095
aS'null,'
p1096
aS'format:'
p1097
aS'cloud,'
p1098
aS'numPartitions:'
p1099
aS'40,'
p1100
aS'algorithm:'
p1101
aS'HOGWILDSVM,'
p1102
aS'algParams:'
p1103
aS'{eta0:'
p1104
aS'1.0,'
p1105
aS'tol:'
p1106
aS'1.0E-6,'
p1107
aS'workerTol:'
p1108
aS'1.0E-6,'
p1109
aS'maxIterations:'
p1110
aS'1000,'
p1111
aS'maxWorkerIterations:'
p1112
aS'1000,'
p1113
aS'miniBatchSize:'
p1114
aS'10,'
p1115
aS'useLBFGS:'
p1116
aS'false,'
p1117
aS'rho0:'
p1118
aS'1.0,'
p1119
aS'lagrangianRho:'
p1120
aS'0.5,'
p1121
aS'regParam:'
p1122
aS'1.0E-4,'
p1123
aS'runtimeMS:'
p1124
aS'5000,'
p1125
aS'displayIncrementalStats:'
p1126
aS'false,'
p1127
aS'adaptiveRho:'
p1128
aS'false,'
p1129
aS'broadcastDelayMS:'
p1130
aS'5,'
p1131
aS'usePorkChop:'
p1132
aS'false},'
p1133
aS'regType:'
p1134
aS'L2,'
p1135
aS'pointCloudDim:'
p1136
aS'100,'
p1137
aS'pointCloudNoise:'
p1138
aS'0.05,'
p1139
aS'pointCloudSkew:'
p1140
aS'0.0,'
p1141
aS'pointCloudPoints:'
p1142
aS'500000,'
p1143
aS'pointCloudSize:'
p1144
aS'1.0}'
p1145
aS'{iterations:'
p1146
aS'443751.75,'
p1147
aS'msgsSent:'
p1148
aS'[880.0,'
p1149
aS'899.85,'
p1150
aS'919.0],'
p1151
aS'avgMsgsRcvd:'
p1152
aS'[0.0,'
p1153
aS'0.0,'
p1154
aS'0.0],'
p1155
aS'runtime:'
p1156
aS'5859}'
p1157
asg90
F0.5
sg91
F3657403153.3243575
sg92
g259
sg94
F0.011359269927912596
sg95
S'cd /mnt/spark; sbin/stop-all.sh; sleep 5; sbin/start-all.sh; sleep 3;./bin/spark-submit --driver-memory 52g --class org.apache.spark.examples.mllib.research.SynchronousADMMTests examples/target/scala-*/spark-examples-*.jar --algorithm HOGWILDSVM --regType L2 --regParam 0.000100 --format cloud --numPartitions 40 --runtimeMS 5000 --ADMMmaxLocalIterations 1000 --ADMMepsilon 0.000001  --ADMMLocalepsilon 0.000001 --ADMMrho 1.000000 --ADMMLagrangianrho 0.500000 --broadcastDelayMs 5  --pointCloudPointsPerPartition 500000 --pointCloudPartitionSkew 0.000000 --pointCloudLabelNoise 0.050000 --pointCloudDimension 100   '
p1158
sg97
F0.0
sg98
F0.49998730000000002
sg99
g1094
sg100
F5859.0
sa(dp1159
g2
I100
sg3
g4
sg5
I1000
sg6
F5000.0
sg7
F4.0
sg8
F10849759155.904112
sg9
F9.9999999999999995e-07
sg10
I40
sg11
S'--pointCloudPointsPerPartition 500000 --pointCloudPartitionSkew 0.000000 --pointCloudLabelNoise 0.050000 --pointCloudDimension 100 '
p1160
sg13
F1.0
sg14
F9.9999999999999995e-07
sg15
I100
sg16
F0.0001
sg17
g18
sg19
(lp1161
S'RESULT:'
p1162
aS'SVM'
p1163
aS'4'
p1164
aS'5000'
p1165
aS'7141'
p1166
aS'0.4999873'
p1167
aS'1.08497591558916E10'
p1168
aS'0.012512429895847107'
p1169
aS'1.0849759155904112E10'
p1170
aS'-1.1226929490168265,-1.1219062911026343,-1.123295956773203,-1.1220385320375423,-1.1221117090151411,-1.1224117902928525,-1.1233774383946997,-1.1221738780168715,-1.1228420311360772,-1.122088566705216,-1.1219741410730653,-1.1223381723683261,-1.1226335954060902,-1.1222598589500252,-1.1219457310754057,-1.1227698356575484,-1.1228337044033592,-1.1223970173140385,-1.1224882505001883,-1.1220953281669022,-1.1223470939913196,-1.122436121236613,-1.1220929359659582,-1.122117203814112,-1.1218631073577157,-1.1222885001417335,-1.1225653690899244,-1.1222467569055286,-1.122729517701701,-1.122306292631205,-1.1218388148220482,-1.122987709605313,-1.1220148290426182,-1.1231588228293174,-1.1227620902294908,-1.122799026307551,-1.1224812675934892,-1.122196750654289,-1.1228484941280117,-1.1218003717887988,-1.122107131501124,-1.121979422048799,-1.1229146471919933,-1.1222424711213346,-1.122672086128357,-1.1220615021657738,-1.1226313398349894,-1.1227351479868166,-1.1224177406210665,-1.122660613280951,-1.1219841020722439,-1.1228728394966867,-1.1221442445012488,-1.1228361163488332,-1.1220847522459798,-1.121870335924675,-1.1227709058065904,-1.122362214460019,-1.1224540194730634,-1.1213685891855976,-1.1223552348732944,-1.1220142040937264,-1.1224666171005113,-1.1221418535248002,-1.1215875685796477,-1.1217615624530726,-1.1216906245444134,-1.122163024419247,-1.122729038581078,-1.1224871429522143,-1.1219746128922794,-1.1228265549821654,-1.1221844886139087,-1.12189567859138,-1.1225165419944614,-1.1227398129440789,-1.1221677105137584,-1.1227482820812518,-1.1229817159493363,-1.122264730385354,-1.1219732319055395,-1.1231581822069308,-1.1224685151277929,-1.1220728297333267,-1.1223302916729192,-1.1219250811905763,-1.122708254605515,-1.1227299942523046,-1.1221931339505054,-1.1223864654709497,-1.121872707058647,-1.12257223041365,-1.1222828811461276,-1.1225571936368073,-1.1229022378669429,-1.1226181715027728,-1.1224414261375315,-1.1222623933560172,-1.1217835907128364,-0.6422498215972107'
p1171
aS'{input:'
p1172
aS'null,'
p1173
aS'format:'
p1174
aS'cloud,'
p1175
aS'numPartitions:'
p1176
aS'40,'
p1177
aS'algorithm:'
p1178
aS'SVM,'
p1179
aS'algParams:'
p1180
aS'{eta0:'
p1181
aS'1.0,'
p1182
aS'tol:'
p1183
aS'1.0E-6,'
p1184
aS'workerTol:'
p1185
aS'1.0E-6,'
p1186
aS'maxIterations:'
p1187
aS'1000,'
p1188
aS'maxWorkerIterations:'
p1189
aS'1000,'
p1190
aS'miniBatchSize:'
p1191
aS'10,'
p1192
aS'useLBFGS:'
p1193
aS'false,'
p1194
aS'rho0:'
p1195
aS'1.0,'
p1196
aS'lagrangianRho:'
p1197
aS'0.5,'
p1198
aS'regParam:'
p1199
aS'1.0E-4,'
p1200
aS'runtimeMS:'
p1201
aS'5000,'
p1202
aS'displayIncrementalStats:'
p1203
aS'false,'
p1204
aS'adaptiveRho:'
p1205
aS'false,'
p1206
aS'broadcastDelayMS:'
p1207
aS'100,'
p1208
aS'usePorkChop:'
p1209
aS'false},'
p1210
aS'regType:'
p1211
aS'L2,'
p1212
aS'pointCloudDim:'
p1213
aS'100,'
p1214
aS'pointCloudNoise:'
p1215
aS'0.05,'
p1216
aS'pointCloudSkew:'
p1217
aS'0.0,'
p1218
aS'pointCloudPoints:'
p1219
aS'500000,'
p1220
aS'pointCloudSize:'
p1221
aS'1.0}'
p1222
aS'{iterations:'
p1223
aS'4,'
p1224
aS'runtime:'
p1225
aS'7141}'
p1226
asg90
F0.5
sg91
F10849759155.8916
sg92
g328
sg94
F0.012512429895847107
sg95
S'cd /mnt/spark; sbin/stop-all.sh; sleep 5; sbin/start-all.sh; sleep 3;./bin/spark-submit --driver-memory 52g --class org.apache.spark.examples.mllib.research.SynchronousADMMTests examples/target/scala-*/spark-examples-*.jar --algorithm SVM --regType L2 --regParam 0.000100 --format cloud --numPartitions 40 --runtimeMS 5000 --ADMMmaxLocalIterations 1000 --ADMMepsilon 0.000001  --ADMMLocalepsilon 0.000001 --ADMMrho 1.000000 --ADMMLagrangianrho 0.500000 --broadcastDelayMs 100  --pointCloudPointsPerPartition 500000 --pointCloudPartitionSkew 0.000000 --pointCloudLabelNoise 0.050000 --pointCloudDimension 100   '
p1227
sg97
F0.0
sg98
F0.49998730000000002
sg99
g1171
sg100
F7141.0
sa(dp1228
g2
I-1
sg3
g4
sg5
I1000
sg6
F10000.0
sg7
F22.0
sg8
F14243726.548236728
sg9
F9.9999999999999995e-07
sg10
I40
sg11
S'--pointCloudPointsPerPartition 500000 --pointCloudPartitionSkew 0.000000 --pointCloudLabelNoise 0.050000 --pointCloudDimension 2 '
p1229
sg13
F1.0
sg14
F9.9999999999999995e-07
sg15
I2
sg16
F0.0001
sg17
g18
sg19
(lp1230
S'RESULT:'
p1231
aS'SVMADMM'
p1232
aS'22'
p1233
aS'10000'
p1234
aS'10045'
p1235
aS'0.11518845'
p1236
aS'1.4243726548104288E7'
p1237
aS'1.3243997527163224E-4'
p1238
aS'1.4243726548236728E7'
p1239
aS'0.1279343797927521,-1.1436925055203282'
p1240
aS'{input:'
p1241
aS'null,'
p1242
aS'format:'
p1243
aS'cloud,'
p1244
aS'numPartitions:'
p1245
aS'40,'
p1246
aS'algorithm:'
p1247
aS'SVMADMM,'
p1248
aS'algParams:'
p1249
aS'{eta0:'
p1250
aS'1.0,'
p1251
aS'tol:'
p1252
aS'1.0E-6,'
p1253
aS'workerTol:'
p1254
aS'1.0E-6,'
p1255
aS'maxIterations:'
p1256
aS'1000,'
p1257
aS'maxWorkerIterations:'
p1258
aS'1000,'
p1259
aS'miniBatchSize:'
p1260
aS'10,'
p1261
aS'useLBFGS:'
p1262
aS'false,'
p1263
aS'rho0:'
p1264
aS'1.0,'
p1265
aS'lagrangianRho:'
p1266
aS'0.5,'
p1267
aS'regParam:'
p1268
aS'1.0E-4,'
p1269
aS'runtimeMS:'
p1270
aS'10000,'
p1271
aS'displayIncrementalStats:'
p1272
aS'false,'
p1273
aS'adaptiveRho:'
p1274
aS'false,'
p1275
aS'broadcastDelayMS:'
p1276
aS'-1,'
p1277
aS'usePorkChop:'
p1278
aS'false},'
p1279
aS'regType:'
p1280
aS'L2,'
p1281
aS'pointCloudDim:'
p1282
aS'2,'
p1283
aS'pointCloudNoise:'
p1284
aS'0.05,'
p1285
aS'pointCloudSkew:'
p1286
aS'0.0,'
p1287
aS'pointCloudPoints:'
p1288
aS'500000,'
p1289
aS'pointCloudSize:'
p1290
aS'1.0}'
p1291
aS'{iterations:'
p1292
aS'22,'
p1293
aS'avgSGDIters:'
p1294
aS'[1000.0,'
p1295
aS'1000.0,'
p1296
aS'1000.0],'
p1297
aS'runtime:'
p1298
aS'10045}'
p1299
asg90
F0.5
sg91
F14243726.548104288
sg92
g93
sg94
F0.00013243997527163224
sg95
S'cd /mnt/spark; sbin/stop-all.sh; sleep 5; sbin/start-all.sh; sleep 3;./bin/spark-submit --driver-memory 52g --class org.apache.spark.examples.mllib.research.SynchronousADMMTests examples/target/scala-*/spark-examples-*.jar --algorithm SVMADMM --regType L2 --regParam 0.000100 --format cloud --numPartitions 40 --runtimeMS 10000 --ADMMmaxLocalIterations 1000 --ADMMepsilon 0.000001  --ADMMLocalepsilon 0.000001 --ADMMrho 1.000000 --ADMMLagrangianrho 0.500000 --broadcastDelayMs -1  --pointCloudPointsPerPartition 500000 --pointCloudPartitionSkew 0.000000 --pointCloudLabelNoise 0.050000 --pointCloudDimension 2   '
p1300
sg97
F0.0
sg98
F0.11518845
sg99
g1240
sg100
F10045.0
sa(dp1301
g2
I100
sg3
g4
sg5
I1000
sg6
F10000.0
sg7
F1239.2750000000001
sg8
F3722152.7920298753
sg9
F9.9999999999999995e-07
sg10
I40
sg11
S'--pointCloudPointsPerPartition 500000 --pointCloudPartitionSkew 0.000000 --pointCloudLabelNoise 0.050000 --pointCloudDimension 2 '
p1302
sg13
F1.0
sg14
F9.9999999999999995e-07
sg15
I2
sg16
F0.0001
sg17
g18
sg19
(lp1303
S'RESULT:'
p1304
aS'SVMADMMAsync'
p1305
aS'1239.275'
p1306
aS'10000'
p1307
aS'10420'
p1308
aS'0.05565535'
p1309
aS'3722152.789028954'
p1310
aS'0.003000921256037716'
p1311
aS'3722152.7920298753'
p1312
aS'0.7229154468421749,-5.430157071125488'
p1313
aS'{input:'
p1314
aS'null,'
p1315
aS'format:'
p1316
aS'cloud,'
p1317
aS'numPartitions:'
p1318
aS'40,'
p1319
aS'algorithm:'
p1320
aS'SVMADMMAsync,'
p1321
aS'algParams:'
p1322
aS'{eta0:'
p1323
aS'1.0,'
p1324
aS'tol:'
p1325
aS'1.0E-6,'
p1326
aS'workerTol:'
p1327
aS'1.0E-6,'
p1328
aS'maxIterations:'
p1329
aS'1000,'
p1330
aS'maxWorkerIterations:'
p1331
aS'1000,'
p1332
aS'miniBatchSize:'
p1333
aS'10,'
p1334
aS'useLBFGS:'
p1335
aS'false,'
p1336
aS'rho0:'
p1337
aS'1.0,'
p1338
aS'lagrangianRho:'
p1339
aS'0.5,'
p1340
aS'regParam:'
p1341
aS'1.0E-4,'
p1342
aS'runtimeMS:'
p1343
aS'10000,'
p1344
aS'displayIncrementalStats:'
p1345
aS'false,'
p1346
aS'adaptiveRho:'
p1347
aS'false,'
p1348
aS'broadcastDelayMS:'
p1349
aS'100,'
p1350
aS'usePorkChop:'
p1351
aS'false},'
p1352
aS'regType:'
p1353
aS'L2,'
p1354
aS'pointCloudDim:'
p1355
aS'2,'
p1356
aS'pointCloudNoise:'
p1357
aS'0.05,'
p1358
aS'pointCloudSkew:'
p1359
aS'0.0,'
p1360
aS'pointCloudPoints:'
p1361
aS'500000,'
p1362
aS'pointCloudSize:'
p1363
aS'1.0}'
p1364
aS'{avgMsgsSent:'
p1365
aS'[100.0,'
p1366
aS'100.0,'
p1367
aS'100.0],'
p1368
aS'avgMsgsRcvd:'
p1369
aS'[700.0,'
p1370
aS'700.0,'
p1371
aS'700.0],'
p1372
aS'avgSGDIters:'
p1373
aS'[0.0,'
p1374
aS'35.025,'
p1375
aS'1000.0],'
p1376
aS'iterations:'
p1377
aS'1239.275,'
p1378
aS'runtime:'
p1379
aS'10420}'
p1380
asg90
F0.5
sg91
F3722152.7890289542
sg92
g181
sg94
F0.0030009212560377159
sg95
S'cd /mnt/spark; sbin/stop-all.sh; sleep 5; sbin/start-all.sh; sleep 3;./bin/spark-submit --driver-memory 52g --class org.apache.spark.examples.mllib.research.SynchronousADMMTests examples/target/scala-*/spark-examples-*.jar --algorithm SVMADMMAsync --regType L2 --regParam 0.000100 --format cloud --numPartitions 40 --runtimeMS 10000 --ADMMmaxLocalIterations 1000 --ADMMepsilon 0.000001  --ADMMLocalepsilon 0.000001 --ADMMrho 1.000000 --ADMMLagrangianrho 0.500000 --broadcastDelayMs 100  --pointCloudPointsPerPartition 500000 --pointCloudPartitionSkew 0.000000 --pointCloudLabelNoise 0.050000 --pointCloudDimension 2   '
p1381
sg97
F0.0
sg98
F0.055655349999999999
sg99
g1313
sg100
F10420.0
sa(dp1382
g2
I5
sg3
g4
sg5
I1000
sg6
F10000.0
sg7
F3525871.0
sg8
F63481318.712513573
sg9
F9.9999999999999995e-07
sg10
I40
sg11
S'--pointCloudPointsPerPartition 500000 --pointCloudPartitionSkew 0.000000 --pointCloudLabelNoise 0.050000 --pointCloudDimension 2 '
p1383
sg13
F1.0
sg14
F9.9999999999999995e-07
sg15
I2
sg16
F0.0001
sg17
g18
sg19
(lp1384
S'RESULT:'
p1385
aS'HOGWILDSVM'
p1386
aS'3525871.0'
p1387
aS'10000'
p1388
aS'10847'
p1389
aS'0.4999891'
p1390
aS'6.348131871164097E7'
p1391
aS'8.726046030915692E-4'
p1392
aS'6.348131871251357E7'
p1393
aS'-0.24664076254950887,-2.943673617296029'
p1394
aS'{input:'
p1395
aS'null,'
p1396
aS'format:'
p1397
aS'cloud,'
p1398
aS'numPartitions:'
p1399
aS'40,'
p1400
aS'algorithm:'
p1401
aS'HOGWILDSVM,'
p1402
aS'algParams:'
p1403
aS'{eta0:'
p1404
aS'1.0,'
p1405
aS'tol:'
p1406
aS'1.0E-6,'
p1407
aS'workerTol:'
p1408
aS'1.0E-6,'
p1409
aS'maxIterations:'
p1410
aS'1000,'
p1411
aS'maxWorkerIterations:'
p1412
aS'1000,'
p1413
aS'miniBatchSize:'
p1414
aS'10,'
p1415
aS'useLBFGS:'
p1416
aS'false,'
p1417
aS'rho0:'
p1418
aS'1.0,'
p1419
aS'lagrangianRho:'
p1420
aS'0.5,'
p1421
aS'regParam:'
p1422
aS'1.0E-4,'
p1423
aS'runtimeMS:'
p1424
aS'10000,'
p1425
aS'displayIncrementalStats:'
p1426
aS'false,'
p1427
aS'adaptiveRho:'
p1428
aS'false,'
p1429
aS'broadcastDelayMS:'
p1430
aS'5,'
p1431
aS'usePorkChop:'
p1432
aS'false},'
p1433
aS'regType:'
p1434
aS'L2,'
p1435
aS'pointCloudDim:'
p1436
aS'2,'
p1437
aS'pointCloudNoise:'
p1438
aS'0.05,'
p1439
aS'pointCloudSkew:'
p1440
aS'0.0,'
p1441
aS'pointCloudPoints:'
p1442
aS'500000,'
p1443
aS'pointCloudSize:'
p1444
aS'1.0}'
p1445
aS'{iterations:'
p1446
aS'3525871.0,'
p1447
aS'msgsSent:'
p1448
aS'[1774.0,'
p1449
aS'1802.625,'
p1450
aS'1832.0],'
p1451
aS'avgMsgsRcvd:'
p1452
aS'[0.0,'
p1453
aS'0.0,'
p1454
aS'0.0],'
p1455
aS'runtime:'
p1456
aS'10847}'
p1457
asg90
F0.5
sg91
F63481318.711640969
sg92
g259
sg94
F0.00087260460309156922
sg95
S'cd /mnt/spark; sbin/stop-all.sh; sleep 5; sbin/start-all.sh; sleep 3;./bin/spark-submit --driver-memory 52g --class org.apache.spark.examples.mllib.research.SynchronousADMMTests examples/target/scala-*/spark-examples-*.jar --algorithm HOGWILDSVM --regType L2 --regParam 0.000100 --format cloud --numPartitions 40 --runtimeMS 10000 --ADMMmaxLocalIterations 1000 --ADMMepsilon 0.000001  --ADMMLocalepsilon 0.000001 --ADMMrho 1.000000 --ADMMLagrangianrho 0.500000 --broadcastDelayMs 5  --pointCloudPointsPerPartition 500000 --pointCloudPartitionSkew 0.000000 --pointCloudLabelNoise 0.050000 --pointCloudDimension 2   '
p1458
sg97
F0.0
sg98
F0.49998910000000002
sg99
g1394
sg100
F10847.0
sa(dp1459
g2
I100
sg3
g4
sg5
I1000
sg6
F10000.0
sg7
F12.0
sg8
F71120349.240833387
sg9
F9.9999999999999995e-07
sg10
I40
sg11
S'--pointCloudPointsPerPartition 500000 --pointCloudPartitionSkew 0.000000 --pointCloudLabelNoise 0.050000 --pointCloudDimension 2 '
p1460
sg13
F1.0
sg14
F9.9999999999999995e-07
sg15
I2
sg16
F0.0001
sg17
g18
sg19
(lp1461
S'RESULT:'
p1462
aS'SVM'
p1463
aS'12'
p1464
aS'10000'
p1465
aS'10029'
p1466
aS'0.50000755'
p1467
aS'7.112034924059157E7'
p1468
aS'2.418234194296362E-4'
p1469
aS'7.112034924083339E7'
p1470
aS'1.3205705167419794,-0.8211745883843362'
p1471
aS'{input:'
p1472
aS'null,'
p1473
aS'format:'
p1474
aS'cloud,'
p1475
aS'numPartitions:'
p1476
aS'40,'
p1477
aS'algorithm:'
p1478
aS'SVM,'
p1479
aS'algParams:'
p1480
aS'{eta0:'
p1481
aS'1.0,'
p1482
aS'tol:'
p1483
aS'1.0E-6,'
p1484
aS'workerTol:'
p1485
aS'1.0E-6,'
p1486
aS'maxIterations:'
p1487
aS'1000,'
p1488
aS'maxWorkerIterations:'
p1489
aS'1000,'
p1490
aS'miniBatchSize:'
p1491
aS'10,'
p1492
aS'useLBFGS:'
p1493
aS'false,'
p1494
aS'rho0:'
p1495
aS'1.0,'
p1496
aS'lagrangianRho:'
p1497
aS'0.5,'
p1498
aS'regParam:'
p1499
aS'1.0E-4,'
p1500
aS'runtimeMS:'
p1501
aS'10000,'
p1502
aS'displayIncrementalStats:'
p1503
aS'false,'
p1504
aS'adaptiveRho:'
p1505
aS'false,'
p1506
aS'broadcastDelayMS:'
p1507
aS'100,'
p1508
aS'usePorkChop:'
p1509
aS'false},'
p1510
aS'regType:'
p1511
aS'L2,'
p1512
aS'pointCloudDim:'
p1513
aS'2,'
p1514
aS'pointCloudNoise:'
p1515
aS'0.05,'
p1516
aS'pointCloudSkew:'
p1517
aS'0.0,'
p1518
aS'pointCloudPoints:'
p1519
aS'500000,'
p1520
aS'pointCloudSize:'
p1521
aS'1.0}'
p1522
aS'{iterations:'
p1523
aS'12,'
p1524
aS'runtime:'
p1525
aS'10029}'
p1526
asg90
F0.5
sg91
F71120349.240591571
sg92
g328
sg94
F0.00024182341942963621
sg95
S'cd /mnt/spark; sbin/stop-all.sh; sleep 5; sbin/start-all.sh; sleep 3;./bin/spark-submit --driver-memory 52g --class org.apache.spark.examples.mllib.research.SynchronousADMMTests examples/target/scala-*/spark-examples-*.jar --algorithm SVM --regType L2 --regParam 0.000100 --format cloud --numPartitions 40 --runtimeMS 10000 --ADMMmaxLocalIterations 1000 --ADMMepsilon 0.000001  --ADMMLocalepsilon 0.000001 --ADMMrho 1.000000 --ADMMLagrangianrho 0.500000 --broadcastDelayMs 100  --pointCloudPointsPerPartition 500000 --pointCloudPartitionSkew 0.000000 --pointCloudLabelNoise 0.050000 --pointCloudDimension 2   '
p1527
sg97
F0.0
sg98
F0.50000754999999997
sg99
g1471
sg100
F10029.0
sa(dp1528
g2
I-1
sg3
g4
sg5
I1000
sg6
F10000.0
sg7
F22.0
sg8
F16659453.633581201
sg9
F9.9999999999999995e-07
sg10
I40
sg11
S'--pointCloudPointsPerPartition 500000 --pointCloudPartitionSkew 0.000000 --pointCloudLabelNoise 0.050000 --pointCloudDimension 100 '
p1529
sg13
F1.0
sg14
F9.9999999999999995e-07
sg15
I100
sg16
F0.0001
sg17
g18
sg19
(lp1530
S'RESULT:'
p1531
aS'SVMADMM'
p1532
aS'22'
p1533
aS'10000'
p1534
aS'10294'
p1535
aS'0.5000127'
p1536
aS'1.665945363358108E7'
p1537
aS'1.2167137058222779E-7'
p1538
aS'1.66594536335812E7'
p1539
aS'7.491186945363928E-4,-9.65105574174984E-4,-6.620436947885361E-4,-1.693004182075553E-4,0.0017882140697209942,0.0014973026402667255,9.137265910953493E-4,0.0030480719674601075,5.700107213567341E-4,0.0023972328206857624,-2.3019429281899165E-4,-0.0015147582561722728,-2.6247027027930534E-4,9.265594506352207E-4,0.0014593986236120966,-0.002044654505994872,-8.684530976788914E-4,0.0023425117800344643,0.0017537819188010934,3.98595407943154E-4,-1.4060809966069546E-4,0.001947891827023663,-0.0018039807517366943,8.964220774997043E-6,9.884065811385774E-5,0.0011185532456996635,2.03474926301777E-4,0.0021026581728630814,0.0022872518177693047,0.0011961646547877596,-2.01519593186522E-4,2.796893757531157E-4,0.001312094538904229,0.0025139630251343544,2.124818178139058E-5,0.0015364994095398974,-0.0017485509026261407,0.001279756814631155,0.0013505277445341457,3.226206872913269E-4,0.001383180905385711,9.04260726720375E-4,4.503413231540413E-4,0.002022645545846662,4.607222422776394E-4,0.001294405131120863,0.00110557614554809,0.002111992041925752,3.4573563532714214E-4,9.632879184257103E-4,5.339988410484695E-4,0.0014352222726547125,2.8872521460388635E-4,7.699730805166238E-4,2.3248228423987486E-4,2.791943225985515E-4,0.0018118731085598723,-0.001003664082637348,0.001491160201631213,0.0019608975087384716,-3.259265887923144E-4,-7.585617951514209E-4,-6.953883560761756E-4,-5.157541832096042E-4,5.354655908991739E-4,6.914512256783526E-4,-0.0015870743148387499,0.001172393157470915,-3.072076382059192E-4,2.826519311318289E-4,0.0012961782576474473,3.350290994169311E-5,0.00203572462857721,0.0018043593974493958,-4.95684988551543E-4,0.0012251676917423644,0.0027151906047679455,0.0026020552908677832,0.003537749925380572,0.0012513354438767508,-1.7007536668111275E-4,3.144684400685349E-5,4.3133804467537025E-4,9.790267491378518E-4,0.0024656722720728993,4.6037638117547917E-4,0.0011968339457369013,0.0012121598559211052,0.001087764800888319,5.175363312513088E-4,8.506432986562537E-4,7.913243427438334E-4,2.8367975960604414E-4,0.002059662102642315,8.934705638294414E-4,-2.212549238170659E-4,0.002279135307569954,8.444226181225189E-4,9.844438139399714E-5,-0.032229333092003404'
p1540
aS'{input:'
p1541
aS'null,'
p1542
aS'format:'
p1543
aS'cloud,'
p1544
aS'numPartitions:'
p1545
aS'40,'
p1546
aS'algorithm:'
p1547
aS'SVMADMM,'
p1548
aS'algParams:'
p1549
aS'{eta0:'
p1550
aS'1.0,'
p1551
aS'tol:'
p1552
aS'1.0E-6,'
p1553
aS'workerTol:'
p1554
aS'1.0E-6,'
p1555
aS'maxIterations:'
p1556
aS'1000,'
p1557
aS'maxWorkerIterations:'
p1558
aS'1000,'
p1559
aS'miniBatchSize:'
p1560
aS'10,'
p1561
aS'useLBFGS:'
p1562
aS'false,'
p1563
aS'rho0:'
p1564
aS'1.0,'
p1565
aS'lagrangianRho:'
p1566
aS'0.5,'
p1567
aS'regParam:'
p1568
aS'1.0E-4,'
p1569
aS'runtimeMS:'
p1570
aS'10000,'
p1571
aS'displayIncrementalStats:'
p1572
aS'false,'
p1573
aS'adaptiveRho:'
p1574
aS'false,'
p1575
aS'broadcastDelayMS:'
p1576
aS'-1,'
p1577
aS'usePorkChop:'
p1578
aS'false},'
p1579
aS'regType:'
p1580
aS'L2,'
p1581
aS'pointCloudDim:'
p1582
aS'100,'
p1583
aS'pointCloudNoise:'
p1584
aS'0.05,'
p1585
aS'pointCloudSkew:'
p1586
aS'0.0,'
p1587
aS'pointCloudPoints:'
p1588
aS'500000,'
p1589
aS'pointCloudSize:'
p1590
aS'1.0}'
p1591
aS'{iterations:'
p1592
aS'22,'
p1593
aS'avgSGDIters:'
p1594
aS'[1000.0,'
p1595
aS'1000.0,'
p1596
aS'1000.0],'
p1597
aS'runtime:'
p1598
aS'10294}'
p1599
asg90
F0.5
sg91
F16659453.63358108
sg92
g93
sg94
F1.2167137058222779e-07
sg95
S'cd /mnt/spark; sbin/stop-all.sh; sleep 5; sbin/start-all.sh; sleep 3;./bin/spark-submit --driver-memory 52g --class org.apache.spark.examples.mllib.research.SynchronousADMMTests examples/target/scala-*/spark-examples-*.jar --algorithm SVMADMM --regType L2 --regParam 0.000100 --format cloud --numPartitions 40 --runtimeMS 10000 --ADMMmaxLocalIterations 1000 --ADMMepsilon 0.000001  --ADMMLocalepsilon 0.000001 --ADMMrho 1.000000 --ADMMLagrangianrho 0.500000 --broadcastDelayMs -1  --pointCloudPointsPerPartition 500000 --pointCloudPartitionSkew 0.000000 --pointCloudLabelNoise 0.050000 --pointCloudDimension 100   '
p1600
sg97
F0.0
sg98
F0.50001269999999998
sg99
g1540
sg100
F10294.0
sa(dp1601
g2
I100
sg3
g4
sg5
I1000
sg6
F10000.0
sg7
F382.0
sg8
F7342498.5979773281
sg9
F9.9999999999999995e-07
sg10
I40
sg11
S'--pointCloudPointsPerPartition 500000 --pointCloudPartitionSkew 0.000000 --pointCloudLabelNoise 0.050000 --pointCloudDimension 100 '
p1602
sg13
F1.0
sg14
F9.9999999999999995e-07
sg15
I100
sg16
F0.0001
sg17
g18
sg19
(lp1603
S'RESULT:'
p1604
aS'SVMADMMAsync'
p1605
aS'382.0'
p1606
aS'10000'
p1607
aS'10417'
p1608
aS'0.0500328'
p1609
aS'7342498.576396226'
p1610
aS'0.021581102605200735'
p1611
aS'7342498.597977328'
p1612
aS'0.027429525652068857,0.023605274149062733,0.026193245063471347,0.02738811280774197,0.026112955584187383,0.03183488377171808,0.027112064853979465,0.027034290806169994,0.024790101201164497,0.03043974653464895,0.028451180003995154,0.029636076464820065,0.02401365410388784,0.02756611329929063,0.021240329166057396,0.022040948297442936,0.02342548204228756,0.021444194202005926,0.025512550799957363,0.024025625294906542,0.02322574037131831,0.02834653002512042,0.02284116393170567,0.027646723526258743,0.02830911234494546,0.02230712955120259,0.02186213275974385,0.0319040495044928,0.023030879418554615,0.024948665421935308,0.0242288560318006,0.025984585409292348,0.024466916094033817,0.030028885916654886,0.018334665721927348,0.020171508414633308,0.026907445818945157,0.027578328319569627,0.02361839798271701,0.025536176128937438,0.02420198356195179,0.024446021930066744,0.02318625177875461,0.024967448308965936,0.026217681063607123,0.0259817073645397,0.024593498690975237,0.027272267143161288,0.021696603233838818,0.032245233774845394,0.029316212387179318,0.02640142890265605,0.02515742251816083,0.027840599497833143,0.027028572691234137,0.018734271124440247,0.029197305030919874,0.023514824830904297,0.024027127421704333,0.023967300503577378,0.023629029588988035,0.028171528223586206,0.029677221920457186,0.022689888398311032,0.02391834425813614,0.02423047803543826,0.019390253183440023,0.024642773491065563,0.020588810915224624,0.022749254253496633,0.02858733717831965,0.0281764179602223,0.02793972935639287,0.02974201161078509,0.02033621229768763,0.029247823943568493,0.02787247727896517,0.027158639526211874,0.026131117606297626,0.027141968484997753,0.02399010245329361,0.030221439581636683,0.023988635784807873,0.0236536906664478,0.023282206322075893,0.026255889823204412,0.03315645433023821,0.021540943861228942,0.021968875642103605,0.02766475602029245,0.025675912382580983,0.023662466213932327,0.029406129859877346,0.028406432960579747,0.029738892530140643,0.023538966437834895,0.02264435350031801,0.023864397897194793,0.029443687708668495,-14.688266683913008'
p1613
aS'{input:'
p1614
aS'null,'
p1615
aS'format:'
p1616
aS'cloud,'
p1617
aS'numPartitions:'
p1618
aS'40,'
p1619
aS'algorithm:'
p1620
aS'SVMADMMAsync,'
p1621
aS'algParams:'
p1622
aS'{eta0:'
p1623
aS'1.0,'
p1624
aS'tol:'
p1625
aS'1.0E-6,'
p1626
aS'workerTol:'
p1627
aS'1.0E-6,'
p1628
aS'maxIterations:'
p1629
aS'1000,'
p1630
aS'maxWorkerIterations:'
p1631
aS'1000,'
p1632
aS'miniBatchSize:'
p1633
aS'10,'
p1634
aS'useLBFGS:'
p1635
aS'false,'
p1636
aS'rho0:'
p1637
aS'1.0,'
p1638
aS'lagrangianRho:'
p1639
aS'0.5,'
p1640
aS'regParam:'
p1641
aS'1.0E-4,'
p1642
aS'runtimeMS:'
p1643
aS'10000,'
p1644
aS'displayIncrementalStats:'
p1645
aS'false,'
p1646
aS'adaptiveRho:'
p1647
aS'false,'
p1648
aS'broadcastDelayMS:'
p1649
aS'100,'
p1650
aS'usePorkChop:'
p1651
aS'false},'
p1652
aS'regType:'
p1653
aS'L2,'
p1654
aS'pointCloudDim:'
p1655
aS'100,'
p1656
aS'pointCloudNoise:'
p1657
aS'0.05,'
p1658
aS'pointCloudSkew:'
p1659
aS'0.0,'
p1660
aS'pointCloudPoints:'
p1661
aS'500000,'
p1662
aS'pointCloudSize:'
p1663
aS'1.0}'
p1664
aS'{avgMsgsSent:'
p1665
aS'[100.0,'
p1666
aS'100.0,'
p1667
aS'100.0],'
p1668
aS'avgMsgsRcvd:'
p1669
aS'[700.0,'
p1670
aS'700.0,'
p1671
aS'700.0],'
p1672
aS'avgSGDIters:'
p1673
aS'[0.0,'
p1674
aS'333.0,'
p1675
aS'1000.0],'
p1676
aS'iterations:'
p1677
aS'382.0,'
p1678
aS'runtime:'
p1679
aS'10417}'
p1680
asg90
F0.5
sg91
F7342498.576396226
sg92
g181
sg94
F0.021581102605200735
sg95
S'cd /mnt/spark; sbin/stop-all.sh; sleep 5; sbin/start-all.sh; sleep 3;./bin/spark-submit --driver-memory 52g --class org.apache.spark.examples.mllib.research.SynchronousADMMTests examples/target/scala-*/spark-examples-*.jar --algorithm SVMADMMAsync --regType L2 --regParam 0.000100 --format cloud --numPartitions 40 --runtimeMS 10000 --ADMMmaxLocalIterations 1000 --ADMMepsilon 0.000001  --ADMMLocalepsilon 0.000001 --ADMMrho 1.000000 --ADMMLagrangianrho 0.500000 --broadcastDelayMs 100  --pointCloudPointsPerPartition 500000 --pointCloudPartitionSkew 0.000000 --pointCloudLabelNoise 0.050000 --pointCloudDimension 100   '
p1681
sg97
F0.0
sg98
F0.050032800000000002
sg99
g1613
sg100
F10417.0
sa(dp1682
g2
I5
sg3
g4
sg5
I1000
sg6
F10000.0
sg7
F1590125.0
sg8
F2554138361.8193789
sg9
F9.9999999999999995e-07
sg10
I40
sg11
S'--pointCloudPointsPerPartition 500000 --pointCloudPartitionSkew 0.000000 --pointCloudLabelNoise 0.050000 --pointCloudDimension 100 '
p1683
sg13
F1.0
sg14
F9.9999999999999995e-07
sg15
I100
sg16
F0.0001
sg17
g18
sg19
(lp1684
S'RESULT:'
p1685
aS'HOGWILDSVM'
p1686
aS'1590125.0'
p1687
aS'10000'
p1688
aS'10828'
p1689
aS'0.5000127'
p1690
aS'2.5541383618065825E9'
p1691
aS'0.012796343662620302'
p1692
aS'2.554138361819379E9'
p1693
aS'2.541623083777093,1.0941744956302855,2.017871511030439,1.1449793320870791,-0.3604489664405182,2.0005452465112197,0.5095190171581447,0.9169502688839409,0.8285774217311407,0.4474086309566776,-0.7930541146083622,2.1380589912102366,0.6883782594188301,-1.3440120651236742,-0.3123981655034317,-0.9584650666359715,1.1198684118801623,-0.3587304278658065,1.323500283648043,-0.639859495373745,2.2650035795612173,2.14264005471868,1.3543790872795793,-1.1477120176876499,-0.5760981864327811,-0.19258799079141944,-0.12423346567935437,1.0210162594282233,-1.1683482388504611,-0.5298000817110214,2.0486234781075328,2.1841431201508956,-1.1323040369540491,-0.5601417408077941,1.3062345480504782,0.6412560655113299,-0.08869386266141878,0.11527979466602412,0.7429400513004462,1.257844797849436,-0.08615699984233237,-1.300641589000426,-1.0181667189824775,0.6592728156902973,0.37690853369847,1.375164831675218,0.42370710823412483,-0.5745433408229443,-0.02981010824335163,-1.123229890882561,0.2069609628052514,2.2247158837095493,0.29466184296153725,-1.0227798803976706,0.11167778363980367,0.8978448764899256,0.7195194246085432,0.9719458604966504,-1.1772333479667718,0.9794193315314258,1.5700875286977007,0.5478711858317056,-0.9930039449569998,1.257109949044699,0.13530001083912227,0.41121442527792856,-0.06759699361743012,1.2288975692684534,0.1293825809372921,1.808113799351042,-0.9383025761842553,0.03793334870384946,1.531755721016932,0.4303533630867779,0.819161528004972,1.2154598032147543,0.8156867862343674,-0.16930084667019984,2.875457798920374,0.8086451117938644,0.740060221352216,1.5872253431050138,0.9255147554117924,1.0446010734362574,2.7580583474590843,0.5524130076637426,1.2624891457921605,0.4635350050769181,0.26522373252019515,0.36036084194024876,0.6235144674227453,1.2610144271869739,-0.3018881638483048,0.8110137625885406,-0.08653976710827778,-0.2730900105882181,0.15783478558839206,-1.7493205312192912,0.3810825965716678,-1.3348870372650896'
p1694
aS'{input:'
p1695
aS'null,'
p1696
aS'format:'
p1697
aS'cloud,'
p1698
aS'numPartitions:'
p1699
aS'40,'
p1700
aS'algorithm:'
p1701
aS'HOGWILDSVM,'
p1702
aS'algParams:'
p1703
aS'{eta0:'
p1704
aS'1.0,'
p1705
aS'tol:'
p1706
aS'1.0E-6,'
p1707
aS'workerTol:'
p1708
aS'1.0E-6,'
p1709
aS'maxIterations:'
p1710
aS'1000,'
p1711
aS'maxWorkerIterations:'
p1712
aS'1000,'
p1713
aS'miniBatchSize:'
p1714
aS'10,'
p1715
aS'useLBFGS:'
p1716
aS'false,'
p1717
aS'rho0:'
p1718
aS'1.0,'
p1719
aS'lagrangianRho:'
p1720
aS'0.5,'
p1721
aS'regParam:'
p1722
aS'1.0E-4,'
p1723
aS'runtimeMS:'
p1724
aS'10000,'
p1725
aS'displayIncrementalStats:'
p1726
aS'false,'
p1727
aS'adaptiveRho:'
p1728
aS'false,'
p1729
aS'broadcastDelayMS:'
p1730
aS'5,'
p1731
aS'usePorkChop:'
p1732
aS'false},'
p1733
aS'regType:'
p1734
aS'L2,'
p1735
aS'pointCloudDim:'
p1736
aS'100,'
p1737
aS'pointCloudNoise:'
p1738
aS'0.05,'
p1739
aS'pointCloudSkew:'
p1740
aS'0.0,'
p1741
aS'pointCloudPoints:'
p1742
aS'500000,'
p1743
aS'pointCloudSize:'
p1744
aS'1.0}'
p1745
aS'{iterations:'
p1746
aS'1590125.0,'
p1747
aS'msgsSent:'
p1748
aS'[1515.0,'
p1749
aS'1544.15,'
p1750
aS'1571.0],'
p1751
aS'avgMsgsRcvd:'
p1752
aS'[0.0,'
p1753
aS'0.0,'
p1754
aS'0.0],'
p1755
aS'runtime:'
p1756
aS'10828}'
p1757
asg90
F0.5
sg91
F2554138361.8065825
sg92
g259
sg94
F0.012796343662620302
sg95
S'cd /mnt/spark; sbin/stop-all.sh; sleep 5; sbin/start-all.sh; sleep 3;./bin/spark-submit --driver-memory 52g --class org.apache.spark.examples.mllib.research.SynchronousADMMTests examples/target/scala-*/spark-examples-*.jar --algorithm HOGWILDSVM --regType L2 --regParam 0.000100 --format cloud --numPartitions 40 --runtimeMS 10000 --ADMMmaxLocalIterations 1000 --ADMMepsilon 0.000001  --ADMMLocalepsilon 0.000001 --ADMMrho 1.000000 --ADMMLagrangianrho 0.500000 --broadcastDelayMs 5  --pointCloudPointsPerPartition 500000 --pointCloudPartitionSkew 0.000000 --pointCloudLabelNoise 0.050000 --pointCloudDimension 100   '
p1758
sg97
F0.0
sg98
F0.50001269999999998
sg99
g1694
sg100
F10828.0
sa(dp1759
g2
I100
sg3
g4
sg5
I1000
sg6
F10000.0
sg7
F9.0
sg8
F175180653.93194506
sg9
F9.9999999999999995e-07
sg10
I40
sg11
S'--pointCloudPointsPerPartition 500000 --pointCloudPartitionSkew 0.000000 --pointCloudLabelNoise 0.050000 --pointCloudDimension 100 '
p1760
sg13
F1.0
sg14
F9.9999999999999995e-07
sg15
I100
sg16
F0.0001
sg17
g18
sg19
(lp1761
S'RESULT:'
p1762
aS'SVM'
p1763
aS'9'
p1764
aS'10000'
p1765
aS'10545'
p1766
aS'0.4999873'
p1767
aS'1.751806539318772E8'
p1768
aS'6.786018071950864E-5'
p1769
aS'1.7518065393194506E8'
p1770
aS'-0.01681222445560704,-0.015539006940321398,-0.017739533846124145,-0.015714184042006973,-0.01587125297703995,-0.016310642341378356,-0.017864004971348657,-0.01599153420226207,-0.017030523151433163,-0.015823072637358826,-0.015645600961655015,-0.01627242427106068,-0.016587337853736783,-0.016120742102838648,-0.015695018386427617,-0.016812297262892573,-0.01695980179026313,-0.016324464079002454,-0.016400905492451878,-0.01602991487282457,-0.01618569628095079,-0.016348381543654367,-0.015958493666406892,-0.015872036408512535,-0.015454697089383074,-0.01602780426665651,-0.01658064023904382,-0.01606324132257486,-0.016818229074827995,-0.01620215037898498,-0.015343331397297155,-0.017230067957863082,-0.01566493769090571,-0.017462162488942723,-0.016881679238269554,-0.016901402640372543,-0.016475654737392542,-0.016040260562169895,-0.016997311997964726,-0.015346240130775568,-0.01581590333655336,-0.01565063116886667,-0.017121490270152084,-0.016116403331412177,-0.016799242821427973,-0.015790220971739655,-0.016720447678980288,-0.016870119975580855,-0.016296433031131596,-0.016721041718337548,-0.015711038744369965,-0.01712371764572529,-0.015961934383218135,-0.016983531640129446,-0.015855790833291028,-0.015412136560145284,-0.01697696198632881,-0.01632469745499754,-0.016368112691097503,-0.014748474945115109,-0.01633100054771197,-0.015721398963189692,-0.01646574068372675,-0.01590622851473167,-0.015064170587685832,-0.015371088042773873,-0.015254401237150494,-0.01587873587946953,-0.016875748018970405,-0.01642070374517479,-0.01577909056050597,-0.017039142276933594,-0.015937886346698127,-0.015494381295982795,-0.016571421485828353,-0.016851877401862225,-0.015912549792489572,-0.016842717030287946,-0.017253979046078394,-0.016141377378860344,-0.015669842978427884,-0.017512994537979498,-0.016396627026442845,-0.01581815359402472,-0.01624435027045512,-0.015589506009456522,-0.016732279878107104,-0.01686653168808383,-0.016031497198032096,-0.0162479942021706,-0.015466118855803623,-0.01655022741736878,-0.016114216387408842,-0.01651638934476185,-0.01716081407765435,-0.01668038159318619,-0.016428940622403854,-0.016134169653704622,-0.015336539853137543,-0.8076736376358384'
p1771
aS'{input:'
p1772
aS'null,'
p1773
aS'format:'
p1774
aS'cloud,'
p1775
aS'numPartitions:'
p1776
aS'40,'
p1777
aS'algorithm:'
p1778
aS'SVM,'
p1779
aS'algParams:'
p1780
aS'{eta0:'
p1781
aS'1.0,'
p1782
aS'tol:'
p1783
aS'1.0E-6,'
p1784
aS'workerTol:'
p1785
aS'1.0E-6,'
p1786
aS'maxIterations:'
p1787
aS'1000,'
p1788
aS'maxWorkerIterations:'
p1789
aS'1000,'
p1790
aS'miniBatchSize:'
p1791
aS'10,'
p1792
aS'useLBFGS:'
p1793
aS'false,'
p1794
aS'rho0:'
p1795
aS'1.0,'
p1796
aS'lagrangianRho:'
p1797
aS'0.5,'
p1798
aS'regParam:'
p1799
aS'1.0E-4,'
p1800
aS'runtimeMS:'
p1801
aS'10000,'
p1802
aS'displayIncrementalStats:'
p1803
aS'false,'
p1804
aS'adaptiveRho:'
p1805
aS'false,'
p1806
aS'broadcastDelayMS:'
p1807
aS'100,'
p1808
aS'usePorkChop:'
p1809
aS'false},'
p1810
aS'regType:'
p1811
aS'L2,'
p1812
aS'pointCloudDim:'
p1813
aS'100,'
p1814
aS'pointCloudNoise:'
p1815
aS'0.05,'
p1816
aS'pointCloudSkew:'
p1817
aS'0.0,'
p1818
aS'pointCloudPoints:'
p1819
aS'500000,'
p1820
aS'pointCloudSize:'
p1821
aS'1.0}'
p1822
aS'{iterations:'
p1823
aS'9,'
p1824
aS'runtime:'
p1825
aS'10545}'
p1826
asg90
F0.5
sg91
F175180653.9318772
sg92
g328
sg94
F6.7860180719508644e-05
sg95
S'cd /mnt/spark; sbin/stop-all.sh; sleep 5; sbin/start-all.sh; sleep 3;./bin/spark-submit --driver-memory 52g --class org.apache.spark.examples.mllib.research.SynchronousADMMTests examples/target/scala-*/spark-examples-*.jar --algorithm SVM --regType L2 --regParam 0.000100 --format cloud --numPartitions 40 --runtimeMS 10000 --ADMMmaxLocalIterations 1000 --ADMMepsilon 0.000001  --ADMMLocalepsilon 0.000001 --ADMMrho 1.000000 --ADMMLagrangianrho 0.500000 --broadcastDelayMs 100  --pointCloudPointsPerPartition 500000 --pointCloudPartitionSkew 0.000000 --pointCloudLabelNoise 0.050000 --pointCloudDimension 100   '
p1827
sg97
F0.0
sg98
F0.49998730000000002
sg99
g1771
sg100
F10545.0
sa(dp1828
g2
I-1
sg3
g4
sg5
I1000
sg6
F20000.0
sg7
F48.0
sg8
F6390152.7629266018
sg9
F9.9999999999999995e-07
sg10
I40
sg11
S'--pointCloudPointsPerPartition 500000 --pointCloudPartitionSkew 0.000000 --pointCloudLabelNoise 0.050000 --pointCloudDimension 2 '
p1829
sg13
F1.0
sg14
F9.9999999999999995e-07
sg15
I2
sg16
F0.0001
sg17
g18
sg19
(lp1830
S'RESULT:'
p1831
aS'SVMADMM'
p1832
aS'48'
p1833
aS'20000'
p1834
aS'20360'
p1835
aS'0.05573685'
p1836
aS'6390152.762300142'
p1837
aS'6.264593734416964E-4'
p1838
aS'6390152.762926602'
p1839
aS'0.32793826028553635,-2.481340410314123'
p1840
aS'{input:'
p1841
aS'null,'
p1842
aS'format:'
p1843
aS'cloud,'
p1844
aS'numPartitions:'
p1845
aS'40,'
p1846
aS'algorithm:'
p1847
aS'SVMADMM,'
p1848
aS'algParams:'
p1849
aS'{eta0:'
p1850
aS'1.0,'
p1851
aS'tol:'
p1852
aS'1.0E-6,'
p1853
aS'workerTol:'
p1854
aS'1.0E-6,'
p1855
aS'maxIterations:'
p1856
aS'1000,'
p1857
aS'maxWorkerIterations:'
p1858
aS'1000,'
p1859
aS'miniBatchSize:'
p1860
aS'10,'
p1861
aS'useLBFGS:'
p1862
aS'false,'
p1863
aS'rho0:'
p1864
aS'1.0,'
p1865
aS'lagrangianRho:'
p1866
aS'0.5,'
p1867
aS'regParam:'
p1868
aS'1.0E-4,'
p1869
aS'runtimeMS:'
p1870
aS'20000,'
p1871
aS'displayIncrementalStats:'
p1872
aS'false,'
p1873
aS'adaptiveRho:'
p1874
aS'false,'
p1875
aS'broadcastDelayMS:'
p1876
aS'-1,'
p1877
aS'usePorkChop:'
p1878
aS'false},'
p1879
aS'regType:'
p1880
aS'L2,'
p1881
aS'pointCloudDim:'
p1882
aS'2,'
p1883
aS'pointCloudNoise:'
p1884
aS'0.05,'
p1885
aS'pointCloudSkew:'
p1886
aS'0.0,'
p1887
aS'pointCloudPoints:'
p1888
aS'500000,'
p1889
aS'pointCloudSize:'
p1890
aS'1.0}'
p1891
aS'{iterations:'
p1892
aS'48,'
p1893
aS'avgSGDIters:'
p1894
aS'[1000.0,'
p1895
aS'1000.0,'
p1896
aS'1000.0],'
p1897
aS'runtime:'
p1898
aS'20360}'
p1899
asg90
F0.5
sg91
F6390152.7623001421
sg92
g93
sg94
F0.0006264593734416964
sg95
S'cd /mnt/spark; sbin/stop-all.sh; sleep 5; sbin/start-all.sh; sleep 3;./bin/spark-submit --driver-memory 52g --class org.apache.spark.examples.mllib.research.SynchronousADMMTests examples/target/scala-*/spark-examples-*.jar --algorithm SVMADMM --regType L2 --regParam 0.000100 --format cloud --numPartitions 40 --runtimeMS 20000 --ADMMmaxLocalIterations 1000 --ADMMepsilon 0.000001  --ADMMLocalepsilon 0.000001 --ADMMrho 1.000000 --ADMMLagrangianrho 0.500000 --broadcastDelayMs -1  --pointCloudPointsPerPartition 500000 --pointCloudPartitionSkew 0.000000 --pointCloudLabelNoise 0.050000 --pointCloudDimension 2   '
p1900
sg97
F0.0
sg98
F0.055736849999999998
sg99
g1840
sg100
F20360.0
sa(dp1901
g2
I100
sg3
g4
sg5
I1000
sg6
F20000.0
sg7
F2709.3499999999999
sg8
F3721632.154742586
sg9
F9.9999999999999995e-07
sg10
I40
sg11
S'--pointCloudPointsPerPartition 500000 --pointCloudPartitionSkew 0.000000 --pointCloudLabelNoise 0.050000 --pointCloudDimension 2 '
p1902
sg13
F1.0
sg14
F9.9999999999999995e-07
sg15
I2
sg16
F0.0001
sg17
g18
sg19
(lp1903
S'RESULT:'
p1904
aS'SVMADMMAsync'
p1905
aS'2709.35'
p1906
aS'20000'
p1907
aS'20440'
p1908
aS'0.0556574'
p1909
aS'3721632.151757192'
p1910
aS'0.0029853938631033395'
p1911
aS'3721632.154742586'
p1912
aS'0.720981727834252,-5.416098593929262'
p1913
aS'{input:'
p1914
aS'null,'
p1915
aS'format:'
p1916
aS'cloud,'
p1917
aS'numPartitions:'
p1918
aS'40,'
p1919
aS'algorithm:'
p1920
aS'SVMADMMAsync,'
p1921
aS'algParams:'
p1922
aS'{eta0:'
p1923
aS'1.0,'
p1924
aS'tol:'
p1925
aS'1.0E-6,'
p1926
aS'workerTol:'
p1927
aS'1.0E-6,'
p1928
aS'maxIterations:'
p1929
aS'1000,'
p1930
aS'maxWorkerIterations:'
p1931
aS'1000,'
p1932
aS'miniBatchSize:'
p1933
aS'10,'
p1934
aS'useLBFGS:'
p1935
aS'false,'
p1936
aS'rho0:'
p1937
aS'1.0,'
p1938
aS'lagrangianRho:'
p1939
aS'0.5,'
p1940
aS'regParam:'
p1941
aS'1.0E-4,'
p1942
aS'runtimeMS:'
p1943
aS'20000,'
p1944
aS'displayIncrementalStats:'
p1945
aS'false,'
p1946
aS'adaptiveRho:'
p1947
aS'false,'
p1948
aS'broadcastDelayMS:'
p1949
aS'100,'
p1950
aS'usePorkChop:'
p1951
aS'false},'
p1952
aS'regType:'
p1953
aS'L2,'
p1954
aS'pointCloudDim:'
p1955
aS'2,'
p1956
aS'pointCloudNoise:'
p1957
aS'0.05,'
p1958
aS'pointCloudSkew:'
p1959
aS'0.0,'
p1960
aS'pointCloudPoints:'
p1961
aS'500000,'
p1962
aS'pointCloudSize:'
p1963
aS'1.0}'
p1964
aS'{avgMsgsSent:'
p1965
aS'[200.0,'
p1966
aS'200.0,'
p1967
aS'200.0],'
p1968
aS'avgMsgsRcvd:'
p1969
aS'[1400.0,'
p1970
aS'1400.0,'
p1971
aS'1400.0],'
p1972
aS'avgSGDIters:'
p1973
aS'[0.0,'
p1974
aS'0.0,'
p1975
aS'0.0],'
p1976
aS'iterations:'
p1977
aS'2709.35,'
p1978
aS'runtime:'
p1979
aS'20440}'
p1980
asg90
F0.5
sg91
F3721632.1517571919
sg92
g181
sg94
F0.0029853938631033395
sg95
S'cd /mnt/spark; sbin/stop-all.sh; sleep 5; sbin/start-all.sh; sleep 3;./bin/spark-submit --driver-memory 52g --class org.apache.spark.examples.mllib.research.SynchronousADMMTests examples/target/scala-*/spark-examples-*.jar --algorithm SVMADMMAsync --regType L2 --regParam 0.000100 --format cloud --numPartitions 40 --runtimeMS 20000 --ADMMmaxLocalIterations 1000 --ADMMepsilon 0.000001  --ADMMLocalepsilon 0.000001 --ADMMrho 1.000000 --ADMMLagrangianrho 0.500000 --broadcastDelayMs 100  --pointCloudPointsPerPartition 500000 --pointCloudPartitionSkew 0.000000 --pointCloudLabelNoise 0.050000 --pointCloudDimension 2   '
p1981
sg97
F0.0
sg98
F0.055657400000000003
sg99
g1913
sg100
F20440.0
sa(dp1982
g2
I5
sg3
g4
sg5
I1000
sg6
F20000.0
sg7
F9991960.0
sg8
F10195368.630805677
sg9
F9.9999999999999995e-07
sg10
I40
sg11
S'--pointCloudPointsPerPartition 500000 --pointCloudPartitionSkew 0.000000 --pointCloudLabelNoise 0.050000 --pointCloudDimension 2 '
p1983
sg13
F1.0
sg14
F9.9999999999999995e-07
sg15
I2
sg16
F0.0001
sg17
g18
sg19
(lp1984
S'RESULT:'
p1985
aS'HOGWILDSVM'
p1986
aS'9991960.0'
p1987
aS'20000'
p1988
aS'20808'
p1989
aS'0.21209345'
p1990
aS'1.019536863036135E7'
p1991
aS'4.4432719277108713E-4'
p1992
aS'1.0195368630805677E7'
p1993
aS'0.3867222717663633,-2.0721288116887746'
p1994
aS'{input:'
p1995
aS'null,'
p1996
aS'format:'
p1997
aS'cloud,'
p1998
aS'numPartitions:'
p1999
aS'40,'
p2000
aS'algorithm:'
p2001
aS'HOGWILDSVM,'
p2002
aS'algParams:'
p2003
aS'{eta0:'
p2004
aS'1.0,'
p2005
aS'tol:'
p2006
aS'1.0E-6,'
p2007
aS'workerTol:'
p2008
aS'1.0E-6,'
p2009
aS'maxIterations:'
p2010
aS'1000,'
p2011
aS'maxWorkerIterations:'
p2012
aS'1000,'
p2013
aS'miniBatchSize:'
p2014
aS'10,'
p2015
aS'useLBFGS:'
p2016
aS'false,'
p2017
aS'rho0:'
p2018
aS'1.0,'
p2019
aS'lagrangianRho:'
p2020
aS'0.5,'
p2021
aS'regParam:'
p2022
aS'1.0E-4,'
p2023
aS'runtimeMS:'
p2024
aS'20000,'
p2025
aS'displayIncrementalStats:'
p2026
aS'false,'
p2027
aS'adaptiveRho:'
p2028
aS'false,'
p2029
aS'broadcastDelayMS:'
p2030
aS'5,'
p2031
aS'usePorkChop:'
p2032
aS'false},'
p2033
aS'regType:'
p2034
aS'L2,'
p2035
aS'pointCloudDim:'
p2036
aS'2,'
p2037
aS'pointCloudNoise:'
p2038
aS'0.05,'
p2039
aS'pointCloudSkew:'
p2040
aS'0.0,'
p2041
aS'pointCloudPoints:'
p2042
aS'500000,'
p2043
aS'pointCloudSize:'
p2044
aS'1.0}'
p2045
aS'{iterations:'
p2046
aS'9991960.0,'
p2047
aS'msgsSent:'
p2048
aS'[3622.0,'
p2049
aS'3661.375,'
p2050
aS'3683.0],'
p2051
aS'avgMsgsRcvd:'
p2052
aS'[0.0,'
p2053
aS'0.0,'
p2054
aS'0.0],'
p2055
aS'runtime:'
p2056
aS'20808}'
p2057
asg90
F0.5
sg91
F10195368.63036135
sg92
g259
sg94
F0.00044432719277108713
sg95
S'cd /mnt/spark; sbin/stop-all.sh; sleep 5; sbin/start-all.sh; sleep 3;./bin/spark-submit --driver-memory 52g --class org.apache.spark.examples.mllib.research.SynchronousADMMTests examples/target/scala-*/spark-examples-*.jar --algorithm HOGWILDSVM --regType L2 --regParam 0.000100 --format cloud --numPartitions 40 --runtimeMS 20000 --ADMMmaxLocalIterations 1000 --ADMMepsilon 0.000001  --ADMMLocalepsilon 0.000001 --ADMMrho 1.000000 --ADMMLagrangianrho 0.500000 --broadcastDelayMs 5  --pointCloudPointsPerPartition 500000 --pointCloudPartitionSkew 0.000000 --pointCloudLabelNoise 0.050000 --pointCloudDimension 2   '
p2058
sg97
F0.0
sg98
F0.21209344999999999
sg99
g1994
sg100
F20808.0
sa(dp2059
g2
I100
sg3
g4
sg5
I1000
sg6
F20000.0
sg7
F31.0
sg8
F12172788.319848549
sg9
F9.9999999999999995e-07
sg10
I40
sg11
S'--pointCloudPointsPerPartition 500000 --pointCloudPartitionSkew 0.000000 --pointCloudLabelNoise 0.050000 --pointCloudDimension 2 '
p2060
sg13
F1.0
sg14
F9.9999999999999995e-07
sg15
I2
sg16
F0.0001
sg17
g18
sg19
(lp2061
S'RESULT:'
p2062
aS'SVM'
p2063
aS'31'
p2064
aS'20000'
p2065
aS'20294'
p2066
aS'0.32094305'
p2067
aS'1.2172788319585817E7'
p2068
aS'2.627311482292433E-4'
p2069
aS'1.2172788319848549E7'
p2070
aS'0.33451201876812425,-1.586005419786486'
p2071
aS'{input:'
p2072
aS'null,'
p2073
aS'format:'
p2074
aS'cloud,'
p2075
aS'numPartitions:'
p2076
aS'40,'
p2077
aS'algorithm:'
p2078
aS'SVM,'
p2079
aS'algParams:'
p2080
aS'{eta0:'
p2081
aS'1.0,'
p2082
aS'tol:'
p2083
aS'1.0E-6,'
p2084
aS'workerTol:'
p2085
aS'1.0E-6,'
p2086
aS'maxIterations:'
p2087
aS'1000,'
p2088
aS'maxWorkerIterations:'
p2089
aS'1000,'
p2090
aS'miniBatchSize:'
p2091
aS'10,'
p2092
aS'useLBFGS:'
p2093
aS'false,'
p2094
aS'rho0:'
p2095
aS'1.0,'
p2096
aS'lagrangianRho:'
p2097
aS'0.5,'
p2098
aS'regParam:'
p2099
aS'1.0E-4,'
p2100
aS'runtimeMS:'
p2101
aS'20000,'
p2102
aS'displayIncrementalStats:'
p2103
aS'false,'
p2104
aS'adaptiveRho:'
p2105
aS'false,'
p2106
aS'broadcastDelayMS:'
p2107
aS'100,'
p2108
aS'usePorkChop:'
p2109
aS'false},'
p2110
aS'regType:'
p2111
aS'L2,'
p2112
aS'pointCloudDim:'
p2113
aS'2,'
p2114
aS'pointCloudNoise:'
p2115
aS'0.05,'
p2116
aS'pointCloudSkew:'
p2117
aS'0.0,'
p2118
aS'pointCloudPoints:'
p2119
aS'500000,'
p2120
aS'pointCloudSize:'
p2121
aS'1.0}'
p2122
aS'{iterations:'
p2123
aS'31,'
p2124
aS'runtime:'
p2125
aS'20294}'
p2126
asg90
F0.5
sg91
F12172788.319585817
sg92
g328
sg94
F0.00026273114822924332
sg95
S'cd /mnt/spark; sbin/stop-all.sh; sleep 5; sbin/start-all.sh; sleep 3;./bin/spark-submit --driver-memory 52g --class org.apache.spark.examples.mllib.research.SynchronousADMMTests examples/target/scala-*/spark-examples-*.jar --algorithm SVM --regType L2 --regParam 0.000100 --format cloud --numPartitions 40 --runtimeMS 20000 --ADMMmaxLocalIterations 1000 --ADMMepsilon 0.000001  --ADMMLocalepsilon 0.000001 --ADMMrho 1.000000 --ADMMLagrangianrho 0.500000 --broadcastDelayMs 100  --pointCloudPointsPerPartition 500000 --pointCloudPartitionSkew 0.000000 --pointCloudLabelNoise 0.050000 --pointCloudDimension 2   '
p2127
sg97
F0.0
sg98
F0.32094305000000001
sg99
g2071
sg100
F20294.0
sa(dp2128
g2
I-1
sg3
g4
sg5
I1000
sg6
F20000.0
sg7
F46.0
sg8
F16521746.531003078
sg9
F9.9999999999999995e-07
sg10
I40
sg11
S'--pointCloudPointsPerPartition 500000 --pointCloudPartitionSkew 0.000000 --pointCloudLabelNoise 0.050000 --pointCloudDimension 100 '
p2129
sg13
F1.0
sg14
F9.9999999999999995e-07
sg15
I100
sg16
F0.0001
sg17
g18
sg19
(lp2130
S'RESULT:'
p2131
aS'SVMADMM'
p2132
aS'46'
p2133
aS'20000'
p2134
aS'20221'
p2135
aS'0.5000127'
p2136
aS'1.652174653100134E7'
p2137
aS'1.7385650972162101E-6'
p2138
aS'1.6521746531003078E7'
p2139
aS'-3.8558180515410866E-4,0.0011053068121118193,2.597551682088813E-4,0.0015952990920206757,0.0019242129101616657,9.936783935982068E-4,-8.143942854479306E-4,6.479999465629521E-4,0.0027380592984708766,0.0020831912630362008,-7.451388127651719E-4,0.003525961897585528,7.590275502031392E-4,0.0019474232559891697,0.002281637070005383,1.7212076281667374E-5,6.667010065528882E-5,0.0022822191446644144,0.0018766419410660656,0.00196401161307324,0.0011249935296569224,0.002960878028736638,0.002542538398869612,8.330049397932222E-4,0.003035316310876614,8.475534244938184E-4,0.0014495858338426635,0.0014065217568364633,0.001640298690223443,7.315046495116672E-5,0.001584468556593369,8.894406970233194E-4,0.002420786636006023,4.890266370956584E-4,0.0014962732112444041,0.0027459933528448093,0.001998344285507343,-2.8784733573536983E-4,0.0012784346528010634,0.0034018779845409776,0.0014020633081875831,7.128998422723991E-4,0.0018512608122583536,7.202644210648625E-4,8.27925774730276E-4,0.0012401052623066118,0.0018642035228231303,0.002827603462699145,7.243779024517112E-4,0.0024325564986888617,0.0010210298950603222,0.0017972448501119896,0.002965077448004424,0.0011987437928554904,0.00295059377654463,0.003287113935854693,9.625799894770004E-4,0.0012238396505236645,0.0012246165617634806,0.002519055885852463,7.357426647999538E-4,9.830894546821757E-4,5.588303367942498E-4,2.492164104427306E-4,0.0010807194470698132,0.0026552773202175714,0.0015971846374424233,0.003747694319592753,-0.0013775531558003079,0.0015261820117001652,0.0032364157144113125,0.0010224209914555787,1.788298846303729E-4,0.00157581275808909,0.003459351700538742,4.1212797859483275E-4,0.0011334062553626622,-1.6641688757309484E-4,0.003532424175671247,0.0014576573300745749,0.0024115095059020473,0.0015843744294626967,0.0016257447313365696,0.0019195111732413987,0.00224493903569392,0.0018248866908784026,3.2491775107369193E-4,0.002134433357382447,0.0013979335380934715,0.0021044205742607107,0.001697223894582922,0.002446465980572698,0.0025095735010859438,-4.011391934966795E-4,0.0011950648632138789,2.265385882893615E-4,0.0010246100291423435,9.528681316302883E-4,6.114148024824872E-4,-0.1306196408612853'
p2140
aS'{input:'
p2141
aS'null,'
p2142
aS'format:'
p2143
aS'cloud,'
p2144
aS'numPartitions:'
p2145
aS'40,'
p2146
aS'algorithm:'
p2147
aS'SVMADMM,'
p2148
aS'algParams:'
p2149
aS'{eta0:'
p2150
aS'1.0,'
p2151
aS'tol:'
p2152
aS'1.0E-6,'
p2153
aS'workerTol:'
p2154
aS'1.0E-6,'
p2155
aS'maxIterations:'
p2156
aS'1000,'
p2157
aS'maxWorkerIterations:'
p2158
aS'1000,'
p2159
aS'miniBatchSize:'
p2160
aS'10,'
p2161
aS'useLBFGS:'
p2162
aS'false,'
p2163
aS'rho0:'
p2164
aS'1.0,'
p2165
aS'lagrangianRho:'
p2166
aS'0.5,'
p2167
aS'regParam:'
p2168
aS'1.0E-4,'
p2169
aS'runtimeMS:'
p2170
aS'20000,'
p2171
aS'displayIncrementalStats:'
p2172
aS'false,'
p2173
aS'adaptiveRho:'
p2174
aS'false,'
p2175
aS'broadcastDelayMS:'
p2176
aS'-1,'
p2177
aS'usePorkChop:'
p2178
aS'false},'
p2179
aS'regType:'
p2180
aS'L2,'
p2181
aS'pointCloudDim:'
p2182
aS'100,'
p2183
aS'pointCloudNoise:'
p2184
aS'0.05,'
p2185
aS'pointCloudSkew:'
p2186
aS'0.0,'
p2187
aS'pointCloudPoints:'
p2188
aS'500000,'
p2189
aS'pointCloudSize:'
p2190
aS'1.0}'
p2191
aS'{iterations:'
p2192
aS'46,'
p2193
aS'avgSGDIters:'
p2194
aS'[1000.0,'
p2195
aS'1000.0,'
p2196
aS'1000.0],'
p2197
aS'runtime:'
p2198
aS'20221}'
p2199
asg90
F0.5
sg91
F16521746.531001341
sg92
g93
sg94
F1.7385650972162101e-06
sg95
S'cd /mnt/spark; sbin/stop-all.sh; sleep 5; sbin/start-all.sh; sleep 3;./bin/spark-submit --driver-memory 52g --class org.apache.spark.examples.mllib.research.SynchronousADMMTests examples/target/scala-*/spark-examples-*.jar --algorithm SVMADMM --regType L2 --regParam 0.000100 --format cloud --numPartitions 40 --runtimeMS 20000 --ADMMmaxLocalIterations 1000 --ADMMepsilon 0.000001  --ADMMLocalepsilon 0.000001 --ADMMrho 1.000000 --ADMMLagrangianrho 0.500000 --broadcastDelayMs -1  --pointCloudPointsPerPartition 500000 --pointCloudPartitionSkew 0.000000 --pointCloudLabelNoise 0.050000 --pointCloudDimension 100   '
p2200
sg97
F0.0
sg98
F0.50001269999999998
sg99
g2140
sg100
F20221.0
sa(dp2201
g2
I100
sg3
g4
sg5
I1000
sg6
F20000.0
sg7
F880.79999999999995
sg8
F12069989.661391307
sg9
F9.9999999999999995e-07
sg10
I40
sg11
S'--pointCloudPointsPerPartition 500000 --pointCloudPartitionSkew 0.000000 --pointCloudLabelNoise 0.050000 --pointCloudDimension 100 '
p2202
sg13
F1.0
sg14
F9.9999999999999995e-07
sg15
I100
sg16
F0.0001
sg17
g18
sg19
(lp2203
S'RESULT:'
p2204
aS'SVMADMMAsync'
p2205
aS'880.8'
p2206
aS'20000'
p2207
aS'20430'
p2208
aS'0.0500328'
p2209
aS'1.2069989596089039E7'
p2210
aS'0.06530226785759541'
p2211
aS'1.2069989661391307E7'
p2212
aS'0.02939002221890476,0.03509036721620545,0.0497053433499388,0.04833135163790193,0.044031022760076054,0.04215061505056974,0.042179428750408046,0.04197831307759658,0.04469050051210015,0.04467069720729308,0.04281666942503667,0.04565329928865334,0.04854648217357798,0.04651460284491732,0.047036282431511936,0.04163809998604311,0.048994319970410455,0.04467102046401453,0.042719296942381677,0.04722812328140256,0.04284770125884755,0.046292301448632375,0.04457549686108566,0.0490790567933327,0.03833563833116249,0.04713355279130981,0.04956145675968525,0.047893091973637225,0.041278114983749184,0.03544572742534967,0.045343374035559415,0.04107819145981209,0.04379095499942199,0.0362375309390913,0.04124465016614039,0.039225034825347546,0.051276415527424284,0.04406174529089889,0.04360401254507596,0.051205924328551804,0.048408235469901195,0.044581844964164286,0.03947987825793167,0.04304097726409503,0.04907623440463067,0.04414249681763718,0.04287986500419632,0.04174564936190169,0.04246805106259985,0.0503451519414039,0.039472335699654956,0.046983218022248606,0.04405962394438837,0.03924248208786105,0.04816693846004804,0.04481318950156928,0.04153141155707453,0.04341262547562777,0.0418220331496596,0.05090769728841851,0.042636198130770735,0.044784699175484104,0.04980542289682105,0.05197016228734326,0.050291095436584984,0.04679349925415048,0.04337817889729933,0.04471224197246237,0.04349663057248819,0.04678776058221554,0.04739568877589026,0.04108282407172751,0.03794167758223954,0.052520247383400574,0.042478063047764525,0.04668428295250515,0.041161896602321994,0.03595789935004869,0.04545638419426188,0.05262586971707718,0.04735598751372905,0.04568392762533639,0.04152819750603683,0.0491264498058329,0.04551011767355124,0.051323052398575535,0.04068764876173779,0.046068786657743964,0.046151454240348354,0.04627528696301467,0.039920625253704246,0.04345846136437045,0.04828212456293743,0.05262890627401622,0.045989799198042976,0.04120009706778206,0.04599183397973316,0.04437584089220682,0.050544043870813786,-25.550404741573903'
p2213
aS'{input:'
p2214
aS'null,'
p2215
aS'format:'
p2216
aS'cloud,'
p2217
aS'numPartitions:'
p2218
aS'40,'
p2219
aS'algorithm:'
p2220
aS'SVMADMMAsync,'
p2221
aS'algParams:'
p2222
aS'{eta0:'
p2223
aS'1.0,'
p2224
aS'tol:'
p2225
aS'1.0E-6,'
p2226
aS'workerTol:'
p2227
aS'1.0E-6,'
p2228
aS'maxIterations:'
p2229
aS'1000,'
p2230
aS'maxWorkerIterations:'
p2231
aS'1000,'
p2232
aS'miniBatchSize:'
p2233
aS'10,'
p2234
aS'useLBFGS:'
p2235
aS'false,'
p2236
aS'rho0:'
p2237
aS'1.0,'
p2238
aS'lagrangianRho:'
p2239
aS'0.5,'
p2240
aS'regParam:'
p2241
aS'1.0E-4,'
p2242
aS'runtimeMS:'
p2243
aS'20000,'
p2244
aS'displayIncrementalStats:'
p2245
aS'false,'
p2246
aS'adaptiveRho:'
p2247
aS'false,'
p2248
aS'broadcastDelayMS:'
p2249
aS'100,'
p2250
aS'usePorkChop:'
p2251
aS'false},'
p2252
aS'regType:'
p2253
aS'L2,'
p2254
aS'pointCloudDim:'
p2255
aS'100,'
p2256
aS'pointCloudNoise:'
p2257
aS'0.05,'
p2258
aS'pointCloudSkew:'
p2259
aS'0.0,'
p2260
aS'pointCloudPoints:'
p2261
aS'500000,'
p2262
aS'pointCloudSize:'
p2263
aS'1.0}'
p2264
aS'{avgMsgsSent:'
p2265
aS'[200.0,'
p2266
aS'200.0,'
p2267
aS'200.0],'
p2268
aS'avgMsgsRcvd:'
p2269
aS'[1400.0,'
p2270
aS'1400.0,'
p2271
aS'1400.0],'
p2272
aS'avgSGDIters:'
p2273
aS'[0.0,'
p2274
aS'248.025,'
p2275
aS'901.0],'
p2276
aS'iterations:'
p2277
aS'880.8,'
p2278
aS'runtime:'
p2279
aS'20430}'
p2280
asg90
F0.5
sg91
F12069989.596089039
sg92
g181
sg94
F0.065302267857595409
sg95
S'cd /mnt/spark; sbin/stop-all.sh; sleep 5; sbin/start-all.sh; sleep 3;./bin/spark-submit --driver-memory 52g --class org.apache.spark.examples.mllib.research.SynchronousADMMTests examples/target/scala-*/spark-examples-*.jar --algorithm SVMADMMAsync --regType L2 --regParam 0.000100 --format cloud --numPartitions 40 --runtimeMS 20000 --ADMMmaxLocalIterations 1000 --ADMMepsilon 0.000001  --ADMMLocalepsilon 0.000001 --ADMMrho 1.000000 --ADMMLagrangianrho 0.500000 --broadcastDelayMs 100  --pointCloudPointsPerPartition 500000 --pointCloudPartitionSkew 0.000000 --pointCloudLabelNoise 0.050000 --pointCloudDimension 100   '
p2281
sg97
F0.0
sg98
F0.050032800000000002
sg99
g2213
sg100
F20430.0
sa(dp2282
g2
I5
sg3
g4
sg5
I1000
sg6
F20000.0
sg7
F5447267.5
sg8
F4605457421.981143
sg9
F9.9999999999999995e-07
sg10
I40
sg11
S'--pointCloudPointsPerPartition 500000 --pointCloudPartitionSkew 0.000000 --pointCloudLabelNoise 0.050000 --pointCloudDimension 100 '
p2283
sg13
F1.0
sg14
F9.9999999999999995e-07
sg15
I100
sg16
F0.0001
sg17
g18
sg19
(lp2284
S'RESULT:'
p2285
aS'HOGWILDSVM'
p2286
aS'5447267.5'
p2287
aS'20000'
p2288
aS'20833'
p2289
aS'0.4999873'
p2290
aS'4.605457421968778E9'
p2291
aS'0.012365424525413641'
p2292
aS'4.605457421981143E9'
p2293
aS'1.4203991316171256,1.2224900452784855,0.32423363385189613,0.13825147336603516,0.18613043964064988,-0.9944411700891314,-1.14495794479884,0.02478713378222897,-0.7763726053112744,0.4018803302587673,-0.9639841728146862,1.5379543663278417,0.13009200389577263,-1.1000858357297694,-1.0530347842417094,-2.444262426921242,1.17434208066587,-0.8679510909830199,0.7490827965290836,-1.1337663835226435,0.08811148770959254,0.3825067768080605,0.11294296826646254,-1.8849602079096488,-1.5077448887078369,-0.8713391497266832,-2.517756788003654,-0.39907311063441264,-3.4552021440475964,-0.7096561685265357,0.7721850082171745,1.026184085568475,-1.0789725522509241,-0.2927508597576537,0.9035211686967298,-0.08973938289113025,-0.6713690110754413,-1.201637674203718,-0.5977502582212759,-1.348219311614292,-1.9803861226056267,-2.708023735149413,-1.5774834812001834,0.11757074578444508,-1.131773993509739,0.8290858165590305,-0.11135065955225386,-1.436658212233956,-0.062324628819735106,-0.3870109181214895,-0.9391259338323876,-0.5459711255076942,-0.632159428457232,-1.3098539408914995,-1.0524710614054034,-0.3757547409820241,-0.5792237621904396,0.43060641318919796,-1.9236885607494798,0.02660598387258947,0.4434472836654395,-0.22461195751790172,-2.2749007514132766,0.1551617433359091,-1.3819433159591756,-0.49889716953837127,-0.9935730625555593,1.0747562764150207,0.11418301903198329,-0.149992626842273,-1.474956356620418,-0.8654486001956331,0.3837827783179952,0.11824151010041516,-0.627251894301735,-1.224809039717695,0.8449408863961436,-1.0282300914800035,0.10470852149943925,-0.8590639958047696,-0.6611619724303169,-0.4518810460881981,-0.393277887578452,-0.9343832606976619,0.903635252559828,0.7480836315597618,-0.5731442690622626,-0.3498222536049436,-0.06898910978493288,0.7255870060612802,-0.08529849292600965,-0.29673584682327514,-0.9190929655686457,-0.3136266792593935,-0.393643454011603,-1.4818010885788129,0.23781351011389262,-1.0062923171111244,-1.2146076280931375,-3.7259733886414304'
p2294
aS'{input:'
p2295
aS'null,'
p2296
aS'format:'
p2297
aS'cloud,'
p2298
aS'numPartitions:'
p2299
aS'40,'
p2300
aS'algorithm:'
p2301
aS'HOGWILDSVM,'
p2302
aS'algParams:'
p2303
aS'{eta0:'
p2304
aS'1.0,'
p2305
aS'tol:'
p2306
aS'1.0E-6,'
p2307
aS'workerTol:'
p2308
aS'1.0E-6,'
p2309
aS'maxIterations:'
p2310
aS'1000,'
p2311
aS'maxWorkerIterations:'
p2312
aS'1000,'
p2313
aS'miniBatchSize:'
p2314
aS'10,'
p2315
aS'useLBFGS:'
p2316
aS'false,'
p2317
aS'rho0:'
p2318
aS'1.0,'
p2319
aS'lagrangianRho:'
p2320
aS'0.5,'
p2321
aS'regParam:'
p2322
aS'1.0E-4,'
p2323
aS'runtimeMS:'
p2324
aS'20000,'
p2325
aS'displayIncrementalStats:'
p2326
aS'false,'
p2327
aS'adaptiveRho:'
p2328
aS'false,'
p2329
aS'broadcastDelayMS:'
p2330
aS'5,'
p2331
aS'usePorkChop:'
p2332
aS'false},'
p2333
aS'regType:'
p2334
aS'L2,'
p2335
aS'pointCloudDim:'
p2336
aS'100,'
p2337
aS'pointCloudNoise:'
p2338
aS'0.05,'
p2339
aS'pointCloudSkew:'
p2340
aS'0.0,'
p2341
aS'pointCloudPoints:'
p2342
aS'500000,'
p2343
aS'pointCloudSize:'
p2344
aS'1.0}'
p2345
aS'{iterations:'
p2346
aS'5447267.5,'
p2347
aS'msgsSent:'
p2348
aS'[3469.0,'
p2349
aS'3494.35,'
p2350
aS'3513.0],'
p2351
aS'avgMsgsRcvd:'
p2352
aS'[0.0,'
p2353
aS'0.0,'
p2354
aS'0.0],'
p2355
aS'runtime:'
p2356
aS'20833}'
p2357
asg90
F0.5
sg91
F4605457421.9687777
sg92
g259
sg94
F0.012365424525413641
sg95
S'cd /mnt/spark; sbin/stop-all.sh; sleep 5; sbin/start-all.sh; sleep 3;./bin/spark-submit --driver-memory 52g --class org.apache.spark.examples.mllib.research.SynchronousADMMTests examples/target/scala-*/spark-examples-*.jar --algorithm HOGWILDSVM --regType L2 --regParam 0.000100 --format cloud --numPartitions 40 --runtimeMS 20000 --ADMMmaxLocalIterations 1000 --ADMMepsilon 0.000001  --ADMMLocalepsilon 0.000001 --ADMMrho 1.000000 --ADMMLagrangianrho 0.500000 --broadcastDelayMs 5  --pointCloudPointsPerPartition 500000 --pointCloudPartitionSkew 0.000000 --pointCloudLabelNoise 0.050000 --pointCloudDimension 100   '
p2358
sg97
F0.0
sg98
F0.49998730000000002
sg99
g2294
sg100
F20833.0
sa(dp2359
g2
I100
sg3
g4
sg5
I1000
sg6
F20000.0
sg7
F18.0
sg8
F696568574.62059498
sg9
F9.9999999999999995e-07
sg10
I40
sg11
S'--pointCloudPointsPerPartition 500000 --pointCloudPartitionSkew 0.000000 --pointCloudLabelNoise 0.050000 --pointCloudDimension 100 '
p2360
sg13
F1.0
sg14
F9.9999999999999995e-07
sg15
I100
sg16
F0.0001
sg17
g18
sg19
(lp2361
S'RESULT:'
p2362
aS'SVM'
p2363
aS'18'
p2364
aS'20000'
p2365
aS'20307'
p2366
aS'0.4999873'
p2367
aS'6.965685746204039E8'
p2368
aS'1.9112975148660556E-4'
p2369
aS'6.96568574620595E8'
p2370
aS'-0.07068119052463429,-0.068806996946159,-0.07204744434848931,-0.06906585144650634,-0.06929607341554578,-0.06994404180003022,-0.07223085655935557,-0.06947262741270599,-0.07100311584118324,-0.0692254249192854,-0.06896398701392603,-0.06988571929507437,-0.07035344120376175,-0.06966307716697051,-0.069034296067224,-0.0706844709232517,-0.07090047359548923,-0.06996342487198803,-0.07007776484329797,-0.06952490125333799,-0.06976063575631564,-0.06999963628543049,-0.06942149175241141,-0.06929743355972484,-0.06868325951916743,-0.06952982542340969,-0.07034093566061184,-0.0695793612806278,-0.07069138632836325,-0.06978275167670067,-0.06852116596587565,-0.07129777311696195,-0.06899363781179191,-0.07164056388580975,-0.07078451203839309,-0.07081456722145418,-0.07018560119802197,-0.06954405459043433,-0.0709553428296903,-0.06852378591672359,-0.0692158211769679,-0.06897148128558794,-0.071137698426329,-0.06965608309635163,-0.07066155105568961,-0.06917678736587596,-0.0705458913059075,-0.07076667897775657,-0.06992373376762284,-0.07054795944896874,-0.069059054055986,-0.07113919384768463,-0.06942858756503079,-0.07093489840568523,-0.06927259424096699,-0.06862199425862747,-0.07092270249613053,-0.0699623252440772,-0.07002891649227416,-0.06764128835295558,-0.06997115443577473,-0.06907528318578571,-0.07017065552648738,-0.06934791033742349,-0.06810698472155008,-0.06855812574368814,-0.06838640895378656,-0.06930901652984112,-0.07077456764585044,-0.07010635726185599,-0.06915709908757761,-0.07101494430110167,-0.06939546400729812,-0.06874200773969541,-0.07032558439594672,-0.07074048375299968,-0.06935812184112122,-0.0707275830218308,-0.07133211297357223,-0.06969312724496812,-0.06899901552562959,-0.07171406594598007,-0.07007076106109433,-0.06921765965904869,-0.06984478483907708,-0.06888081975478344,-0.07056618281632288,-0.07076127569622404,-0.06953122903767517,-0.06985237551601842,-0.06870017752023028,-0.07029722688302176,-0.06965458844152361,-0.07024765918688958,-0.07119406782893889,-0.07048739195269282,-0.07011638399260989,-0.0696826047676199,-0.06850906148824198,-1.1948213366574407'
p2371
aS'{input:'
p2372
aS'null,'
p2373
aS'format:'
p2374
aS'cloud,'
p2375
aS'numPartitions:'
p2376
aS'40,'
p2377
aS'algorithm:'
p2378
aS'SVM,'
p2379
aS'algParams:'
p2380
aS'{eta0:'
p2381
aS'1.0,'
p2382
aS'tol:'
p2383
aS'1.0E-6,'
p2384
aS'workerTol:'
p2385
aS'1.0E-6,'
p2386
aS'maxIterations:'
p2387
aS'1000,'
p2388
aS'maxWorkerIterations:'
p2389
aS'1000,'
p2390
aS'miniBatchSize:'
p2391
aS'10,'
p2392
aS'useLBFGS:'
p2393
aS'false,'
p2394
aS'rho0:'
p2395
aS'1.0,'
p2396
aS'lagrangianRho:'
p2397
aS'0.5,'
p2398
aS'regParam:'
p2399
aS'1.0E-4,'
p2400
aS'runtimeMS:'
p2401
aS'20000,'
p2402
aS'displayIncrementalStats:'
p2403
aS'false,'
p2404
aS'adaptiveRho:'
p2405
aS'false,'
p2406
aS'broadcastDelayMS:'
p2407
aS'100,'
p2408
aS'usePorkChop:'
p2409
aS'false},'
p2410
aS'regType:'
p2411
aS'L2,'
p2412
aS'pointCloudDim:'
p2413
aS'100,'
p2414
aS'pointCloudNoise:'
p2415
aS'0.05,'
p2416
aS'pointCloudSkew:'
p2417
aS'0.0,'
p2418
aS'pointCloudPoints:'
p2419
aS'500000,'
p2420
aS'pointCloudSize:'
p2421
aS'1.0}'
p2422
aS'{iterations:'
p2423
aS'18,'
p2424
aS'runtime:'
p2425
aS'20307}'
p2426
asg90
F0.5
sg91
F696568574.62040389
sg92
g328
sg94
F0.00019112975148660556
sg95
S'cd /mnt/spark; sbin/stop-all.sh; sleep 5; sbin/start-all.sh; sleep 3;./bin/spark-submit --driver-memory 52g --class org.apache.spark.examples.mllib.research.SynchronousADMMTests examples/target/scala-*/spark-examples-*.jar --algorithm SVM --regType L2 --regParam 0.000100 --format cloud --numPartitions 40 --runtimeMS 20000 --ADMMmaxLocalIterations 1000 --ADMMepsilon 0.000001  --ADMMLocalepsilon 0.000001 --ADMMrho 1.000000 --ADMMLagrangianrho 0.500000 --broadcastDelayMs 100  --pointCloudPointsPerPartition 500000 --pointCloudPartitionSkew 0.000000 --pointCloudLabelNoise 0.050000 --pointCloudDimension 100   '
p2427
sg97
F0.0
sg98
F0.49998730000000002
sg99
g2371
sg100
F20307.0
sa(dp2428
g2
I-1
sg3
g4
sg5
I1000
sg6
F1000.0
sg7
F2.0
sg8
F22037013.393169045
sg9
F9.9999999999999995e-07
sg10
I40
sg11
S'--pointCloudPointsPerPartition 500000 --pointCloudPartitionSkew 0.000000 --pointCloudLabelNoise 0.050000 --pointCloudDimension 10 '
p2429
sg13
F1.0
sg14
F9.9999999999999995e-07
sg15
I10
sg16
F0.0001
sg17
g18
sg19
(lp2430
S'RESULT:'
p2431
aS'SVMADMM'
p2432
ag23
aS'1000'
p2433
aS'1480'
p2434
aS'0.5000272'
p2435
aS'2.2037013393169016E7'
p2436
aS'2.9649308233389422E-8'
p2437
aS'2.2037013393169045E7'
p2438
aS'-0.005360315577594079,-0.0048366840392509896,-0.0051205455781463734,-0.005119575051681854,-0.004706879352356096,-0.004908440290863394,-0.004747428672674242,-0.004673675461167518,-0.005790871121346877,-0.008232468768854705'
p2439
aS'{input:'
p2440
aS'null,'
p2441
aS'format:'
p2442
aS'cloud,'
p2443
aS'numPartitions:'
p2444
aS'40,'
p2445
aS'algorithm:'
p2446
aS'SVMADMM,'
p2447
aS'algParams:'
p2448
aS'{eta0:'
p2449
aS'1.0,'
p2450
aS'tol:'
p2451
aS'1.0E-6,'
p2452
aS'workerTol:'
p2453
aS'1.0E-6,'
p2454
aS'maxIterations:'
p2455
aS'1000,'
p2456
aS'maxWorkerIterations:'
p2457
aS'1000,'
p2458
aS'miniBatchSize:'
p2459
aS'10,'
p2460
aS'useLBFGS:'
p2461
aS'false,'
p2462
aS'rho0:'
p2463
aS'1.0,'
p2464
aS'lagrangianRho:'
p2465
aS'0.5,'
p2466
aS'regParam:'
p2467
aS'1.0E-4,'
p2468
aS'runtimeMS:'
p2469
aS'1000,'
p2470
aS'displayIncrementalStats:'
p2471
aS'false,'
p2472
aS'adaptiveRho:'
p2473
aS'false,'
p2474
aS'broadcastDelayMS:'
p2475
aS'-1,'
p2476
aS'usePorkChop:'
p2477
aS'false},'
p2478
aS'regType:'
p2479
aS'L2,'
p2480
aS'pointCloudDim:'
p2481
aS'10,'
p2482
aS'pointCloudNoise:'
p2483
aS'0.05,'
p2484
aS'pointCloudSkew:'
p2485
aS'0.0,'
p2486
aS'pointCloudPoints:'
p2487
aS'500000,'
p2488
aS'pointCloudSize:'
p2489
aS'1.0}'
p2490
aS'{iterations:'
p2491
aS'2,'
p2492
aS'avgSGDIters:'
p2493
aS'[1000.0,'
p2494
aS'1000.0,'
p2495
aS'1000.0],'
p2496
aS'runtime:'
p2497
aS'1480}'
p2498
asg90
F0.5
sg91
F22037013.393169016
sg92
g93
sg94
F2.9649308233389422e-08
sg95
S'cd /mnt/spark; sbin/stop-all.sh; sleep 5; sbin/start-all.sh; sleep 3;./bin/spark-submit --driver-memory 52g --class org.apache.spark.examples.mllib.research.SynchronousADMMTests examples/target/scala-*/spark-examples-*.jar --algorithm SVMADMM --regType L2 --regParam 0.000100 --format cloud --numPartitions 40 --runtimeMS 1000 --ADMMmaxLocalIterations 1000 --ADMMepsilon 0.000001  --ADMMLocalepsilon 0.000001 --ADMMrho 1.000000 --ADMMLagrangianrho 0.500000 --broadcastDelayMs -1  --pointCloudPointsPerPartition 500000 --pointCloudPartitionSkew 0.000000 --pointCloudLabelNoise 0.050000 --pointCloudDimension 10   '
p2499
sg97
F0.0
sg98
F0.5000272
sg99
g2439
sg100
F1480.0
sa(dp2500
g2
I100
sg3
g4
sg5
I1000
sg6
F1000.0
sg7
F48.5
sg8
F14388789.124000695
sg9
F9.9999999999999995e-07
sg10
I40
sg11
S'--pointCloudPointsPerPartition 500000 --pointCloudPartitionSkew 0.000000 --pointCloudLabelNoise 0.050000 --pointCloudDimension 10 '
p2501
sg13
F1.0
sg14
F9.9999999999999995e-07
sg15
I10
sg16
F0.0001
sg17
g18
sg19
(lp2502
S'RESULT:'
p2503
aS'SVMADMMAsync'
p2504
aS'48.5'
p2505
aS'1000'
p2506
aS'1421'
p2507
aS'0.050067'
p2508
aS'1.4388789123884426E7'
p2509
aS'1.1626876571438296E-4'
p2510
aS'1.4388789124000695E7'
p2511
aS'0.012992024129719677,0.014851416593788276,0.014667489809446736,0.012560327328238698,0.015971317476183057,0.013988896262474048,0.012997915506360199,0.013355927597222587,0.013327058636083564,-1.0774737553630471'
p2512
aS'{input:'
p2513
aS'null,'
p2514
aS'format:'
p2515
aS'cloud,'
p2516
aS'numPartitions:'
p2517
aS'40,'
p2518
aS'algorithm:'
p2519
aS'SVMADMMAsync,'
p2520
aS'algParams:'
p2521
aS'{eta0:'
p2522
aS'1.0,'
p2523
aS'tol:'
p2524
aS'1.0E-6,'
p2525
aS'workerTol:'
p2526
aS'1.0E-6,'
p2527
aS'maxIterations:'
p2528
aS'1000,'
p2529
aS'maxWorkerIterations:'
p2530
aS'1000,'
p2531
aS'miniBatchSize:'
p2532
aS'10,'
p2533
aS'useLBFGS:'
p2534
aS'false,'
p2535
aS'rho0:'
p2536
aS'1.0,'
p2537
aS'lagrangianRho:'
p2538
aS'0.5,'
p2539
aS'regParam:'
p2540
aS'1.0E-4,'
p2541
aS'runtimeMS:'
p2542
aS'1000,'
p2543
aS'displayIncrementalStats:'
p2544
aS'false,'
p2545
aS'adaptiveRho:'
p2546
aS'false,'
p2547
aS'broadcastDelayMS:'
p2548
aS'100,'
p2549
aS'usePorkChop:'
p2550
aS'false},'
p2551
aS'regType:'
p2552
aS'L2,'
p2553
aS'pointCloudDim:'
p2554
aS'10,'
p2555
aS'pointCloudNoise:'
p2556
aS'0.05,'
p2557
aS'pointCloudSkew:'
p2558
aS'0.0,'
p2559
aS'pointCloudPoints:'
p2560
aS'500000,'
p2561
aS'pointCloudSize:'
p2562
aS'1.0}'
p2563
aS'{avgMsgsSent:'
p2564
aS'[10.0,'
p2565
aS'10.0,'
p2566
aS'10.0],'
p2567
aS'avgMsgsRcvd:'
p2568
aS'[70.0,'
p2569
aS'70.0,'
p2570
aS'70.0],'
p2571
aS'avgSGDIters:'
p2572
aS'[0.0,'
p2573
aS'112.7,'
p2574
aS'901.0],'
p2575
aS'iterations:'
p2576
aS'48.5,'
p2577
aS'runtime:'
p2578
aS'1421}'
p2579
asg90
F0.5
sg91
F14388789.123884426
sg92
g181
sg94
F0.00011626876571438296
sg95
S'cd /mnt/spark; sbin/stop-all.sh; sleep 5; sbin/start-all.sh; sleep 3;./bin/spark-submit --driver-memory 52g --class org.apache.spark.examples.mllib.research.SynchronousADMMTests examples/target/scala-*/spark-examples-*.jar --algorithm SVMADMMAsync --regType L2 --regParam 0.000100 --format cloud --numPartitions 40 --runtimeMS 1000 --ADMMmaxLocalIterations 1000 --ADMMepsilon 0.000001  --ADMMLocalepsilon 0.000001 --ADMMrho 1.000000 --ADMMLagrangianrho 0.500000 --broadcastDelayMs 100  --pointCloudPointsPerPartition 500000 --pointCloudPartitionSkew 0.000000 --pointCloudLabelNoise 0.050000 --pointCloudDimension 10   '
p2580
sg97
F0.0
sg98
F0.050067
sg99
g2512
sg100
F1421.0
sa(dp2581
g2
I5
sg3
g4
sg5
I1000
sg6
F1000.0
sg7
F9783.75
sg8
F202539380.78775683
sg9
F9.9999999999999995e-07
sg10
I40
sg11
S'--pointCloudPointsPerPartition 500000 --pointCloudPartitionSkew 0.000000 --pointCloudLabelNoise 0.050000 --pointCloudDimension 10 '
p2582
sg13
F1.0
sg14
F9.9999999999999995e-07
sg15
I10
sg16
F0.0001
sg17
g18
sg19
(lp2583
S'RESULT:'
p2584
aS'HOGWILDSVM'
p2585
aS'9783.75'
p2586
aS'1000'
p2587
aS'1888'
p2588
aS'0.5000272'
p2589
aS'2.0253938078591305E8'
p2590
aS'0.0018437933210735016'
p2591
aS'2.0253938078775683E8'
p2592
aS'0.6819419276660063,-0.6978538064751456,-0.4338570216250166,-1.2050779767049908,0.0690042724982501,1.283929693747928,-0.7643650755588319,-0.18448891117894994,-0.3477286851858578,-3.6678333146379223'
p2593
aS'{input:'
p2594
aS'null,'
p2595
aS'format:'
p2596
aS'cloud,'
p2597
aS'numPartitions:'
p2598
aS'40,'
p2599
aS'algorithm:'
p2600
aS'HOGWILDSVM,'
p2601
aS'algParams:'
p2602
aS'{eta0:'
p2603
aS'1.0,'
p2604
aS'tol:'
p2605
aS'1.0E-6,'
p2606
aS'workerTol:'
p2607
aS'1.0E-6,'
p2608
aS'maxIterations:'
p2609
aS'1000,'
p2610
aS'maxWorkerIterations:'
p2611
aS'1000,'
p2612
aS'miniBatchSize:'
p2613
aS'10,'
p2614
aS'useLBFGS:'
p2615
aS'false,'
p2616
aS'rho0:'
p2617
aS'1.0,'
p2618
aS'lagrangianRho:'
p2619
aS'0.5,'
p2620
aS'regParam:'
p2621
aS'1.0E-4,'
p2622
aS'runtimeMS:'
p2623
aS'1000,'
p2624
aS'displayIncrementalStats:'
p2625
aS'false,'
p2626
aS'adaptiveRho:'
p2627
aS'false,'
p2628
aS'broadcastDelayMS:'
p2629
aS'5,'
p2630
aS'usePorkChop:'
p2631
aS'false},'
p2632
aS'regType:'
p2633
aS'L2,'
p2634
aS'pointCloudDim:'
p2635
aS'10,'
p2636
aS'pointCloudNoise:'
p2637
aS'0.05,'
p2638
aS'pointCloudSkew:'
p2639
aS'0.0,'
p2640
aS'pointCloudPoints:'
p2641
aS'500000,'
p2642
aS'pointCloudSize:'
p2643
aS'1.0}'
p2644
aS'{iterations:'
p2645
aS'9783.75,'
p2646
aS'msgsSent:'
p2647
aS'[140.0,'
p2648
aS'155.4,'
p2649
aS'170.0],'
p2650
aS'avgMsgsRcvd:'
p2651
aS'[0.0,'
p2652
aS'0.0,'
p2653
aS'0.0],'
p2654
aS'runtime:'
p2655
aS'1888}'
p2656
asg90
F0.5
sg91
F202539380.78591305
sg92
g259
sg94
F0.0018437933210735016
sg95
S'cd /mnt/spark; sbin/stop-all.sh; sleep 5; sbin/start-all.sh; sleep 3;./bin/spark-submit --driver-memory 52g --class org.apache.spark.examples.mllib.research.SynchronousADMMTests examples/target/scala-*/spark-examples-*.jar --algorithm HOGWILDSVM --regType L2 --regParam 0.000100 --format cloud --numPartitions 40 --runtimeMS 1000 --ADMMmaxLocalIterations 1000 --ADMMepsilon 0.000001  --ADMMLocalepsilon 0.000001 --ADMMrho 1.000000 --ADMMLagrangianrho 0.500000 --broadcastDelayMs 5  --pointCloudPointsPerPartition 500000 --pointCloudPartitionSkew 0.000000 --pointCloudLabelNoise 0.050000 --pointCloudDimension 10   '
p2657
sg97
F0.0
sg98
F0.5000272
sg99
g2593
sg100
F1888.0
sa(dp2658
g2
I100
sg3
g4
sg5
I1000
sg6
F1000.0
sg7
F2.0
sg8
F1073153459.3444002
sg9
F9.9999999999999995e-07
sg10
I40
sg11
S'--pointCloudPointsPerPartition 500000 --pointCloudPartitionSkew 0.000000 --pointCloudLabelNoise 0.050000 --pointCloudDimension 10 '
p2659
sg13
F1.0
sg14
F9.9999999999999995e-07
sg15
I10
sg16
F0.0001
sg17
g18
sg19
(lp2660
S'RESULT:'
p2661
aS'SVM'
p2662
ag23
aS'1000'
p2663
aS'2361'
p2664
aS'0.4999728'
p2665
aS'1.0731534593398434E9'
p2666
aS'0.004556739376742901'
p2667
aS'1.0731534593444002E9'
p2668
aS'2.2501215435256734,2.250432187341779,2.250533212544873,2.2496615266412148,2.250057346854884,2.25016747918303,2.250092705789811,2.2500961314594097,2.249925224274018,5.44E-5'
p2669
aS'{input:'
p2670
aS'null,'
p2671
aS'format:'
p2672
aS'cloud,'
p2673
aS'numPartitions:'
p2674
aS'40,'
p2675
aS'algorithm:'
p2676
aS'SVM,'
p2677
aS'algParams:'
p2678
aS'{eta0:'
p2679
aS'1.0,'
p2680
aS'tol:'
p2681
aS'1.0E-6,'
p2682
aS'workerTol:'
p2683
aS'1.0E-6,'
p2684
aS'maxIterations:'
p2685
aS'1000,'
p2686
aS'maxWorkerIterations:'
p2687
aS'1000,'
p2688
aS'miniBatchSize:'
p2689
aS'10,'
p2690
aS'useLBFGS:'
p2691
aS'false,'
p2692
aS'rho0:'
p2693
aS'1.0,'
p2694
aS'lagrangianRho:'
p2695
aS'0.5,'
p2696
aS'regParam:'
p2697
aS'1.0E-4,'
p2698
aS'runtimeMS:'
p2699
aS'1000,'
p2700
aS'displayIncrementalStats:'
p2701
aS'false,'
p2702
aS'adaptiveRho:'
p2703
aS'false,'
p2704
aS'broadcastDelayMS:'
p2705
aS'100,'
p2706
aS'usePorkChop:'
p2707
aS'false},'
p2708
aS'regType:'
p2709
aS'L2,'
p2710
aS'pointCloudDim:'
p2711
aS'10,'
p2712
aS'pointCloudNoise:'
p2713
aS'0.05,'
p2714
aS'pointCloudSkew:'
p2715
aS'0.0,'
p2716
aS'pointCloudPoints:'
p2717
aS'500000,'
p2718
aS'pointCloudSize:'
p2719
aS'1.0}'
p2720
aS'{iterations:'
p2721
aS'2,'
p2722
aS'runtime:'
p2723
aS'2361}'
p2724
asg90
F0.5
sg91
F1073153459.3398434
sg92
g328
sg94
F0.0045567393767429014
sg95
S'cd /mnt/spark; sbin/stop-all.sh; sleep 5; sbin/start-all.sh; sleep 3;./bin/spark-submit --driver-memory 52g --class org.apache.spark.examples.mllib.research.SynchronousADMMTests examples/target/scala-*/spark-examples-*.jar --algorithm SVM --regType L2 --regParam 0.000100 --format cloud --numPartitions 40 --runtimeMS 1000 --ADMMmaxLocalIterations 1000 --ADMMepsilon 0.000001  --ADMMLocalepsilon 0.000001 --ADMMrho 1.000000 --ADMMLagrangianrho 0.500000 --broadcastDelayMs 100  --pointCloudPointsPerPartition 500000 --pointCloudPartitionSkew 0.000000 --pointCloudLabelNoise 0.050000 --pointCloudDimension 10   '
p2725
sg97
F0.0
sg98
F0.4999728
sg99
g2669
sg100
F2361.0
sa(dp2726
g2
I-1
sg3
g4
sg5
I1000
sg6
F1000.0
sg7
F2.0
sg8
F20864304.810208254
sg9
F9.9999999999999995e-07
sg10
I40
sg11
S'--pointCloudPointsPerPartition 500000 --pointCloudPartitionSkew 0.100000 --pointCloudLabelNoise 0.050000 --pointCloudDimension 10 '
p2727
sg13
F1.0
sg14
F9.9999999999999995e-07
sg15
I10
sg16
F0.0001
sg17
g18
sg19
(lp2728
S'RESULT:'
p2729
aS'SVMADMM'
p2730
ag23
aS'1000'
p2731
aS'1510'
p2732
aS'0.50007675'
p2733
aS'2.086430481020602E7'
p2734
aS'2.236865107613954E-6'
p2735
aS'2.0864304810208254E7'
p2736
aS'-0.001738605691517141,-0.0018644803452613633,-0.002781048735369814,-0.0021290048641697005,-0.0016270544176704644,-0.001959720945777925,-0.0018175693856592602,-0.0025134504422326814,-0.002758148782372188,-0.14941943968936774'
p2737
aS'{input:'
p2738
aS'null,'
p2739
aS'format:'
p2740
aS'cloud,'
p2741
aS'numPartitions:'
p2742
aS'40,'
p2743
aS'algorithm:'
p2744
aS'SVMADMM,'
p2745
aS'algParams:'
p2746
aS'{eta0:'
p2747
aS'1.0,'
p2748
aS'tol:'
p2749
aS'1.0E-6,'
p2750
aS'workerTol:'
p2751
aS'1.0E-6,'
p2752
aS'maxIterations:'
p2753
aS'1000,'
p2754
aS'maxWorkerIterations:'
p2755
aS'1000,'
p2756
aS'miniBatchSize:'
p2757
aS'10,'
p2758
aS'useLBFGS:'
p2759
aS'false,'
p2760
aS'rho0:'
p2761
aS'1.0,'
p2762
aS'lagrangianRho:'
p2763
aS'0.5,'
p2764
aS'regParam:'
p2765
aS'1.0E-4,'
p2766
aS'runtimeMS:'
p2767
aS'1000,'
p2768
aS'displayIncrementalStats:'
p2769
aS'false,'
p2770
aS'adaptiveRho:'
p2771
aS'false,'
p2772
aS'broadcastDelayMS:'
p2773
aS'-1,'
p2774
aS'usePorkChop:'
p2775
aS'false},'
p2776
aS'regType:'
p2777
aS'L2,'
p2778
aS'pointCloudDim:'
p2779
aS'10,'
p2780
aS'pointCloudNoise:'
p2781
aS'0.05,'
p2782
aS'pointCloudSkew:'
p2783
aS'0.1,'
p2784
aS'pointCloudPoints:'
p2785
aS'500000,'
p2786
aS'pointCloudSize:'
p2787
aS'1.0}'
p2788
aS'{iterations:'
p2789
aS'2,'
p2790
aS'avgSGDIters:'
p2791
aS'[1000.0,'
p2792
aS'1000.0,'
p2793
aS'1000.0],'
p2794
aS'runtime:'
p2795
aS'1510}'
p2796
asg90
F0.5
sg91
F20864304.810206018
sg92
g93
sg94
F2.2368651076139539e-06
sg95
S'cd /mnt/spark; sbin/stop-all.sh; sleep 5; sbin/start-all.sh; sleep 3;./bin/spark-submit --driver-memory 52g --class org.apache.spark.examples.mllib.research.SynchronousADMMTests examples/target/scala-*/spark-examples-*.jar --algorithm SVMADMM --regType L2 --regParam 0.000100 --format cloud --numPartitions 40 --runtimeMS 1000 --ADMMmaxLocalIterations 1000 --ADMMepsilon 0.000001  --ADMMLocalepsilon 0.000001 --ADMMrho 1.000000 --ADMMLagrangianrho 0.500000 --broadcastDelayMs -1  --pointCloudPointsPerPartition 500000 --pointCloudPartitionSkew 0.100000 --pointCloudLabelNoise 0.050000 --pointCloudDimension 10   '
p2797
sg97
F0.10000000000000001
sg98
F0.50007674999999996
sg99
g2737
sg100
F1510.0
sa(dp2798
g2
I100
sg3
g4
sg5
I1000
sg6
F1000.0
sg7
F43.899999999999999
sg8
F2354513.608390457
sg9
F9.9999999999999995e-07
sg10
I40
sg11
S'--pointCloudPointsPerPartition 500000 --pointCloudPartitionSkew 0.100000 --pointCloudLabelNoise 0.050000 --pointCloudDimension 10 '
p2799
sg13
F1.0
sg14
F9.9999999999999995e-07
sg15
I10
sg16
F0.0001
sg17
g18
sg19
(lp2800
S'RESULT:'
p2801
aS'SVMADMMAsync'
p2802
aS'43.9'
p2803
aS'1000'
p2804
aS'1403'
p2805
aS'0.0500588'
p2806
aS'2354513.607085326'
p2807
aS'0.001305130907013541'
p2808
aS'2354513.608390457'
p2809
aS'0.05122802537308406,0.056725178553465656,0.05504566793575934,0.05396750523746776,0.05008944320191515,0.05335895245377438,0.052804918289091965,0.05659159262000774,0.0529691224662161,-3.6090679781180266'
p2810
aS'{input:'
p2811
aS'null,'
p2812
aS'format:'
p2813
aS'cloud,'
p2814
aS'numPartitions:'
p2815
aS'40,'
p2816
aS'algorithm:'
p2817
aS'SVMADMMAsync,'
p2818
aS'algParams:'
p2819
aS'{eta0:'
p2820
aS'1.0,'
p2821
aS'tol:'
p2822
aS'1.0E-6,'
p2823
aS'workerTol:'
p2824
aS'1.0E-6,'
p2825
aS'maxIterations:'
p2826
aS'1000,'
p2827
aS'maxWorkerIterations:'
p2828
aS'1000,'
p2829
aS'miniBatchSize:'
p2830
aS'10,'
p2831
aS'useLBFGS:'
p2832
aS'false,'
p2833
aS'rho0:'
p2834
aS'1.0,'
p2835
aS'lagrangianRho:'
p2836
aS'0.5,'
p2837
aS'regParam:'
p2838
aS'1.0E-4,'
p2839
aS'runtimeMS:'
p2840
aS'1000,'
p2841
aS'displayIncrementalStats:'
p2842
aS'false,'
p2843
aS'adaptiveRho:'
p2844
aS'false,'
p2845
aS'broadcastDelayMS:'
p2846
aS'100,'
p2847
aS'usePorkChop:'
p2848
aS'false},'
p2849
aS'regType:'
p2850
aS'L2,'
p2851
aS'pointCloudDim:'
p2852
aS'10,'
p2853
aS'pointCloudNoise:'
p2854
aS'0.05,'
p2855
aS'pointCloudSkew:'
p2856
aS'0.1,'
p2857
aS'pointCloudPoints:'
p2858
aS'500000,'
p2859
aS'pointCloudSize:'
p2860
aS'1.0}'
p2861
aS'{avgMsgsSent:'
p2862
aS'[10.0,'
p2863
aS'10.0,'
p2864
aS'10.0],'
p2865
aS'avgMsgsRcvd:'
p2866
aS'[70.0,'
p2867
aS'70.0,'
p2868
aS'70.0],'
p2869
aS'avgSGDIters:'
p2870
aS'[0.0,'
p2871
aS'47.65,'
p2872
aS'601.0],'
p2873
aS'iterations:'
p2874
aS'43.9,'
p2875
aS'runtime:'
p2876
aS'1403}'
p2877
asg90
F0.5
sg91
F2354513.6070853262
sg92
g181
sg94
F0.0013051309070135409
sg95
S'cd /mnt/spark; sbin/stop-all.sh; sleep 5; sbin/start-all.sh; sleep 3;./bin/spark-submit --driver-memory 52g --class org.apache.spark.examples.mllib.research.SynchronousADMMTests examples/target/scala-*/spark-examples-*.jar --algorithm SVMADMMAsync --regType L2 --regParam 0.000100 --format cloud --numPartitions 40 --runtimeMS 1000 --ADMMmaxLocalIterations 1000 --ADMMepsilon 0.000001  --ADMMLocalepsilon 0.000001 --ADMMrho 1.000000 --ADMMLagrangianrho 0.500000 --broadcastDelayMs 100  --pointCloudPointsPerPartition 500000 --pointCloudPartitionSkew 0.100000 --pointCloudLabelNoise 0.050000 --pointCloudDimension 10   '
p2878
sg97
F0.10000000000000001
sg98
F0.050058800000000001
sg99
g2810
sg100
F1403.0
sa(dp2879
g2
I5
sg3
g4
sg5
I1000
sg6
F1000.0
sg7
F8966.0
sg8
F551871400.88907146
sg9
F9.9999999999999995e-07
sg10
I40
sg11
S'--pointCloudPointsPerPartition 500000 --pointCloudPartitionSkew 0.100000 --pointCloudLabelNoise 0.050000 --pointCloudDimension 10 '
p2880
sg13
F1.0
sg14
F9.9999999999999995e-07
sg15
I10
sg16
F0.0001
sg17
g18
sg19
(lp2881
S'RESULT:'
p2882
aS'HOGWILDSVM'
p2883
aS'8966.0'
p2884
aS'1000'
p2885
aS'1875'
p2886
aS'0.49992325'
p2887
aS'5.518714008851062E8'
p2888
aS'0.003965310556608858'
p2889
aS'5.518714008890715E8'
p2890
aS'1.0106356905696035,0.8940227821431403,1.6686676377002598,1.9571847892928231,1.0137955001498113,2.8441710009747325,-0.4149387977078597,1.3023239552409622,0.8874073174552497,-4.409605051620463'
p2891
aS'{input:'
p2892
aS'null,'
p2893
aS'format:'
p2894
aS'cloud,'
p2895
aS'numPartitions:'
p2896
aS'40,'
p2897
aS'algorithm:'
p2898
aS'HOGWILDSVM,'
p2899
aS'algParams:'
p2900
aS'{eta0:'
p2901
aS'1.0,'
p2902
aS'tol:'
p2903
aS'1.0E-6,'
p2904
aS'workerTol:'
p2905
aS'1.0E-6,'
p2906
aS'maxIterations:'
p2907
aS'1000,'
p2908
aS'maxWorkerIterations:'
p2909
aS'1000,'
p2910
aS'miniBatchSize:'
p2911
aS'10,'
p2912
aS'useLBFGS:'
p2913
aS'false,'
p2914
aS'rho0:'
p2915
aS'1.0,'
p2916
aS'lagrangianRho:'
p2917
aS'0.5,'
p2918
aS'regParam:'
p2919
aS'1.0E-4,'
p2920
aS'runtimeMS:'
p2921
aS'1000,'
p2922
aS'displayIncrementalStats:'
p2923
aS'false,'
p2924
aS'adaptiveRho:'
p2925
aS'false,'
p2926
aS'broadcastDelayMS:'
p2927
aS'5,'
p2928
aS'usePorkChop:'
p2929
aS'false},'
p2930
aS'regType:'
p2931
aS'L2,'
p2932
aS'pointCloudDim:'
p2933
aS'10,'
p2934
aS'pointCloudNoise:'
p2935
aS'0.05,'
p2936
aS'pointCloudSkew:'
p2937
aS'0.1,'
p2938
aS'pointCloudPoints:'
p2939
aS'500000,'
p2940
aS'pointCloudSize:'
p2941
aS'1.0}'
p2942
aS'{iterations:'
p2943
aS'8966.0,'
p2944
aS'msgsSent:'
p2945
aS'[146.0,'
p2946
aS'163.4,'
p2947
aS'173.0],'
p2948
aS'avgMsgsRcvd:'
p2949
aS'[0.0,'
p2950
aS'0.0,'
p2951
aS'0.0],'
p2952
aS'runtime:'
p2953
aS'1875}'
p2954
asg90
F0.5
sg91
F551871400.88510621
sg92
g259
sg94
F0.0039653105566088576
sg95
S'cd /mnt/spark; sbin/stop-all.sh; sleep 5; sbin/start-all.sh; sleep 3;./bin/spark-submit --driver-memory 52g --class org.apache.spark.examples.mllib.research.SynchronousADMMTests examples/target/scala-*/spark-examples-*.jar --algorithm HOGWILDSVM --regType L2 --regParam 0.000100 --format cloud --numPartitions 40 --runtimeMS 1000 --ADMMmaxLocalIterations 1000 --ADMMepsilon 0.000001  --ADMMLocalepsilon 0.000001 --ADMMrho 1.000000 --ADMMLagrangianrho 0.500000 --broadcastDelayMs 5  --pointCloudPointsPerPartition 500000 --pointCloudPartitionSkew 0.100000 --pointCloudLabelNoise 0.050000 --pointCloudDimension 10   '
p2955
sg97
F0.10000000000000001
sg98
F0.49992324999999999
sg99
g2891
sg100
F1875.0
sa(dp2956
g2
I100
sg3
g4
sg5
I1000
sg6
F1000.0
sg7
F2.0
sg8
F1073338786.1755438
sg9
F9.9999999999999995e-07
sg10
I40
sg11
S'--pointCloudPointsPerPartition 500000 --pointCloudPartitionSkew 0.100000 --pointCloudLabelNoise 0.050000 --pointCloudDimension 10 '
p2957
sg13
F1.0
sg14
F9.9999999999999995e-07
sg15
I10
sg16
F0.0001
sg17
g18
sg19
(lp2958
S'RESULT:'
p2959
aS'SVM'
p2960
ag23
aS'1000'
p2961
aS'2442'
p2962
aS'0.49992325'
p2963
aS'1.073338786170984E9'
p2964
aS'0.004559808873591767'
p2965
aS'1.0733387861755438E9'
p2966
aS'2.2509529047417156,2.251114713853588,2.251272099862167,2.2508999696981666,2.2507597257497336,2.2507008932744457,2.2508620003378237,2.2508483303379387,2.2504963301600447,1.535E-4'
p2967
aS'{input:'
p2968
aS'null,'
p2969
aS'format:'
p2970
aS'cloud,'
p2971
aS'numPartitions:'
p2972
aS'40,'
p2973
aS'algorithm:'
p2974
aS'SVM,'
p2975
aS'algParams:'
p2976
aS'{eta0:'
p2977
aS'1.0,'
p2978
aS'tol:'
p2979
aS'1.0E-6,'
p2980
aS'workerTol:'
p2981
aS'1.0E-6,'
p2982
aS'maxIterations:'
p2983
aS'1000,'
p2984
aS'maxWorkerIterations:'
p2985
aS'1000,'
p2986
aS'miniBatchSize:'
p2987
aS'10,'
p2988
aS'useLBFGS:'
p2989
aS'false,'
p2990
aS'rho0:'
p2991
aS'1.0,'
p2992
aS'lagrangianRho:'
p2993
aS'0.5,'
p2994
aS'regParam:'
p2995
aS'1.0E-4,'
p2996
aS'runtimeMS:'
p2997
aS'1000,'
p2998
aS'displayIncrementalStats:'
p2999
aS'false,'
p3000
aS'adaptiveRho:'
p3001
aS'false,'
p3002
aS'broadcastDelayMS:'
p3003
aS'100,'
p3004
aS'usePorkChop:'
p3005
aS'false},'
p3006
aS'regType:'
p3007
aS'L2,'
p3008
aS'pointCloudDim:'
p3009
aS'10,'
p3010
aS'pointCloudNoise:'
p3011
aS'0.05,'
p3012
aS'pointCloudSkew:'
p3013
aS'0.1,'
p3014
aS'pointCloudPoints:'
p3015
aS'500000,'
p3016
aS'pointCloudSize:'
p3017
aS'1.0}'
p3018
aS'{iterations:'
p3019
aS'2,'
p3020
aS'runtime:'
p3021
aS'2442}'
p3022
asg90
F0.5
sg91
F1073338786.170984
sg92
g328
sg94
F0.0045598088735917669
sg95
S'cd /mnt/spark; sbin/stop-all.sh; sleep 5; sbin/start-all.sh; sleep 3;./bin/spark-submit --driver-memory 52g --class org.apache.spark.examples.mllib.research.SynchronousADMMTests examples/target/scala-*/spark-examples-*.jar --algorithm SVM --regType L2 --regParam 0.000100 --format cloud --numPartitions 40 --runtimeMS 1000 --ADMMmaxLocalIterations 1000 --ADMMepsilon 0.000001  --ADMMLocalepsilon 0.000001 --ADMMrho 1.000000 --ADMMLagrangianrho 0.500000 --broadcastDelayMs 100  --pointCloudPointsPerPartition 500000 --pointCloudPartitionSkew 0.100000 --pointCloudLabelNoise 0.050000 --pointCloudDimension 10   '
p3023
sg97
F0.10000000000000001
sg98
F0.49992324999999999
sg99
g2967
sg100
F2442.0
sa(dp3024
g2
I-1
sg3
g4
sg5
I1000
sg6
F5000.0
sg7
F9.0
sg8
F21583505.278544966
sg9
F9.9999999999999995e-07
sg10
I40
sg11
S'--pointCloudPointsPerPartition 500000 --pointCloudPartitionSkew 0.000000 --pointCloudLabelNoise 0.050000 --pointCloudDimension 10 '
p3025
sg13
F1.0
sg14
F9.9999999999999995e-07
sg15
I10
sg16
F0.0001
sg17
g18
sg19
(lp3026
S'RESULT:'
p3027
aS'SVMADMM'
p3028
ag1764
aS'5000'
p3029
aS'5267'
p3030
aS'0.5000272'
p3031
aS'2.158350527854469E7'
p3032
aS'2.768664383257167E-7'
p3033
aS'2.1583505278544966E7'
p3034
aS'-0.003628999377697669,-0.0036140736410172018,-0.0036715633414251513,-0.00450704731539665,-0.004604569802966241,-0.0039317540654976914,-0.003924376200139498,-0.0034657016999043474,-0.003838006295290416,-0.051281931548648234'
p3035
aS'{input:'
p3036
aS'null,'
p3037
aS'format:'
p3038
aS'cloud,'
p3039
aS'numPartitions:'
p3040
aS'40,'
p3041
aS'algorithm:'
p3042
aS'SVMADMM,'
p3043
aS'algParams:'
p3044
aS'{eta0:'
p3045
aS'1.0,'
p3046
aS'tol:'
p3047
aS'1.0E-6,'
p3048
aS'workerTol:'
p3049
aS'1.0E-6,'
p3050
aS'maxIterations:'
p3051
aS'1000,'
p3052
aS'maxWorkerIterations:'
p3053
aS'1000,'
p3054
aS'miniBatchSize:'
p3055
aS'10,'
p3056
aS'useLBFGS:'
p3057
aS'false,'
p3058
aS'rho0:'
p3059
aS'1.0,'
p3060
aS'lagrangianRho:'
p3061
aS'0.5,'
p3062
aS'regParam:'
p3063
aS'1.0E-4,'
p3064
aS'runtimeMS:'
p3065
aS'5000,'
p3066
aS'displayIncrementalStats:'
p3067
aS'false,'
p3068
aS'adaptiveRho:'
p3069
aS'false,'
p3070
aS'broadcastDelayMS:'
p3071
aS'-1,'
p3072
aS'usePorkChop:'
p3073
aS'false},'
p3074
aS'regType:'
p3075
aS'L2,'
p3076
aS'pointCloudDim:'
p3077
aS'10,'
p3078
aS'pointCloudNoise:'
p3079
aS'0.05,'
p3080
aS'pointCloudSkew:'
p3081
aS'0.0,'
p3082
aS'pointCloudPoints:'
p3083
aS'500000,'
p3084
aS'pointCloudSize:'
p3085
aS'1.0}'
p3086
aS'{iterations:'
p3087
aS'9,'
p3088
aS'avgSGDIters:'
p3089
aS'[1000.0,'
p3090
aS'1000.0,'
p3091
aS'1000.0],'
p3092
aS'runtime:'
p3093
aS'5267}'
p3094
asg90
F0.5
sg91
F21583505.27854469
sg92
g93
sg94
F2.7686643832571669e-07
sg95
S'cd /mnt/spark; sbin/stop-all.sh; sleep 5; sbin/start-all.sh; sleep 3;./bin/spark-submit --driver-memory 52g --class org.apache.spark.examples.mllib.research.SynchronousADMMTests examples/target/scala-*/spark-examples-*.jar --algorithm SVMADMM --regType L2 --regParam 0.000100 --format cloud --numPartitions 40 --runtimeMS 5000 --ADMMmaxLocalIterations 1000 --ADMMepsilon 0.000001  --ADMMLocalepsilon 0.000001 --ADMMrho 1.000000 --ADMMLagrangianrho 0.500000 --broadcastDelayMs -1  --pointCloudPointsPerPartition 500000 --pointCloudPartitionSkew 0.000000 --pointCloudLabelNoise 0.050000 --pointCloudDimension 10   '
p3095
sg97
F0.0
sg98
F0.5000272
sg99
g3035
sg100
F5267.0
sa(dp3096
g2
I100
sg3
g4
sg5
I1000
sg6
F5000.0
sg7
F463.5
sg8
F3273028.7824541368
sg9
F9.9999999999999995e-07
sg10
I40
sg11
S'--pointCloudPointsPerPartition 500000 --pointCloudPartitionSkew 0.000000 --pointCloudLabelNoise 0.050000 --pointCloudDimension 10 '
p3097
sg13
F1.0
sg14
F9.9999999999999995e-07
sg15
I10
sg16
F0.0001
sg17
g18
sg19
(lp3098
S'RESULT:'
p3099
aS'SVMADMMAsync'
p3100
aS'463.5'
p3101
aS'5000'
p3102
aS'5410'
p3103
aS'0.0500588'
p3104
aS'3273028.778324282'
p3105
aS'0.004129854972912675'
p3106
aS'3273028.7824541368'
p3107
aS'0.09960683558873576,0.100134883163458,0.1011624663553957,0.10158043523651972,0.09870860112057746,0.10144472391828259,0.09903204853327303,0.10254626985675948,0.10303692667780694,-6.419273687176701'
p3108
aS'{input:'
p3109
aS'null,'
p3110
aS'format:'
p3111
aS'cloud,'
p3112
aS'numPartitions:'
p3113
aS'40,'
p3114
aS'algorithm:'
p3115
aS'SVMADMMAsync,'
p3116
aS'algParams:'
p3117
aS'{eta0:'
p3118
aS'1.0,'
p3119
aS'tol:'
p3120
aS'1.0E-6,'
p3121
aS'workerTol:'
p3122
aS'1.0E-6,'
p3123
aS'maxIterations:'
p3124
aS'1000,'
p3125
aS'maxWorkerIterations:'
p3126
aS'1000,'
p3127
aS'miniBatchSize:'
p3128
aS'10,'
p3129
aS'useLBFGS:'
p3130
aS'false,'
p3131
aS'rho0:'
p3132
aS'1.0,'
p3133
aS'lagrangianRho:'
p3134
aS'0.5,'
p3135
aS'regParam:'
p3136
aS'1.0E-4,'
p3137
aS'runtimeMS:'
p3138
aS'5000,'
p3139
aS'displayIncrementalStats:'
p3140
aS'false,'
p3141
aS'adaptiveRho:'
p3142
aS'false,'
p3143
aS'broadcastDelayMS:'
p3144
aS'100,'
p3145
aS'usePorkChop:'
p3146
aS'false},'
p3147
aS'regType:'
p3148
aS'L2,'
p3149
aS'pointCloudDim:'
p3150
aS'10,'
p3151
aS'pointCloudNoise:'
p3152
aS'0.05,'
p3153
aS'pointCloudSkew:'
p3154
aS'0.0,'
p3155
aS'pointCloudPoints:'
p3156
aS'500000,'
p3157
aS'pointCloudSize:'
p3158
aS'1.0}'
p3159
aS'{avgMsgsSent:'
p3160
aS'[50.0,'
p3161
aS'50.0,'
p3162
aS'50.0],'
p3163
aS'avgMsgsRcvd:'
p3164
aS'[350.0,'
p3165
aS'350.0,'
p3166
aS'350.0],'
p3167
aS'avgSGDIters:'
p3168
aS'[0.0,'
p3169
aS'57.625,'
p3170
aS'901.0],'
p3171
aS'iterations:'
p3172
aS'463.5,'
p3173
aS'runtime:'
p3174
aS'5410}'
p3175
asg90
F0.5
sg91
F3273028.7783242818
sg92
g181
sg94
F0.0041298549729126754
sg95
S'cd /mnt/spark; sbin/stop-all.sh; sleep 5; sbin/start-all.sh; sleep 3;./bin/spark-submit --driver-memory 52g --class org.apache.spark.examples.mllib.research.SynchronousADMMTests examples/target/scala-*/spark-examples-*.jar --algorithm SVMADMMAsync --regType L2 --regParam 0.000100 --format cloud --numPartitions 40 --runtimeMS 5000 --ADMMmaxLocalIterations 1000 --ADMMepsilon 0.000001  --ADMMLocalepsilon 0.000001 --ADMMrho 1.000000 --ADMMLagrangianrho 0.500000 --broadcastDelayMs 100  --pointCloudPointsPerPartition 500000 --pointCloudPartitionSkew 0.000000 --pointCloudLabelNoise 0.050000 --pointCloudDimension 10   '
p3176
sg97
F0.0
sg98
F0.050058800000000001
sg99
g3108
sg100
F5410.0
sa(dp3177
g2
I5
sg3
g4
sg5
I1000
sg6
F5000.0
sg7
F817004.5
sg8
F389522299.71588564
sg9
F9.9999999999999995e-07
sg10
I40
sg11
S'--pointCloudPointsPerPartition 500000 --pointCloudPartitionSkew 0.000000 --pointCloudLabelNoise 0.050000 --pointCloudDimension 10 '
p3178
sg13
F1.0
sg14
F9.9999999999999995e-07
sg15
I10
sg16
F0.0001
sg17
g18
sg19
(lp3179
S'RESULT:'
p3180
aS'HOGWILDSVM'
p3181
aS'817004.5'
p3182
aS'5000'
p3183
aS'5902'
p3184
aS'0.5000272'
p3185
aS'3.895222997144112E8'
p3186
aS'0.0014744200824487914'
p3187
aS'3.8952229971588564E8'
p3188
aS'0.9945855408908741,-0.5941449244250023,-0.6814102195931729,-1.7960407586137659,0.3361682339399366,0.8284672978232531,-1.38734597795306,-0.7023739626330994,-0.6372958364519172,-2.4674559301011927'
p3189
aS'{input:'
p3190
aS'null,'
p3191
aS'format:'
p3192
aS'cloud,'
p3193
aS'numPartitions:'
p3194
aS'40,'
p3195
aS'algorithm:'
p3196
aS'HOGWILDSVM,'
p3197
aS'algParams:'
p3198
aS'{eta0:'
p3199
aS'1.0,'
p3200
aS'tol:'
p3201
aS'1.0E-6,'
p3202
aS'workerTol:'
p3203
aS'1.0E-6,'
p3204
aS'maxIterations:'
p3205
aS'1000,'
p3206
aS'maxWorkerIterations:'
p3207
aS'1000,'
p3208
aS'miniBatchSize:'
p3209
aS'10,'
p3210
aS'useLBFGS:'
p3211
aS'false,'
p3212
aS'rho0:'
p3213
aS'1.0,'
p3214
aS'lagrangianRho:'
p3215
aS'0.5,'
p3216
aS'regParam:'
p3217
aS'1.0E-4,'
p3218
aS'runtimeMS:'
p3219
aS'5000,'
p3220
aS'displayIncrementalStats:'
p3221
aS'false,'
p3222
aS'adaptiveRho:'
p3223
aS'false,'
p3224
aS'broadcastDelayMS:'
p3225
aS'5,'
p3226
aS'usePorkChop:'
p3227
aS'false},'
p3228
aS'regType:'
p3229
aS'L2,'
p3230
aS'pointCloudDim:'
p3231
aS'10,'
p3232
aS'pointCloudNoise:'
p3233
aS'0.05,'
p3234
aS'pointCloudSkew:'
p3235
aS'0.0,'
p3236
aS'pointCloudPoints:'
p3237
aS'500000,'
p3238
aS'pointCloudSize:'
p3239
aS'1.0}'
p3240
aS'{iterations:'
p3241
aS'817004.5,'
p3242
aS'msgsSent:'
p3243
aS'[876.0,'
p3244
aS'893.725,'
p3245
aS'907.0],'
p3246
aS'avgMsgsRcvd:'
p3247
aS'[0.0,'
p3248
aS'0.0,'
p3249
aS'0.0],'
p3250
aS'runtime:'
p3251
aS'5902}'
p3252
asg90
F0.5
sg91
F389522299.7144112
sg92
g259
sg94
F0.0014744200824487914
sg95
S'cd /mnt/spark; sbin/stop-all.sh; sleep 5; sbin/start-all.sh; sleep 3;./bin/spark-submit --driver-memory 52g --class org.apache.spark.examples.mllib.research.SynchronousADMMTests examples/target/scala-*/spark-examples-*.jar --algorithm HOGWILDSVM --regType L2 --regParam 0.000100 --format cloud --numPartitions 40 --runtimeMS 5000 --ADMMmaxLocalIterations 1000 --ADMMepsilon 0.000001  --ADMMLocalepsilon 0.000001 --ADMMrho 1.000000 --ADMMLagrangianrho 0.500000 --broadcastDelayMs 5  --pointCloudPointsPerPartition 500000 --pointCloudPartitionSkew 0.000000 --pointCloudLabelNoise 0.050000 --pointCloudDimension 10   '
p3253
sg97
F0.0
sg98
F0.5000272
sg99
g3189
sg100
F5902.0
sa(dp3254
g2
I100
sg3
g4
sg5
I1000
sg6
F5000.0
sg7
F5.0
sg8
F627830200.61748362
sg9
F9.9999999999999995e-07
sg10
I40
sg11
S'--pointCloudPointsPerPartition 500000 --pointCloudPartitionSkew 0.000000 --pointCloudLabelNoise 0.050000 --pointCloudDimension 10 '
p3255
sg13
F1.0
sg14
F9.9999999999999995e-07
sg15
I10
sg16
F0.0001
sg17
g18
sg19
(lp3256
S'RESULT:'
p3257
aS'SVM'
p3258
ag864
aS'5000'
p3259
aS'5428'
p3260
aS'0.4999728'
p3261
aS'6.278302006159098E8'
p3262
aS'0.0015738322489845253'
p3263
aS'6.278302006174836E8'
p3264
aS'1.315979551855375,1.3165319280106689,1.316618680421601,1.3149339190988878,1.3157447925320442,1.3160842453343229,1.3159042220371704,1.3158902018937493,1.3155127088232252,-0.39207307770027083'
p3265
aS'{input:'
p3266
aS'null,'
p3267
aS'format:'
p3268
aS'cloud,'
p3269
aS'numPartitions:'
p3270
aS'40,'
p3271
aS'algorithm:'
p3272
aS'SVM,'
p3273
aS'algParams:'
p3274
aS'{eta0:'
p3275
aS'1.0,'
p3276
aS'tol:'
p3277
aS'1.0E-6,'
p3278
aS'workerTol:'
p3279
aS'1.0E-6,'
p3280
aS'maxIterations:'
p3281
aS'1000,'
p3282
aS'maxWorkerIterations:'
p3283
aS'1000,'
p3284
aS'miniBatchSize:'
p3285
aS'10,'
p3286
aS'useLBFGS:'
p3287
aS'false,'
p3288
aS'rho0:'
p3289
aS'1.0,'
p3290
aS'lagrangianRho:'
p3291
aS'0.5,'
p3292
aS'regParam:'
p3293
aS'1.0E-4,'
p3294
aS'runtimeMS:'
p3295
aS'5000,'
p3296
aS'displayIncrementalStats:'
p3297
aS'false,'
p3298
aS'adaptiveRho:'
p3299
aS'false,'
p3300
aS'broadcastDelayMS:'
p3301
aS'100,'
p3302
aS'usePorkChop:'
p3303
aS'false},'
p3304
aS'regType:'
p3305
aS'L2,'
p3306
aS'pointCloudDim:'
p3307
aS'10,'
p3308
aS'pointCloudNoise:'
p3309
aS'0.05,'
p3310
aS'pointCloudSkew:'
p3311
aS'0.0,'
p3312
aS'pointCloudPoints:'
p3313
aS'500000,'
p3314
aS'pointCloudSize:'
p3315
aS'1.0}'
p3316
aS'{iterations:'
p3317
aS'5,'
p3318
aS'runtime:'
p3319
aS'5428}'
p3320
asg90
F0.5
sg91
F627830200.61590981
sg92
g328
sg94
F0.0015738322489845253
sg95
S'cd /mnt/spark; sbin/stop-all.sh; sleep 5; sbin/start-all.sh; sleep 3;./bin/spark-submit --driver-memory 52g --class org.apache.spark.examples.mllib.research.SynchronousADMMTests examples/target/scala-*/spark-examples-*.jar --algorithm SVM --regType L2 --regParam 0.000100 --format cloud --numPartitions 40 --runtimeMS 5000 --ADMMmaxLocalIterations 1000 --ADMMepsilon 0.000001  --ADMMLocalepsilon 0.000001 --ADMMrho 1.000000 --ADMMLagrangianrho 0.500000 --broadcastDelayMs 100  --pointCloudPointsPerPartition 500000 --pointCloudPartitionSkew 0.000000 --pointCloudLabelNoise 0.050000 --pointCloudDimension 10   '
p3321
sg97
F0.0
sg98
F0.4999728
sg99
g3265
sg100
F5428.0
sa(dp3322
g2
I-1
sg3
g4
sg5
I1000
sg6
F5000.0
sg7
F10.0
sg8
F16702525.58047781
sg9
F9.9999999999999995e-07
sg10
I40
sg11
S'--pointCloudPointsPerPartition 500000 --pointCloudPartitionSkew 0.100000 --pointCloudLabelNoise 0.050000 --pointCloudDimension 10 '
p3323
sg13
F1.0
sg14
F9.9999999999999995e-07
sg15
I10
sg16
F0.0001
sg17
g18
sg19
(lp3324
S'RESULT:'
p3325
aS'SVMADMM'
p3326
aS'10'
p3327
aS'5000'
p3328
aS'5336'
p3329
aS'0.368975'
p3330
aS'1.6702525580422034E7'
p3331
aS'5.577476311884322E-5'
p3332
aS'1.670252558047781E7'
p3333
aS'0.008174490836703133,0.007585035137936912,0.008589710316375596,0.008410714350091124,0.008003602917961478,0.0083414143903338,0.007925874328161426,0.007926280267099023,0.008342402958208726,-0.7464247282527529'
p3334
aS'{input:'
p3335
aS'null,'
p3336
aS'format:'
p3337
aS'cloud,'
p3338
aS'numPartitions:'
p3339
aS'40,'
p3340
aS'algorithm:'
p3341
aS'SVMADMM,'
p3342
aS'algParams:'
p3343
aS'{eta0:'
p3344
aS'1.0,'
p3345
aS'tol:'
p3346
aS'1.0E-6,'
p3347
aS'workerTol:'
p3348
aS'1.0E-6,'
p3349
aS'maxIterations:'
p3350
aS'1000,'
p3351
aS'maxWorkerIterations:'
p3352
aS'1000,'
p3353
aS'miniBatchSize:'
p3354
aS'10,'
p3355
aS'useLBFGS:'
p3356
aS'false,'
p3357
aS'rho0:'
p3358
aS'1.0,'
p3359
aS'lagrangianRho:'
p3360
aS'0.5,'
p3361
aS'regParam:'
p3362
aS'1.0E-4,'
p3363
aS'runtimeMS:'
p3364
aS'5000,'
p3365
aS'displayIncrementalStats:'
p3366
aS'false,'
p3367
aS'adaptiveRho:'
p3368
aS'false,'
p3369
aS'broadcastDelayMS:'
p3370
aS'-1,'
p3371
aS'usePorkChop:'
p3372
aS'false},'
p3373
aS'regType:'
p3374
aS'L2,'
p3375
aS'pointCloudDim:'
p3376
aS'10,'
p3377
aS'pointCloudNoise:'
p3378
aS'0.05,'
p3379
aS'pointCloudSkew:'
p3380
aS'0.1,'
p3381
aS'pointCloudPoints:'
p3382
aS'500000,'
p3383
aS'pointCloudSize:'
p3384
aS'1.0}'
p3385
aS'{iterations:'
p3386
aS'10,'
p3387
aS'avgSGDIters:'
p3388
aS'[1000.0,'
p3389
aS'1000.0,'
p3390
aS'1000.0],'
p3391
aS'runtime:'
p3392
aS'5336}'
p3393
asg90
F0.5
sg91
F16702525.580422034
sg92
g93
sg94
F5.5774763118843221e-05
sg95
S'cd /mnt/spark; sbin/stop-all.sh; sleep 5; sbin/start-all.sh; sleep 3;./bin/spark-submit --driver-memory 52g --class org.apache.spark.examples.mllib.research.SynchronousADMMTests examples/target/scala-*/spark-examples-*.jar --algorithm SVMADMM --regType L2 --regParam 0.000100 --format cloud --numPartitions 40 --runtimeMS 5000 --ADMMmaxLocalIterations 1000 --ADMMepsilon 0.000001  --ADMMLocalepsilon 0.000001 --ADMMrho 1.000000 --ADMMLagrangianrho 0.500000 --broadcastDelayMs -1  --pointCloudPointsPerPartition 500000 --pointCloudPartitionSkew 0.100000 --pointCloudLabelNoise 0.050000 --pointCloudDimension 10   '
p3394
sg97
F0.10000000000000001
sg98
F0.368975
sg99
g3334
sg100
F5336.0
sa(dp3395
g2
I100
sg3
g4
sg5
I1000
sg6
F5000.0
sg7
F461.92500000000001
sg8
F3368560.5729944021
sg9
F9.9999999999999995e-07
sg10
I40
sg11
S'--pointCloudPointsPerPartition 500000 --pointCloudPartitionSkew 0.100000 --pointCloudLabelNoise 0.050000 --pointCloudDimension 10 '
p3396
sg13
F1.0
sg14
F9.9999999999999995e-07
sg15
I10
sg16
F0.0001
sg17
g18
sg19
(lp3397
S'RESULT:'
p3398
aS'SVMADMMAsync'
p3399
aS'461.925'
p3400
aS'5000'
p3401
aS'5417'
p3402
aS'0.0500588'
p3403
aS'3368560.5683311205'
p3404
aS'0.004663281733659327'
p3405
aS'3368560.572994402'
p3406
aS'0.10783764878751889,0.10558270122291159,0.10726272296650773,0.10637428790734214,0.10840736977122765,0.10044883437917798,0.10074564799656877,0.10683691459362787,0.10258784747742881,-6.821531329981905'
p3407
aS'{input:'
p3408
aS'null,'
p3409
aS'format:'
p3410
aS'cloud,'
p3411
aS'numPartitions:'
p3412
aS'40,'
p3413
aS'algorithm:'
p3414
aS'SVMADMMAsync,'
p3415
aS'algParams:'
p3416
aS'{eta0:'
p3417
aS'1.0,'
p3418
aS'tol:'
p3419
aS'1.0E-6,'
p3420
aS'workerTol:'
p3421
aS'1.0E-6,'
p3422
aS'maxIterations:'
p3423
aS'1000,'
p3424
aS'maxWorkerIterations:'
p3425
aS'1000,'
p3426
aS'miniBatchSize:'
p3427
aS'10,'
p3428
aS'useLBFGS:'
p3429
aS'false,'
p3430
aS'rho0:'
p3431
aS'1.0,'
p3432
aS'lagrangianRho:'
p3433
aS'0.5,'
p3434
aS'regParam:'
p3435
aS'1.0E-4,'
p3436
aS'runtimeMS:'
p3437
aS'5000,'
p3438
aS'displayIncrementalStats:'
p3439
aS'false,'
p3440
aS'adaptiveRho:'
p3441
aS'false,'
p3442
aS'broadcastDelayMS:'
p3443
aS'100,'
p3444
aS'usePorkChop:'
p3445
aS'false},'
p3446
aS'regType:'
p3447
aS'L2,'
p3448
aS'pointCloudDim:'
p3449
aS'10,'
p3450
aS'pointCloudNoise:'
p3451
aS'0.05,'
p3452
aS'pointCloudSkew:'
p3453
aS'0.1,'
p3454
aS'pointCloudPoints:'
p3455
aS'500000,'
p3456
aS'pointCloudSize:'
p3457
aS'1.0}'
p3458
aS'{avgMsgsSent:'
p3459
aS'[50.0,'
p3460
aS'50.0,'
p3461
aS'50.0],'
p3462
aS'avgMsgsRcvd:'
p3463
aS'[350.0,'
p3464
aS'350.0,'
p3465
aS'350.0],'
p3466
aS'avgSGDIters:'
p3467
aS'[0.0,'
p3468
aS'65.025,'
p3469
aS'1000.0],'
p3470
aS'iterations:'
p3471
aS'461.925,'
p3472
aS'runtime:'
p3473
aS'5417}'
p3474
asg90
F0.5
sg91
F3368560.5683311205
sg92
g181
sg94
F0.0046632817336593269
sg95
S'cd /mnt/spark; sbin/stop-all.sh; sleep 5; sbin/start-all.sh; sleep 3;./bin/spark-submit --driver-memory 52g --class org.apache.spark.examples.mllib.research.SynchronousADMMTests examples/target/scala-*/spark-examples-*.jar --algorithm SVMADMMAsync --regType L2 --regParam 0.000100 --format cloud --numPartitions 40 --runtimeMS 5000 --ADMMmaxLocalIterations 1000 --ADMMepsilon 0.000001  --ADMMLocalepsilon 0.000001 --ADMMrho 1.000000 --ADMMLagrangianrho 0.500000 --broadcastDelayMs 100  --pointCloudPointsPerPartition 500000 --pointCloudPartitionSkew 0.100000 --pointCloudLabelNoise 0.050000 --pointCloudDimension 10   '
p3475
sg97
F0.10000000000000001
sg98
F0.050058800000000001
sg99
g3407
sg100
F5417.0
sa(dp3476
g2
I5
sg3
g4
sg5
I1000
sg6
F5000.0
sg7
F895792.25
sg8
F197064636.17781246
sg9
F9.9999999999999995e-07
sg10
I40
sg11
S'--pointCloudPointsPerPartition 500000 --pointCloudPartitionSkew 0.100000 --pointCloudLabelNoise 0.050000 --pointCloudDimension 10 '
p3477
sg13
F1.0
sg14
F9.9999999999999995e-07
sg15
I10
sg16
F0.0001
sg17
g18
sg19
(lp3478
S'RESULT:'
p3479
aS'HOGWILDSVM'
p3480
aS'895792.25'
p3481
aS'5000'
p3482
aS'5844'
p3483
aS'0.49992325'
p3484
aS'1.9706463617220765E8'
p3485
aS'0.005604790945555491'
p3486
aS'1.9706463617781246E8'
p3487
aS'0.4637349196333506,0.215385664811663,0.5970476399290154,0.5085811203635122,0.3534556529473247,1.2746698102100382,-0.1351138637838855,0.7150715653133758,0.9445458184505571,-7.2110944958727385'
p3488
aS'{input:'
p3489
aS'null,'
p3490
aS'format:'
p3491
aS'cloud,'
p3492
aS'numPartitions:'
p3493
aS'40,'
p3494
aS'algorithm:'
p3495
aS'HOGWILDSVM,'
p3496
aS'algParams:'
p3497
aS'{eta0:'
p3498
aS'1.0,'
p3499
aS'tol:'
p3500
aS'1.0E-6,'
p3501
aS'workerTol:'
p3502
aS'1.0E-6,'
p3503
aS'maxIterations:'
p3504
aS'1000,'
p3505
aS'maxWorkerIterations:'
p3506
aS'1000,'
p3507
aS'miniBatchSize:'
p3508
aS'10,'
p3509
aS'useLBFGS:'
p3510
aS'false,'
p3511
aS'rho0:'
p3512
aS'1.0,'
p3513
aS'lagrangianRho:'
p3514
aS'0.5,'
p3515
aS'regParam:'
p3516
aS'1.0E-4,'
p3517
aS'runtimeMS:'
p3518
aS'5000,'
p3519
aS'displayIncrementalStats:'
p3520
aS'false,'
p3521
aS'adaptiveRho:'
p3522
aS'false,'
p3523
aS'broadcastDelayMS:'
p3524
aS'5,'
p3525
aS'usePorkChop:'
p3526
aS'false},'
p3527
aS'regType:'
p3528
aS'L2,'
p3529
aS'pointCloudDim:'
p3530
aS'10,'
p3531
aS'pointCloudNoise:'
p3532
aS'0.05,'
p3533
aS'pointCloudSkew:'
p3534
aS'0.1,'
p3535
aS'pointCloudPoints:'
p3536
aS'500000,'
p3537
aS'pointCloudSize:'
p3538
aS'1.0}'
p3539
aS'{iterations:'
p3540
aS'895792.25,'
p3541
aS'msgsSent:'
p3542
aS'[870.0,'
p3543
aS'895.6,'
p3544
aS'912.0],'
p3545
aS'avgMsgsRcvd:'
p3546
aS'[0.0,'
p3547
aS'0.0,'
p3548
aS'0.0],'
p3549
aS'runtime:'
p3550
aS'5844}'
p3551
asg90
F0.5
sg91
F197064636.17220765
sg92
g259
sg94
F0.0056047909455554908
sg95
S'cd /mnt/spark; sbin/stop-all.sh; sleep 5; sbin/start-all.sh; sleep 3;./bin/spark-submit --driver-memory 52g --class org.apache.spark.examples.mllib.research.SynchronousADMMTests examples/target/scala-*/spark-examples-*.jar --algorithm HOGWILDSVM --regType L2 --regParam 0.000100 --format cloud --numPartitions 40 --runtimeMS 5000 --ADMMmaxLocalIterations 1000 --ADMMepsilon 0.000001  --ADMMLocalepsilon 0.000001 --ADMMrho 1.000000 --ADMMLagrangianrho 0.500000 --broadcastDelayMs 5  --pointCloudPointsPerPartition 500000 --pointCloudPartitionSkew 0.100000 --pointCloudLabelNoise 0.050000 --pointCloudDimension 10   '
p3552
sg97
F0.10000000000000001
sg98
F0.49992324999999999
sg99
g3488
sg100
F5844.0
sa(dp3553
g2
I100
sg3
g4
sg5
I1000
sg6
F5000.0
sg7
F5.0
sg8
F628425333.94209743
sg9
F9.9999999999999995e-07
sg10
I40
sg11
S'--pointCloudPointsPerPartition 500000 --pointCloudPartitionSkew 0.100000 --pointCloudLabelNoise 0.050000 --pointCloudDimension 10 '
p3554
sg13
F1.0
sg14
F9.9999999999999995e-07
sg15
I10
sg16
F0.0001
sg17
g18
sg19
(lp3555
S'RESULT:'
p3556
aS'SVM'
p3557
ag864
aS'5000'
p3558
aS'5117'
p3559
aS'0.49992325'
p3560
aS'6.284253339405202E8'
p3561
aS'0.001577303206976626'
p3562
aS'6.284253339420974E8'
p3563
aS'1.3175896439298023,1.3178604251867323,1.318053812104564,1.3173142090259355,1.3171108503685542,1.3171306221737824,1.3173968841266879,1.3173505190181949,1.3166303984464132,-0.39188558074136454'
p3564
aS'{input:'
p3565
aS'null,'
p3566
aS'format:'
p3567
aS'cloud,'
p3568
aS'numPartitions:'
p3569
aS'40,'
p3570
aS'algorithm:'
p3571
aS'SVM,'
p3572
aS'algParams:'
p3573
aS'{eta0:'
p3574
aS'1.0,'
p3575
aS'tol:'
p3576
aS'1.0E-6,'
p3577
aS'workerTol:'
p3578
aS'1.0E-6,'
p3579
aS'maxIterations:'
p3580
aS'1000,'
p3581
aS'maxWorkerIterations:'
p3582
aS'1000,'
p3583
aS'miniBatchSize:'
p3584
aS'10,'
p3585
aS'useLBFGS:'
p3586
aS'false,'
p3587
aS'rho0:'
p3588
aS'1.0,'
p3589
aS'lagrangianRho:'
p3590
aS'0.5,'
p3591
aS'regParam:'
p3592
aS'1.0E-4,'
p3593
aS'runtimeMS:'
p3594
aS'5000,'
p3595
aS'displayIncrementalStats:'
p3596
aS'false,'
p3597
aS'adaptiveRho:'
p3598
aS'false,'
p3599
aS'broadcastDelayMS:'
p3600
aS'100,'
p3601
aS'usePorkChop:'
p3602
aS'false},'
p3603
aS'regType:'
p3604
aS'L2,'
p3605
aS'pointCloudDim:'
p3606
aS'10,'
p3607
aS'pointCloudNoise:'
p3608
aS'0.05,'
p3609
aS'pointCloudSkew:'
p3610
aS'0.1,'
p3611
aS'pointCloudPoints:'
p3612
aS'500000,'
p3613
aS'pointCloudSize:'
p3614
aS'1.0}'
p3615
aS'{iterations:'
p3616
aS'5,'
p3617
aS'runtime:'
p3618
aS'5117}'
p3619
asg90
F0.5
sg91
F628425333.94052017
sg92
g328
sg94
F0.0015773032069766259
sg95
S'cd /mnt/spark; sbin/stop-all.sh; sleep 5; sbin/start-all.sh; sleep 3;./bin/spark-submit --driver-memory 52g --class org.apache.spark.examples.mllib.research.SynchronousADMMTests examples/target/scala-*/spark-examples-*.jar --algorithm SVM --regType L2 --regParam 0.000100 --format cloud --numPartitions 40 --runtimeMS 5000 --ADMMmaxLocalIterations 1000 --ADMMepsilon 0.000001  --ADMMLocalepsilon 0.000001 --ADMMrho 1.000000 --ADMMLagrangianrho 0.500000 --broadcastDelayMs 100  --pointCloudPointsPerPartition 500000 --pointCloudPartitionSkew 0.100000 --pointCloudLabelNoise 0.050000 --pointCloudDimension 10   '
p3620
sg97
F0.10000000000000001
sg98
F0.49992324999999999
sg99
g3564
sg100
F5117.0
sa(dp3621
g2
I-1
sg3
g4
sg5
I1000
sg6
F10000.0
sg7
F22.0
sg8
F20634317.926717136
sg9
F9.9999999999999995e-07
sg10
I40
sg11
S'--pointCloudPointsPerPartition 500000 --pointCloudPartitionSkew 0.000000 --pointCloudLabelNoise 0.050000 --pointCloudDimension 10 '
p3622
sg13
F1.0
sg14
F9.9999999999999995e-07
sg15
I10
sg16
F0.0001
sg17
g18
sg19
(lp3623
S'RESULT:'
p3624
aS'SVMADMM'
p3625
aS'22'
p3626
aS'10000'
p3627
aS'10299'
p3628
aS'0.5000272'
p3629
aS'2.0634317926713254E7'
p3630
aS'3.883528028816677E-6'
p3631
aS'2.0634317926717136E7'
p3632
aS'-7.226481085235967E-4,-0.0015873281818477168,-0.0019891576583991348,-0.001899980412278109,-0.0015001758046154189,-0.0017609155189115646,-0.001623306079317259,-0.0016434271590704441,-0.001363461178613354,-0.19700793240530878'
p3633
aS'{input:'
p3634
aS'null,'
p3635
aS'format:'
p3636
aS'cloud,'
p3637
aS'numPartitions:'
p3638
aS'40,'
p3639
aS'algorithm:'
p3640
aS'SVMADMM,'
p3641
aS'algParams:'
p3642
aS'{eta0:'
p3643
aS'1.0,'
p3644
aS'tol:'
p3645
aS'1.0E-6,'
p3646
aS'workerTol:'
p3647
aS'1.0E-6,'
p3648
aS'maxIterations:'
p3649
aS'1000,'
p3650
aS'maxWorkerIterations:'
p3651
aS'1000,'
p3652
aS'miniBatchSize:'
p3653
aS'10,'
p3654
aS'useLBFGS:'
p3655
aS'false,'
p3656
aS'rho0:'
p3657
aS'1.0,'
p3658
aS'lagrangianRho:'
p3659
aS'0.5,'
p3660
aS'regParam:'
p3661
aS'1.0E-4,'
p3662
aS'runtimeMS:'
p3663
aS'10000,'
p3664
aS'displayIncrementalStats:'
p3665
aS'false,'
p3666
aS'adaptiveRho:'
p3667
aS'false,'
p3668
aS'broadcastDelayMS:'
p3669
aS'-1,'
p3670
aS'usePorkChop:'
p3671
aS'false},'
p3672
aS'regType:'
p3673
aS'L2,'
p3674
aS'pointCloudDim:'
p3675
aS'10,'
p3676
aS'pointCloudNoise:'
p3677
aS'0.05,'
p3678
aS'pointCloudSkew:'
p3679
aS'0.0,'
p3680
aS'pointCloudPoints:'
p3681
aS'500000,'
p3682
aS'pointCloudSize:'
p3683
aS'1.0}'
p3684
aS'{iterations:'
p3685
aS'22,'
p3686
aS'avgSGDIters:'
p3687
aS'[1000.0,'
p3688
aS'1000.0,'
p3689
aS'1000.0],'
p3690
aS'runtime:'
p3691
aS'10299}'
p3692
asg90
F0.5
sg91
F20634317.926713254
sg92
g93
sg94
F3.8835280288166768e-06
sg95
S'cd /mnt/spark; sbin/stop-all.sh; sleep 5; sbin/start-all.sh; sleep 3;./bin/spark-submit --driver-memory 52g --class org.apache.spark.examples.mllib.research.SynchronousADMMTests examples/target/scala-*/spark-examples-*.jar --algorithm SVMADMM --regType L2 --regParam 0.000100 --format cloud --numPartitions 40 --runtimeMS 10000 --ADMMmaxLocalIterations 1000 --ADMMepsilon 0.000001  --ADMMLocalepsilon 0.000001 --ADMMrho 1.000000 --ADMMLagrangianrho 0.500000 --broadcastDelayMs -1  --pointCloudPointsPerPartition 500000 --pointCloudPartitionSkew 0.000000 --pointCloudLabelNoise 0.050000 --pointCloudDimension 10   '
p3693
sg97
F0.0
sg98
F0.5000272
sg99
g3633
sg100
F10299.0
sa(dp3694
g2
I100
sg3
g4
sg5
I1000
sg6
F10000.0
sg7
F1076.5250000000001
sg8
F3078403.8616925902
sg9
F9.9999999999999995e-07
sg10
I40
sg11
S'--pointCloudPointsPerPartition 500000 --pointCloudPartitionSkew 0.000000 --pointCloudLabelNoise 0.050000 --pointCloudDimension 10 '
p3695
sg13
F1.0
sg14
F9.9999999999999995e-07
sg15
I10
sg16
F0.0001
sg17
g18
sg19
(lp3696
S'RESULT:'
p3697
aS'SVMADMMAsync'
p3698
aS'1076.525'
p3699
aS'10000'
p3700
aS'10427'
p3701
aS'0.0500588'
p3702
aS'3078403.858319873'
p3703
aS'0.003372717157022165'
p3704
aS'3078403.86169259'
p3705
aS'0.09045111964071131,0.09338824025331793,0.0947122190239434,0.09066436111379952,0.0953108175465785,0.09369435476577834,0.08736843509282288,0.09152272636464924,0.09019236367861543,-5.800954341445644'
p3706
aS'{input:'
p3707
aS'null,'
p3708
aS'format:'
p3709
aS'cloud,'
p3710
aS'numPartitions:'
p3711
aS'40,'
p3712
aS'algorithm:'
p3713
aS'SVMADMMAsync,'
p3714
aS'algParams:'
p3715
aS'{eta0:'
p3716
aS'1.0,'
p3717
aS'tol:'
p3718
aS'1.0E-6,'
p3719
aS'workerTol:'
p3720
aS'1.0E-6,'
p3721
aS'maxIterations:'
p3722
aS'1000,'
p3723
aS'maxWorkerIterations:'
p3724
aS'1000,'
p3725
aS'miniBatchSize:'
p3726
aS'10,'
p3727
aS'useLBFGS:'
p3728
aS'false,'
p3729
aS'rho0:'
p3730
aS'1.0,'
p3731
aS'lagrangianRho:'
p3732
aS'0.5,'
p3733
aS'regParam:'
p3734
aS'1.0E-4,'
p3735
aS'runtimeMS:'
p3736
aS'10000,'
p3737
aS'displayIncrementalStats:'
p3738
aS'false,'
p3739
aS'adaptiveRho:'
p3740
aS'false,'
p3741
aS'broadcastDelayMS:'
p3742
aS'100,'
p3743
aS'usePorkChop:'
p3744
aS'false},'
p3745
aS'regType:'
p3746
aS'L2,'
p3747
aS'pointCloudDim:'
p3748
aS'10,'
p3749
aS'pointCloudNoise:'
p3750
aS'0.05,'
p3751
aS'pointCloudSkew:'
p3752
aS'0.0,'
p3753
aS'pointCloudPoints:'
p3754
aS'500000,'
p3755
aS'pointCloudSize:'
p3756
aS'1.0}'
p3757
aS'{avgMsgsSent:'
p3758
aS'[100.0,'
p3759
aS'100.0,'
p3760
aS'100.0],'
p3761
aS'avgMsgsRcvd:'
p3762
aS'[700.0,'
p3763
aS'700.0,'
p3764
aS'700.0],'
p3765
aS'avgSGDIters:'
p3766
aS'[0.0,'
p3767
aS'40.025,'
p3768
aS'1000.0],'
p3769
aS'iterations:'
p3770
aS'1076.525,'
p3771
aS'runtime:'
p3772
aS'10427}'
p3773
asg90
F0.5
sg91
F3078403.858319873
sg92
g181
sg94
F0.0033727171570221651
sg95
S'cd /mnt/spark; sbin/stop-all.sh; sleep 5; sbin/start-all.sh; sleep 3;./bin/spark-submit --driver-memory 52g --class org.apache.spark.examples.mllib.research.SynchronousADMMTests examples/target/scala-*/spark-examples-*.jar --algorithm SVMADMMAsync --regType L2 --regParam 0.000100 --format cloud --numPartitions 40 --runtimeMS 10000 --ADMMmaxLocalIterations 1000 --ADMMepsilon 0.000001  --ADMMLocalepsilon 0.000001 --ADMMrho 1.000000 --ADMMLagrangianrho 0.500000 --broadcastDelayMs 100  --pointCloudPointsPerPartition 500000 --pointCloudPartitionSkew 0.000000 --pointCloudLabelNoise 0.050000 --pointCloudDimension 10   '
p3774
sg97
F0.0
sg98
F0.050058800000000001
sg99
g3706
sg100
F10427.0
sa(dp3775
g2
I5
sg3
g4
sg5
I1000
sg6
F10000.0
sg7
F3367332.25
sg8
F86714570.524183601
sg9
F9.9999999999999995e-07
sg10
I40
sg11
S'--pointCloudPointsPerPartition 500000 --pointCloudPartitionSkew 0.000000 --pointCloudLabelNoise 0.050000 --pointCloudDimension 10 '
p3776
sg13
F1.0
sg14
F9.9999999999999995e-07
sg15
I10
sg16
F0.0001
sg17
g18
sg19
(lp3777
S'RESULT:'
p3778
aS'HOGWILDSVM'
p3779
aS'3367332.25'
p3780
aS'10000'
p3781
aS'10834'
p3782
aS'0.5091502'
p3783
aS'8.671457052344711E7'
p3784
aS'7.364940147909515E-4'
p3785
aS'8.67145705241836E7'
p3786
aS'0.2586189774079744,-0.350275933680697,0.3019434146274857,-1.7199471181582826,0.3755102150615556,1.1423678259295642,-0.6750873628912386,-0.04989941507866904,0.08770619905277398,-1.4879643073584319'
p3787
aS'{input:'
p3788
aS'null,'
p3789
aS'format:'
p3790
aS'cloud,'
p3791
aS'numPartitions:'
p3792
aS'40,'
p3793
aS'algorithm:'
p3794
aS'HOGWILDSVM,'
p3795
aS'algParams:'
p3796
aS'{eta0:'
p3797
aS'1.0,'
p3798
aS'tol:'
p3799
aS'1.0E-6,'
p3800
aS'workerTol:'
p3801
aS'1.0E-6,'
p3802
aS'maxIterations:'
p3803
aS'1000,'
p3804
aS'maxWorkerIterations:'
p3805
aS'1000,'
p3806
aS'miniBatchSize:'
p3807
aS'10,'
p3808
aS'useLBFGS:'
p3809
aS'false,'
p3810
aS'rho0:'
p3811
aS'1.0,'
p3812
aS'lagrangianRho:'
p3813
aS'0.5,'
p3814
aS'regParam:'
p3815
aS'1.0E-4,'
p3816
aS'runtimeMS:'
p3817
aS'10000,'
p3818
aS'displayIncrementalStats:'
p3819
aS'false,'
p3820
aS'adaptiveRho:'
p3821
aS'false,'
p3822
aS'broadcastDelayMS:'
p3823
aS'5,'
p3824
aS'usePorkChop:'
p3825
aS'false},'
p3826
aS'regType:'
p3827
aS'L2,'
p3828
aS'pointCloudDim:'
p3829
aS'10,'
p3830
aS'pointCloudNoise:'
p3831
aS'0.05,'
p3832
aS'pointCloudSkew:'
p3833
aS'0.0,'
p3834
aS'pointCloudPoints:'
p3835
aS'500000,'
p3836
aS'pointCloudSize:'
p3837
aS'1.0}'
p3838
aS'{iterations:'
p3839
aS'3367332.25,'
p3840
aS'msgsSent:'
p3841
aS'[1774.0,'
p3842
aS'1812.325,'
p3843
aS'1835.0],'
p3844
aS'avgMsgsRcvd:'
p3845
aS'[0.0,'
p3846
aS'0.0,'
p3847
aS'0.0],'
p3848
aS'runtime:'
p3849
aS'10834}'
p3850
asg90
F0.5
sg91
F86714570.523447111
sg92
g259
sg94
F0.00073649401479095153
sg95
S'cd /mnt/spark; sbin/stop-all.sh; sleep 5; sbin/start-all.sh; sleep 3;./bin/spark-submit --driver-memory 52g --class org.apache.spark.examples.mllib.research.SynchronousADMMTests examples/target/scala-*/spark-examples-*.jar --algorithm HOGWILDSVM --regType L2 --regParam 0.000100 --format cloud --numPartitions 40 --runtimeMS 10000 --ADMMmaxLocalIterations 1000 --ADMMepsilon 0.000001  --ADMMLocalepsilon 0.000001 --ADMMrho 1.000000 --ADMMLagrangianrho 0.500000 --broadcastDelayMs 5  --pointCloudPointsPerPartition 500000 --pointCloudPartitionSkew 0.000000 --pointCloudLabelNoise 0.050000 --pointCloudDimension 10   '
p3851
sg97
F0.0
sg98
F0.5091502
sg99
g3787
sg100
F10834.0
sa(dp3852
g2
I100
sg3
g4
sg5
I1000
sg6
F10000.0
sg7
F12.0
sg8
F29775190.605458561
sg9
F9.9999999999999995e-07
sg10
I40
sg11
S'--pointCloudPointsPerPartition 500000 --pointCloudPartitionSkew 0.000000 --pointCloudLabelNoise 0.050000 --pointCloudDimension 10 '
p3853
sg13
F1.0
sg14
F9.9999999999999995e-07
sg15
I10
sg16
F0.0001
sg17
g18
sg19
(lp3854
S'RESULT:'
p3855
aS'SVM'
p3856
aS'12'
p3857
aS'10000'
p3858
aS'10303'
p3859
aS'0.5000272'
p3860
aS'2.977519060536827E7'
p3861
aS'9.029147740181779E-5'
p3862
aS'2.977519060545856E7'
p3863
aS'-0.011548615053475042,-0.010652489095456241,-0.010586003689090129,-0.013426937353579471,-0.012025880971984981,-0.011360373647724242,-0.011690050264041463,-0.011728872476034047,-0.012400112957257181,-0.9495651191125005'
p3864
aS'{input:'
p3865
aS'null,'
p3866
aS'format:'
p3867
aS'cloud,'
p3868
aS'numPartitions:'
p3869
aS'40,'
p3870
aS'algorithm:'
p3871
aS'SVM,'
p3872
aS'algParams:'
p3873
aS'{eta0:'
p3874
aS'1.0,'
p3875
aS'tol:'
p3876
aS'1.0E-6,'
p3877
aS'workerTol:'
p3878
aS'1.0E-6,'
p3879
aS'maxIterations:'
p3880
aS'1000,'
p3881
aS'maxWorkerIterations:'
p3882
aS'1000,'
p3883
aS'miniBatchSize:'
p3884
aS'10,'
p3885
aS'useLBFGS:'
p3886
aS'false,'
p3887
aS'rho0:'
p3888
aS'1.0,'
p3889
aS'lagrangianRho:'
p3890
aS'0.5,'
p3891
aS'regParam:'
p3892
aS'1.0E-4,'
p3893
aS'runtimeMS:'
p3894
aS'10000,'
p3895
aS'displayIncrementalStats:'
p3896
aS'false,'
p3897
aS'adaptiveRho:'
p3898
aS'false,'
p3899
aS'broadcastDelayMS:'
p3900
aS'100,'
p3901
aS'usePorkChop:'
p3902
aS'false},'
p3903
aS'regType:'
p3904
aS'L2,'
p3905
aS'pointCloudDim:'
p3906
aS'10,'
p3907
aS'pointCloudNoise:'
p3908
aS'0.05,'
p3909
aS'pointCloudSkew:'
p3910
aS'0.0,'
p3911
aS'pointCloudPoints:'
p3912
aS'500000,'
p3913
aS'pointCloudSize:'
p3914
aS'1.0}'
p3915
aS'{iterations:'
p3916
aS'12,'
p3917
aS'runtime:'
p3918
aS'10303}'
p3919
asg90
F0.5
sg91
F29775190.605368271
sg92
g328
sg94
F9.0291477401817792e-05
sg95
S'cd /mnt/spark; sbin/stop-all.sh; sleep 5; sbin/start-all.sh; sleep 3;./bin/spark-submit --driver-memory 52g --class org.apache.spark.examples.mllib.research.SynchronousADMMTests examples/target/scala-*/spark-examples-*.jar --algorithm SVM --regType L2 --regParam 0.000100 --format cloud --numPartitions 40 --runtimeMS 10000 --ADMMmaxLocalIterations 1000 --ADMMepsilon 0.000001  --ADMMLocalepsilon 0.000001 --ADMMrho 1.000000 --ADMMLagrangianrho 0.500000 --broadcastDelayMs 100  --pointCloudPointsPerPartition 500000 --pointCloudPartitionSkew 0.000000 --pointCloudLabelNoise 0.050000 --pointCloudDimension 10   '
p3920
sg97
F0.0
sg98
F0.5000272
sg99
g3864
sg100
F10303.0
sa(dp3921
g2
I-1
sg3
g4
sg5
I1000
sg6
F10000.0
sg7
F22.0
sg8
F11180481.95429856
sg9
F9.9999999999999995e-07
sg10
I40
sg11
S'--pointCloudPointsPerPartition 500000 --pointCloudPartitionSkew 0.100000 --pointCloudLabelNoise 0.050000 --pointCloudDimension 10 '
p3922
sg13
F1.0
sg14
F9.9999999999999995e-07
sg15
I10
sg16
F0.0001
sg17
g18
sg19
(lp3923
S'RESULT:'
p3924
aS'SVMADMM'
p3925
aS'22'
p3926
aS'10000'
p3927
aS'10312'
p3928
aS'0.0500589'
p3929
aS'1.1180481954036018E7'
p3930
aS'2.625425004234057E-4'
p3931
aS'1.118048195429856E7'
p3932
aS'0.02160159201911734,0.02236413141868142,0.021989643657583054,0.021892920337470766,0.02203879101571666,0.02121166515827449,0.02164543252422008,0.021613058810365224,0.021665818974475944,-1.6189980472109093'
p3933
aS'{input:'
p3934
aS'null,'
p3935
aS'format:'
p3936
aS'cloud,'
p3937
aS'numPartitions:'
p3938
aS'40,'
p3939
aS'algorithm:'
p3940
aS'SVMADMM,'
p3941
aS'algParams:'
p3942
aS'{eta0:'
p3943
aS'1.0,'
p3944
aS'tol:'
p3945
aS'1.0E-6,'
p3946
aS'workerTol:'
p3947
aS'1.0E-6,'
p3948
aS'maxIterations:'
p3949
aS'1000,'
p3950
aS'maxWorkerIterations:'
p3951
aS'1000,'
p3952
aS'miniBatchSize:'
p3953
aS'10,'
p3954
aS'useLBFGS:'
p3955
aS'false,'
p3956
aS'rho0:'
p3957
aS'1.0,'
p3958
aS'lagrangianRho:'
p3959
aS'0.5,'
p3960
aS'regParam:'
p3961
aS'1.0E-4,'
p3962
aS'runtimeMS:'
p3963
aS'10000,'
p3964
aS'displayIncrementalStats:'
p3965
aS'false,'
p3966
aS'adaptiveRho:'
p3967
aS'false,'
p3968
aS'broadcastDelayMS:'
p3969
aS'-1,'
p3970
aS'usePorkChop:'
p3971
aS'false},'
p3972
aS'regType:'
p3973
aS'L2,'
p3974
aS'pointCloudDim:'
p3975
aS'10,'
p3976
aS'pointCloudNoise:'
p3977
aS'0.05,'
p3978
aS'pointCloudSkew:'
p3979
aS'0.1,'
p3980
aS'pointCloudPoints:'
p3981
aS'500000,'
p3982
aS'pointCloudSize:'
p3983
aS'1.0}'
p3984
aS'{iterations:'
p3985
aS'22,'
p3986
aS'avgSGDIters:'
p3987
aS'[1000.0,'
p3988
aS'1000.0,'
p3989
aS'1000.0],'
p3990
aS'runtime:'
p3991
aS'10312}'
p3992
asg90
F0.5
sg91
F11180481.954036018
sg92
g93
sg94
F0.00026254250042340572
sg95
S'cd /mnt/spark; sbin/stop-all.sh; sleep 5; sbin/start-all.sh; sleep 3;./bin/spark-submit --driver-memory 52g --class org.apache.spark.examples.mllib.research.SynchronousADMMTests examples/target/scala-*/spark-examples-*.jar --algorithm SVMADMM --regType L2 --regParam 0.000100 --format cloud --numPartitions 40 --runtimeMS 10000 --ADMMmaxLocalIterations 1000 --ADMMepsilon 0.000001  --ADMMLocalepsilon 0.000001 --ADMMrho 1.000000 --ADMMLagrangianrho 0.500000 --broadcastDelayMs -1  --pointCloudPointsPerPartition 500000 --pointCloudPartitionSkew 0.100000 --pointCloudLabelNoise 0.050000 --pointCloudDimension 10   '
p3993
sg97
F0.10000000000000001
sg98
F0.050058900000000003
sg99
g3933
sg100
F10312.0
sa(dp3994
g2
I100
sg3
g4
sg5
I1000
sg6
F10000.0
sg7
F1053.6500000000001
sg8
F3334412.4125465611
sg9
F9.9999999999999995e-07
sg10
I40
sg11
S'--pointCloudPointsPerPartition 500000 --pointCloudPartitionSkew 0.100000 --pointCloudLabelNoise 0.050000 --pointCloudDimension 10 '
p3995
sg13
F1.0
sg14
F9.9999999999999995e-07
sg15
I10
sg16
F0.0001
sg17
g18
sg19
(lp3996
S'RESULT:'
p3997
aS'SVMADMMAsync'
p3998
aS'1053.65'
p3999
aS'10000'
p4000
aS'10408'
p4001
aS'0.0500588'
p4002
aS'3334412.4075542605'
p4003
aS'0.004992300845563101'
p4004
aS'3334412.412546561'
p4005
aS'0.1046516759265121,0.10541594403924123,0.10510662924908332,0.10069728167967322,0.09983723554372405,0.10397216737598133,0.10576405069649872,0.10395430936482596,0.10285245896929186,-7.05878231486764'
p4006
aS'{input:'
p4007
aS'null,'
p4008
aS'format:'
p4009
aS'cloud,'
p4010
aS'numPartitions:'
p4011
aS'40,'
p4012
aS'algorithm:'
p4013
aS'SVMADMMAsync,'
p4014
aS'algParams:'
p4015
aS'{eta0:'
p4016
aS'1.0,'
p4017
aS'tol:'
p4018
aS'1.0E-6,'
p4019
aS'workerTol:'
p4020
aS'1.0E-6,'
p4021
aS'maxIterations:'
p4022
aS'1000,'
p4023
aS'maxWorkerIterations:'
p4024
aS'1000,'
p4025
aS'miniBatchSize:'
p4026
aS'10,'
p4027
aS'useLBFGS:'
p4028
aS'false,'
p4029
aS'rho0:'
p4030
aS'1.0,'
p4031
aS'lagrangianRho:'
p4032
aS'0.5,'
p4033
aS'regParam:'
p4034
aS'1.0E-4,'
p4035
aS'runtimeMS:'
p4036
aS'10000,'
p4037
aS'displayIncrementalStats:'
p4038
aS'false,'
p4039
aS'adaptiveRho:'
p4040
aS'false,'
p4041
aS'broadcastDelayMS:'
p4042
aS'100,'
p4043
aS'usePorkChop:'
p4044
aS'false},'
p4045
aS'regType:'
p4046
aS'L2,'
p4047
aS'pointCloudDim:'
p4048
aS'10,'
p4049
aS'pointCloudNoise:'
p4050
aS'0.05,'
p4051
aS'pointCloudSkew:'
p4052
aS'0.1,'
p4053
aS'pointCloudPoints:'
p4054
aS'500000,'
p4055
aS'pointCloudSize:'
p4056
aS'1.0}'
p4057
aS'{avgMsgsSent:'
p4058
aS'[100.0,'
p4059
aS'100.0,'
p4060
aS'100.0],'
p4061
aS'avgMsgsRcvd:'
p4062
aS'[700.0,'
p4063
aS'700.0,'
p4064
aS'700.0],'
p4065
aS'avgSGDIters:'
p4066
aS'[0.0,'
p4067
aS'0.0,'
p4068
aS'0.0],'
p4069
aS'iterations:'
p4070
aS'1053.65,'
p4071
aS'runtime:'
p4072
aS'10408}'
p4073
asg90
F0.5
sg91
F3334412.4075542605
sg92
g181
sg94
F0.0049923008455631012
sg95
S'cd /mnt/spark; sbin/stop-all.sh; sleep 5; sbin/start-all.sh; sleep 3;./bin/spark-submit --driver-memory 52g --class org.apache.spark.examples.mllib.research.SynchronousADMMTests examples/target/scala-*/spark-examples-*.jar --algorithm SVMADMMAsync --regType L2 --regParam 0.000100 --format cloud --numPartitions 40 --runtimeMS 10000 --ADMMmaxLocalIterations 1000 --ADMMepsilon 0.000001  --ADMMLocalepsilon 0.000001 --ADMMrho 1.000000 --ADMMLagrangianrho 0.500000 --broadcastDelayMs 100  --pointCloudPointsPerPartition 500000 --pointCloudPartitionSkew 0.100000 --pointCloudLabelNoise 0.050000 --pointCloudDimension 10   '
p4074
sg97
F0.10000000000000001
sg98
F0.050058800000000001
sg99
g4006
sg100
F10408.0
sa(dp4075
g2
I5
sg3
g4
sg5
I1000
sg6
F10000.0
sg7
F3114538.0
sg8
F130863675.9529919
sg9
F9.9999999999999995e-07
sg10
I40
sg11
S'--pointCloudPointsPerPartition 500000 --pointCloudPartitionSkew 0.100000 --pointCloudLabelNoise 0.050000 --pointCloudDimension 10 '
p4076
sg13
F1.0
sg14
F9.9999999999999995e-07
sg15
I10
sg16
F0.0001
sg17
g18
sg19
(lp4077
S'RESULT:'
p4078
aS'HOGWILDSVM'
p4079
aS'3114538.0'
p4080
aS'10000'
p4081
aS'10832'
p4082
aS'0.50007675'
p4083
aS'1.3086367594824685E8'
p4084
aS'0.004745057081906536'
p4085
aS'1.308636759529919E8'
p4086
aS'0.4972327164419367,-0.1600276313959864,-0.2538070206109741,-0.21019056922196486,-0.8023193493727798,0.8359325121841837,-0.8396281909031654,0.3622042327559742,0.018375934774967975,-6.700008876067598'
p4087
aS'{input:'
p4088
aS'null,'
p4089
aS'format:'
p4090
aS'cloud,'
p4091
aS'numPartitions:'
p4092
aS'40,'
p4093
aS'algorithm:'
p4094
aS'HOGWILDSVM,'
p4095
aS'algParams:'
p4096
aS'{eta0:'
p4097
aS'1.0,'
p4098
aS'tol:'
p4099
aS'1.0E-6,'
p4100
aS'workerTol:'
p4101
aS'1.0E-6,'
p4102
aS'maxIterations:'
p4103
aS'1000,'
p4104
aS'maxWorkerIterations:'
p4105
aS'1000,'
p4106
aS'miniBatchSize:'
p4107
aS'10,'
p4108
aS'useLBFGS:'
p4109
aS'false,'
p4110
aS'rho0:'
p4111
aS'1.0,'
p4112
aS'lagrangianRho:'
p4113
aS'0.5,'
p4114
aS'regParam:'
p4115
aS'1.0E-4,'
p4116
aS'runtimeMS:'
p4117
aS'10000,'
p4118
aS'displayIncrementalStats:'
p4119
aS'false,'
p4120
aS'adaptiveRho:'
p4121
aS'false,'
p4122
aS'broadcastDelayMS:'
p4123
aS'5,'
p4124
aS'usePorkChop:'
p4125
aS'false},'
p4126
aS'regType:'
p4127
aS'L2,'
p4128
aS'pointCloudDim:'
p4129
aS'10,'
p4130
aS'pointCloudNoise:'
p4131
aS'0.05,'
p4132
aS'pointCloudSkew:'
p4133
aS'0.1,'
p4134
aS'pointCloudPoints:'
p4135
aS'500000,'
p4136
aS'pointCloudSize:'
p4137
aS'1.0}'
p4138
aS'{iterations:'
p4139
aS'3114538.0,'
p4140
aS'msgsSent:'
p4141
aS'[1784.0,'
p4142
aS'1803.275,'
p4143
aS'1835.0],'
p4144
aS'avgMsgsRcvd:'
p4145
aS'[0.0,'
p4146
aS'0.0,'
p4147
aS'0.0],'
p4148
aS'runtime:'
p4149
aS'10832}'
p4150
asg90
F0.5
sg91
F130863675.94824685
sg92
g259
sg94
F0.0047450570819065358
sg95
S'cd /mnt/spark; sbin/stop-all.sh; sleep 5; sbin/start-all.sh; sleep 3;./bin/spark-submit --driver-memory 52g --class org.apache.spark.examples.mllib.research.SynchronousADMMTests examples/target/scala-*/spark-examples-*.jar --algorithm HOGWILDSVM --regType L2 --regParam 0.000100 --format cloud --numPartitions 40 --runtimeMS 10000 --ADMMmaxLocalIterations 1000 --ADMMepsilon 0.000001  --ADMMLocalepsilon 0.000001 --ADMMrho 1.000000 --ADMMLagrangianrho 0.500000 --broadcastDelayMs 5  --pointCloudPointsPerPartition 500000 --pointCloudPartitionSkew 0.100000 --pointCloudLabelNoise 0.050000 --pointCloudDimension 10   '
p4151
sg97
F0.10000000000000001
sg98
F0.50007674999999996
sg99
g4087
sg100
F10832.0
sa(dp4152
g2
I100
sg3
g4
sg5
I1000
sg6
F10000.0
sg7
F12.0
sg8
F27594162.738358639
sg9
F9.9999999999999995e-07
sg10
I40
sg11
S'--pointCloudPointsPerPartition 500000 --pointCloudPartitionSkew 0.100000 --pointCloudLabelNoise 0.050000 --pointCloudDimension 10 '
p4153
sg13
F1.0
sg14
F9.9999999999999995e-07
sg15
I10
sg16
F0.0001
sg17
g18
sg19
(lp4154
S'RESULT:'
p4155
aS'SVM'
p4156
aS'12'
p4157
aS'10000'
p4158
aS'10391'
p4159
aS'0.50007675'
p4160
aS'2.7594162738268454E7'
p4161
aS'9.018497160769515E-5'
p4162
aS'2.759416273835864E7'
p4163
aS'-0.008831188579293658,-0.008405440698211253,-0.008160832269776375,-0.009422967029164897,-0.00971609098624937,-0.009584581023063588,-0.009168779653451531,-0.009261631120082492,-0.010505198962613593,-0.9492519228881795'
p4164
aS'{input:'
p4165
aS'null,'
p4166
aS'format:'
p4167
aS'cloud,'
p4168
aS'numPartitions:'
p4169
aS'40,'
p4170
aS'algorithm:'
p4171
aS'SVM,'
p4172
aS'algParams:'
p4173
aS'{eta0:'
p4174
aS'1.0,'
p4175
aS'tol:'
p4176
aS'1.0E-6,'
p4177
aS'workerTol:'
p4178
aS'1.0E-6,'
p4179
aS'maxIterations:'
p4180
aS'1000,'
p4181
aS'maxWorkerIterations:'
p4182
aS'1000,'
p4183
aS'miniBatchSize:'
p4184
aS'10,'
p4185
aS'useLBFGS:'
p4186
aS'false,'
p4187
aS'rho0:'
p4188
aS'1.0,'
p4189
aS'lagrangianRho:'
p4190
aS'0.5,'
p4191
aS'regParam:'
p4192
aS'1.0E-4,'
p4193
aS'runtimeMS:'
p4194
aS'10000,'
p4195
aS'displayIncrementalStats:'
p4196
aS'false,'
p4197
aS'adaptiveRho:'
p4198
aS'false,'
p4199
aS'broadcastDelayMS:'
p4200
aS'100,'
p4201
aS'usePorkChop:'
p4202
aS'false},'
p4203
aS'regType:'
p4204
aS'L2,'
p4205
aS'pointCloudDim:'
p4206
aS'10,'
p4207
aS'pointCloudNoise:'
p4208
aS'0.05,'
p4209
aS'pointCloudSkew:'
p4210
aS'0.1,'
p4211
aS'pointCloudPoints:'
p4212
aS'500000,'
p4213
aS'pointCloudSize:'
p4214
aS'1.0}'
p4215
aS'{iterations:'
p4216
aS'12,'
p4217
aS'runtime:'
p4218
aS'10391}'
p4219
asg90
F0.5
sg91
F27594162.738268454
sg92
g328
sg94
F9.0184971607695154e-05
sg95
S'cd /mnt/spark; sbin/stop-all.sh; sleep 5; sbin/start-all.sh; sleep 3;./bin/spark-submit --driver-memory 52g --class org.apache.spark.examples.mllib.research.SynchronousADMMTests examples/target/scala-*/spark-examples-*.jar --algorithm SVM --regType L2 --regParam 0.000100 --format cloud --numPartitions 40 --runtimeMS 10000 --ADMMmaxLocalIterations 1000 --ADMMepsilon 0.000001  --ADMMLocalepsilon 0.000001 --ADMMrho 1.000000 --ADMMLagrangianrho 0.500000 --broadcastDelayMs 100  --pointCloudPointsPerPartition 500000 --pointCloudPartitionSkew 0.100000 --pointCloudLabelNoise 0.050000 --pointCloudDimension 10   '
p4220
sg97
F0.10000000000000001
sg98
F0.50007674999999996
sg99
g4164
sg100
F10391.0
sa(dp4221
g2
I-1
sg3
g4
sg5
I1000
sg6
F20000.0
sg7
F48.0
sg8
F17295044.75297961
sg9
F9.9999999999999995e-07
sg10
I40
sg11
S'--pointCloudPointsPerPartition 500000 --pointCloudPartitionSkew 0.000000 --pointCloudLabelNoise 0.050000 --pointCloudDimension 10 '
p4222
sg13
F1.0
sg14
F9.9999999999999995e-07
sg15
I10
sg16
F0.0001
sg17
g18
sg19
(lp4223
S'RESULT:'
p4224
aS'SVMADMM'
p4225
aS'48'
p4226
aS'20000'
p4227
aS'20146'
p4228
aS'0.50002675'
p4229
aS'1.7295044752931252E7'
p4230
aS'4.8358285447027404E-5'
p4231
aS'1.729504475297961E7'
p4232
aS'0.006776601592348433,0.006488593309062515,0.006702651195416789,0.006830981919342649,0.006266451513308164,0.006398576602797676,0.006822145406976446,0.00698114952421395,0.006856611084897591,-0.6951120348703934'
p4233
aS'{input:'
p4234
aS'null,'
p4235
aS'format:'
p4236
aS'cloud,'
p4237
aS'numPartitions:'
p4238
aS'40,'
p4239
aS'algorithm:'
p4240
aS'SVMADMM,'
p4241
aS'algParams:'
p4242
aS'{eta0:'
p4243
aS'1.0,'
p4244
aS'tol:'
p4245
aS'1.0E-6,'
p4246
aS'workerTol:'
p4247
aS'1.0E-6,'
p4248
aS'maxIterations:'
p4249
aS'1000,'
p4250
aS'maxWorkerIterations:'
p4251
aS'1000,'
p4252
aS'miniBatchSize:'
p4253
aS'10,'
p4254
aS'useLBFGS:'
p4255
aS'false,'
p4256
aS'rho0:'
p4257
aS'1.0,'
p4258
aS'lagrangianRho:'
p4259
aS'0.5,'
p4260
aS'regParam:'
p4261
aS'1.0E-4,'
p4262
aS'runtimeMS:'
p4263
aS'20000,'
p4264
aS'displayIncrementalStats:'
p4265
aS'false,'
p4266
aS'adaptiveRho:'
p4267
aS'false,'
p4268
aS'broadcastDelayMS:'
p4269
aS'-1,'
p4270
aS'usePorkChop:'
p4271
aS'false},'
p4272
aS'regType:'
p4273
aS'L2,'
p4274
aS'pointCloudDim:'
p4275
aS'10,'
p4276
aS'pointCloudNoise:'
p4277
aS'0.05,'
p4278
aS'pointCloudSkew:'
p4279
aS'0.0,'
p4280
aS'pointCloudPoints:'
p4281
aS'500000,'
p4282
aS'pointCloudSize:'
p4283
aS'1.0}'
p4284
aS'{iterations:'
p4285
aS'48,'
p4286
aS'avgSGDIters:'
p4287
aS'[1000.0,'
p4288
aS'1000.0,'
p4289
aS'1000.0],'
p4290
aS'runtime:'
p4291
aS'20146}'
p4292
asg90
F0.5
sg91
F17295044.752931252
sg92
g93
sg94
F4.8358285447027404e-05
sg95
S'cd /mnt/spark; sbin/stop-all.sh; sleep 5; sbin/start-all.sh; sleep 3;./bin/spark-submit --driver-memory 52g --class org.apache.spark.examples.mllib.research.SynchronousADMMTests examples/target/scala-*/spark-examples-*.jar --algorithm SVMADMM --regType L2 --regParam 0.000100 --format cloud --numPartitions 40 --runtimeMS 20000 --ADMMmaxLocalIterations 1000 --ADMMepsilon 0.000001  --ADMMLocalepsilon 0.000001 --ADMMrho 1.000000 --ADMMLagrangianrho 0.500000 --broadcastDelayMs -1  --pointCloudPointsPerPartition 500000 --pointCloudPartitionSkew 0.000000 --pointCloudLabelNoise 0.050000 --pointCloudDimension 10   '
p4293
sg97
F0.0
sg98
F0.50002674999999996
sg99
g4233
sg100
F20146.0
sa(dp4294
g2
I100
sg3
g4
sg5
I1000
sg6
F20000.0
sg7
F2556.0500000000002
sg8
F4964005.2201229837
sg9
F9.9999999999999995e-07
sg10
I40
sg11
S'--pointCloudPointsPerPartition 500000 --pointCloudPartitionSkew 0.000000 --pointCloudLabelNoise 0.050000 --pointCloudDimension 10 '
p4295
sg13
F1.0
sg14
F9.9999999999999995e-07
sg15
I10
sg16
F0.0001
sg17
g18
sg19
(lp4296
S'RESULT:'
p4297
aS'SVMADMMAsync'
p4298
aS'2556.05'
p4299
aS'20000'
p4300
aS'20427'
p4301
aS'0.05076185'
p4302
aS'4964005.217083153'
p4303
aS'0.003039830165824964'
p4304
aS'4964005.220122984'
p4305
aS'0.10386619302043322,0.10070918410736983,0.10588466194135833,0.1015339128269106,0.10176650496903487,0.10072006948209655,0.10265410940952338,0.10112408389876097,0.10151227596022692,-5.50493240582674'
p4306
aS'{input:'
p4307
aS'null,'
p4308
aS'format:'
p4309
aS'cloud,'
p4310
aS'numPartitions:'
p4311
aS'40,'
p4312
aS'algorithm:'
p4313
aS'SVMADMMAsync,'
p4314
aS'algParams:'
p4315
aS'{eta0:'
p4316
aS'1.0,'
p4317
aS'tol:'
p4318
aS'1.0E-6,'
p4319
aS'workerTol:'
p4320
aS'1.0E-6,'
p4321
aS'maxIterations:'
p4322
aS'1000,'
p4323
aS'maxWorkerIterations:'
p4324
aS'1000,'
p4325
aS'miniBatchSize:'
p4326
aS'10,'
p4327
aS'useLBFGS:'
p4328
aS'false,'
p4329
aS'rho0:'
p4330
aS'1.0,'
p4331
aS'lagrangianRho:'
p4332
aS'0.5,'
p4333
aS'regParam:'
p4334
aS'1.0E-4,'
p4335
aS'runtimeMS:'
p4336
aS'20000,'
p4337
aS'displayIncrementalStats:'
p4338
aS'false,'
p4339
aS'adaptiveRho:'
p4340
aS'false,'
p4341
aS'broadcastDelayMS:'
p4342
aS'100,'
p4343
aS'usePorkChop:'
p4344
aS'false},'
p4345
aS'regType:'
p4346
aS'L2,'
p4347
aS'pointCloudDim:'
p4348
aS'10,'
p4349
aS'pointCloudNoise:'
p4350
aS'0.05,'
p4351
aS'pointCloudSkew:'
p4352
aS'0.0,'
p4353
aS'pointCloudPoints:'
p4354
aS'500000,'
p4355
aS'pointCloudSize:'
p4356
aS'1.0}'
p4357
aS'{avgMsgsSent:'
p4358
aS'[200.0,'
p4359
aS'200.0,'
p4360
aS'200.0],'
p4361
aS'avgMsgsRcvd:'
p4362
aS'[1400.0,'
p4363
aS'1400.0,'
p4364
aS'1400.0],'
p4365
aS'avgSGDIters:'
p4366
aS'[0.0,'
p4367
aS'30.05,'
p4368
aS'901.0],'
p4369
aS'iterations:'
p4370
aS'2556.05,'
p4371
aS'runtime:'
p4372
aS'20427}'
p4373
asg90
F0.5
sg91
F4964005.2170831533
sg92
g181
sg94
F0.0030398301658249639
sg95
S'cd /mnt/spark; sbin/stop-all.sh; sleep 5; sbin/start-all.sh; sleep 3;./bin/spark-submit --driver-memory 52g --class org.apache.spark.examples.mllib.research.SynchronousADMMTests examples/target/scala-*/spark-examples-*.jar --algorithm SVMADMMAsync --regType L2 --regParam 0.000100 --format cloud --numPartitions 40 --runtimeMS 20000 --ADMMmaxLocalIterations 1000 --ADMMepsilon 0.000001  --ADMMLocalepsilon 0.000001 --ADMMrho 1.000000 --ADMMLagrangianrho 0.500000 --broadcastDelayMs 100  --pointCloudPointsPerPartition 500000 --pointCloudPartitionSkew 0.000000 --pointCloudLabelNoise 0.050000 --pointCloudDimension 10   '
p4374
sg97
F0.0
sg98
F0.050761849999999997
sg99
g4306
sg100
F20427.0
sa(dp4375
g2
I5
sg3
g4
sg5
I1000
sg6
F20000.0
sg7
F9105363.75
sg8
F17818789.395600986
sg9
F9.9999999999999995e-07
sg10
I40
sg11
S'--pointCloudPointsPerPartition 500000 --pointCloudPartitionSkew 0.000000 --pointCloudLabelNoise 0.050000 --pointCloudDimension 10 '
p4376
sg13
F1.0
sg14
F9.9999999999999995e-07
sg15
I10
sg16
F0.0001
sg17
g18
sg19
(lp4377
S'RESULT:'
p4378
aS'HOGWILDSVM'
p4379
aS'9105363.75'
p4380
aS'20000'
p4381
aS'20844'
p4382
aS'0.32979425'
p4383
aS'1.781878939488793E7'
p4384
aS'7.130533880044631E-4'
p4385
aS'1.7818789395600986E7'
p4386
aS'1.0139507581349578,-0.16067999337832564,-0.45931285812436967,-0.05532531280485824,0.6461898521562404,0.6863622239378451,-0.1457142466377708,-0.772059803519618,-0.29409176645065216,-2.0664310081679833'
p4387
aS'{input:'
p4388
aS'null,'
p4389
aS'format:'
p4390
aS'cloud,'
p4391
aS'numPartitions:'
p4392
aS'40,'
p4393
aS'algorithm:'
p4394
aS'HOGWILDSVM,'
p4395
aS'algParams:'
p4396
aS'{eta0:'
p4397
aS'1.0,'
p4398
aS'tol:'
p4399
aS'1.0E-6,'
p4400
aS'workerTol:'
p4401
aS'1.0E-6,'
p4402
aS'maxIterations:'
p4403
aS'1000,'
p4404
aS'maxWorkerIterations:'
p4405
aS'1000,'
p4406
aS'miniBatchSize:'
p4407
aS'10,'
p4408
aS'useLBFGS:'
p4409
aS'false,'
p4410
aS'rho0:'
p4411
aS'1.0,'
p4412
aS'lagrangianRho:'
p4413
aS'0.5,'
p4414
aS'regParam:'
p4415
aS'1.0E-4,'
p4416
aS'runtimeMS:'
p4417
aS'20000,'
p4418
aS'displayIncrementalStats:'
p4419
aS'false,'
p4420
aS'adaptiveRho:'
p4421
aS'false,'
p4422
aS'broadcastDelayMS:'
p4423
aS'5,'
p4424
aS'usePorkChop:'
p4425
aS'false},'
p4426
aS'regType:'
p4427
aS'L2,'
p4428
aS'pointCloudDim:'
p4429
aS'10,'
p4430
aS'pointCloudNoise:'
p4431
aS'0.05,'
p4432
aS'pointCloudSkew:'
p4433
aS'0.0,'
p4434
aS'pointCloudPoints:'
p4435
aS'500000,'
p4436
aS'pointCloudSize:'
p4437
aS'1.0}'
p4438
aS'{iterations:'
p4439
aS'9105363.75,'
p4440
aS'msgsSent:'
p4441
aS'[3620.0,'
p4442
aS'3643.575,'
p4443
aS'3673.0],'
p4444
aS'avgMsgsRcvd:'
p4445
aS'[0.0,'
p4446
aS'0.0,'
p4447
aS'0.0],'
p4448
aS'runtime:'
p4449
aS'20844}'
p4450
asg90
F0.5
sg91
F17818789.394887932
sg92
g259
sg94
F0.00071305338800446314
sg95
S'cd /mnt/spark; sbin/stop-all.sh; sleep 5; sbin/start-all.sh; sleep 3;./bin/spark-submit --driver-memory 52g --class org.apache.spark.examples.mllib.research.SynchronousADMMTests examples/target/scala-*/spark-examples-*.jar --algorithm HOGWILDSVM --regType L2 --regParam 0.000100 --format cloud --numPartitions 40 --runtimeMS 20000 --ADMMmaxLocalIterations 1000 --ADMMepsilon 0.000001  --ADMMLocalepsilon 0.000001 --ADMMrho 1.000000 --ADMMLagrangianrho 0.500000 --broadcastDelayMs 5  --pointCloudPointsPerPartition 500000 --pointCloudPartitionSkew 0.000000 --pointCloudLabelNoise 0.050000 --pointCloudDimension 10   '
p4451
sg97
F0.0
sg98
F0.32979425000000001
sg99
g4387
sg100
F20844.0
sa(dp4452
g2
I100
sg3
g4
sg5
I1000
sg6
F20000.0
sg7
F31.0
sg8
F301431009.73202026
sg9
F9.9999999999999995e-07
sg10
I40
sg11
S'--pointCloudPointsPerPartition 500000 --pointCloudPartitionSkew 0.000000 --pointCloudLabelNoise 0.050000 --pointCloudDimension 10 '
p4453
sg13
F1.0
sg14
F9.9999999999999995e-07
sg15
I10
sg16
F0.0001
sg17
g18
sg19
(lp4454
S'RESULT:'
p4455
aS'SVM'
p4456
aS'31'
p4457
aS'20000'
p4458
aS'20299'
p4459
aS'0.4999728'
p4460
aS'3.014310097314166E8'
p4461
aS'6.036554714579788E-4'
p4462
aS'3.0143100973202026E8'
p4463
aS'0.6488151065909387,0.6503230898339126,0.6504580871957188,0.6457109574293415,0.6480419885589885,0.6491261484349742,0.6485830879438694,0.6485227638894029,0.6474115284764782,-1.5003094771260033'
p4464
aS'{input:'
p4465
aS'null,'
p4466
aS'format:'
p4467
aS'cloud,'
p4468
aS'numPartitions:'
p4469
aS'40,'
p4470
aS'algorithm:'
p4471
aS'SVM,'
p4472
aS'algParams:'
p4473
aS'{eta0:'
p4474
aS'1.0,'
p4475
aS'tol:'
p4476
aS'1.0E-6,'
p4477
aS'workerTol:'
p4478
aS'1.0E-6,'
p4479
aS'maxIterations:'
p4480
aS'1000,'
p4481
aS'maxWorkerIterations:'
p4482
aS'1000,'
p4483
aS'miniBatchSize:'
p4484
aS'10,'
p4485
aS'useLBFGS:'
p4486
aS'false,'
p4487
aS'rho0:'
p4488
aS'1.0,'
p4489
aS'lagrangianRho:'
p4490
aS'0.5,'
p4491
aS'regParam:'
p4492
aS'1.0E-4,'
p4493
aS'runtimeMS:'
p4494
aS'20000,'
p4495
aS'displayIncrementalStats:'
p4496
aS'false,'
p4497
aS'adaptiveRho:'
p4498
aS'false,'
p4499
aS'broadcastDelayMS:'
p4500
aS'100,'
p4501
aS'usePorkChop:'
p4502
aS'false},'
p4503
aS'regType:'
p4504
aS'L2,'
p4505
aS'pointCloudDim:'
p4506
aS'10,'
p4507
aS'pointCloudNoise:'
p4508
aS'0.05,'
p4509
aS'pointCloudSkew:'
p4510
aS'0.0,'
p4511
aS'pointCloudPoints:'
p4512
aS'500000,'
p4513
aS'pointCloudSize:'
p4514
aS'1.0}'
p4515
aS'{iterations:'
p4516
aS'31,'
p4517
aS'runtime:'
p4518
aS'20299}'
p4519
asg90
F0.5
sg91
F301431009.73141658
sg92
g328
sg94
F0.00060365547145797881
sg95
S'cd /mnt/spark; sbin/stop-all.sh; sleep 5; sbin/start-all.sh; sleep 3;./bin/spark-submit --driver-memory 52g --class org.apache.spark.examples.mllib.research.SynchronousADMMTests examples/target/scala-*/spark-examples-*.jar --algorithm SVM --regType L2 --regParam 0.000100 --format cloud --numPartitions 40 --runtimeMS 20000 --ADMMmaxLocalIterations 1000 --ADMMepsilon 0.000001  --ADMMLocalepsilon 0.000001 --ADMMrho 1.000000 --ADMMLagrangianrho 0.500000 --broadcastDelayMs 100  --pointCloudPointsPerPartition 500000 --pointCloudPartitionSkew 0.000000 --pointCloudLabelNoise 0.050000 --pointCloudDimension 10   '
p4520
sg97
F0.0
sg98
F0.4999728
sg99
g4464
sg100
F20299.0
sa(dp4521
g2
I-1
sg3
g4
sg5
I1000
sg6
F20000.0
sg7
F47.0
sg8
F2594278.1839428111
sg9
F9.9999999999999995e-07
sg10
I40
sg11
S'--pointCloudPointsPerPartition 500000 --pointCloudPartitionSkew 0.100000 --pointCloudLabelNoise 0.050000 --pointCloudDimension 10 '
p4522
sg13
F1.0
sg14
F9.9999999999999995e-07
sg15
I10
sg16
F0.0001
sg17
g18
sg19
(lp4523
S'RESULT:'
p4524
aS'SVMADMM'
p4525
aS'47'
p4526
aS'20000'
p4527
aS'20110'
p4528
aS'0.0500588'
p4529
aS'2594278.182906567'
p4530
aS'0.0010362438159037333'
p4531
aS'2594278.183942811'
p4532
aS'0.048638110077012305,0.04756930727930449,0.04807523169232497,0.04815876951397651,0.04866187679194997,0.04866879971911551,0.048042337953498035,0.04825847950378229,0.04808062021034602,-3.215819310202018'
p4533
aS'{input:'
p4534
aS'null,'
p4535
aS'format:'
p4536
aS'cloud,'
p4537
aS'numPartitions:'
p4538
aS'40,'
p4539
aS'algorithm:'
p4540
aS'SVMADMM,'
p4541
aS'algParams:'
p4542
aS'{eta0:'
p4543
aS'1.0,'
p4544
aS'tol:'
p4545
aS'1.0E-6,'
p4546
aS'workerTol:'
p4547
aS'1.0E-6,'
p4548
aS'maxIterations:'
p4549
aS'1000,'
p4550
aS'maxWorkerIterations:'
p4551
aS'1000,'
p4552
aS'miniBatchSize:'
p4553
aS'10,'
p4554
aS'useLBFGS:'
p4555
aS'false,'
p4556
aS'rho0:'
p4557
aS'1.0,'
p4558
aS'lagrangianRho:'
p4559
aS'0.5,'
p4560
aS'regParam:'
p4561
aS'1.0E-4,'
p4562
aS'runtimeMS:'
p4563
aS'20000,'
p4564
aS'displayIncrementalStats:'
p4565
aS'false,'
p4566
aS'adaptiveRho:'
p4567
aS'false,'
p4568
aS'broadcastDelayMS:'
p4569
aS'-1,'
p4570
aS'usePorkChop:'
p4571
aS'false},'
p4572
aS'regType:'
p4573
aS'L2,'
p4574
aS'pointCloudDim:'
p4575
aS'10,'
p4576
aS'pointCloudNoise:'
p4577
aS'0.05,'
p4578
aS'pointCloudSkew:'
p4579
aS'0.1,'
p4580
aS'pointCloudPoints:'
p4581
aS'500000,'
p4582
aS'pointCloudSize:'
p4583
aS'1.0}'
p4584
aS'{iterations:'
p4585
aS'47,'
p4586
aS'avgSGDIters:'
p4587
aS'[1000.0,'
p4588
aS'1000.0,'
p4589
aS'1000.0],'
p4590
aS'runtime:'
p4591
aS'20110}'
p4592
asg90
F0.5
sg91
F2594278.1829065671
sg92
g93
sg94
F0.0010362438159037333
sg95
S'cd /mnt/spark; sbin/stop-all.sh; sleep 5; sbin/start-all.sh; sleep 3;./bin/spark-submit --driver-memory 52g --class org.apache.spark.examples.mllib.research.SynchronousADMMTests examples/target/scala-*/spark-examples-*.jar --algorithm SVMADMM --regType L2 --regParam 0.000100 --format cloud --numPartitions 40 --runtimeMS 20000 --ADMMmaxLocalIterations 1000 --ADMMepsilon 0.000001  --ADMMLocalepsilon 0.000001 --ADMMrho 1.000000 --ADMMLagrangianrho 0.500000 --broadcastDelayMs -1  --pointCloudPointsPerPartition 500000 --pointCloudPartitionSkew 0.100000 --pointCloudLabelNoise 0.050000 --pointCloudDimension 10   '
p4593
sg97
F0.10000000000000001
sg98
F0.050058800000000001
sg99
g4533
sg100
F20110.0
sa(dp4594
g2
I100
sg3
g4
sg5
I1000
sg6
F20000.0
sg7
F2423.1500000000001
sg8
F3388236.3451533122
sg9
F9.9999999999999995e-07
sg10
I40
sg11
S'--pointCloudPointsPerPartition 500000 --pointCloudPartitionSkew 0.100000 --pointCloudLabelNoise 0.050000 --pointCloudDimension 10 '
p4595
sg13
F1.0
sg14
F9.9999999999999995e-07
sg15
I10
sg16
F0.0001
sg17
g18
sg19
(lp4596
S'RESULT:'
p4597
aS'SVMADMMAsync'
p4598
aS'2423.15'
p4599
aS'20000'
p4600
aS'20431'
p4601
aS'0.0500588'
p4602
aS'3388236.3401857973'
p4603
aS'0.004967514678926702'
p4604
aS'3388236.345153312'
p4605
aS'0.10739260756475622,0.10623396297041869,0.10254698999669992,0.10722935498079157,0.10124026493853346,0.10241810661343627,0.11102483652800264,0.11134091447994743,0.10447175673129899,-7.040876168572145'
p4606
aS'{input:'
p4607
aS'null,'
p4608
aS'format:'
p4609
aS'cloud,'
p4610
aS'numPartitions:'
p4611
aS'40,'
p4612
aS'algorithm:'
p4613
aS'SVMADMMAsync,'
p4614
aS'algParams:'
p4615
aS'{eta0:'
p4616
aS'1.0,'
p4617
aS'tol:'
p4618
aS'1.0E-6,'
p4619
aS'workerTol:'
p4620
aS'1.0E-6,'
p4621
aS'maxIterations:'
p4622
aS'1000,'
p4623
aS'maxWorkerIterations:'
p4624
aS'1000,'
p4625
aS'miniBatchSize:'
p4626
aS'10,'
p4627
aS'useLBFGS:'
p4628
aS'false,'
p4629
aS'rho0:'
p4630
aS'1.0,'
p4631
aS'lagrangianRho:'
p4632
aS'0.5,'
p4633
aS'regParam:'
p4634
aS'1.0E-4,'
p4635
aS'runtimeMS:'
p4636
aS'20000,'
p4637
aS'displayIncrementalStats:'
p4638
aS'false,'
p4639
aS'adaptiveRho:'
p4640
aS'false,'
p4641
aS'broadcastDelayMS:'
p4642
aS'100,'
p4643
aS'usePorkChop:'
p4644
aS'false},'
p4645
aS'regType:'
p4646
aS'L2,'
p4647
aS'pointCloudDim:'
p4648
aS'10,'
p4649
aS'pointCloudNoise:'
p4650
aS'0.05,'
p4651
aS'pointCloudSkew:'
p4652
aS'0.1,'
p4653
aS'pointCloudPoints:'
p4654
aS'500000,'
p4655
aS'pointCloudSize:'
p4656
aS'1.0}'
p4657
aS'{avgMsgsSent:'
p4658
aS'[200.0,'
p4659
aS'200.0,'
p4660
aS'200.0],'
p4661
aS'avgMsgsRcvd:'
p4662
aS'[1400.0,'
p4663
aS'1400.0,'
p4664
aS'1400.0],'
p4665
aS'avgSGDIters:'
p4666
aS'[0.0,'
p4667
aS'22.525,'
p4668
aS'901.0],'
p4669
aS'iterations:'
p4670
aS'2423.15,'
p4671
aS'runtime:'
p4672
aS'20431}'
p4673
asg90
F0.5
sg91
F3388236.3401857973
sg92
g181
sg94
F0.0049675146789267023
sg95
S'cd /mnt/spark; sbin/stop-all.sh; sleep 5; sbin/start-all.sh; sleep 3;./bin/spark-submit --driver-memory 52g --class org.apache.spark.examples.mllib.research.SynchronousADMMTests examples/target/scala-*/spark-examples-*.jar --algorithm SVMADMMAsync --regType L2 --regParam 0.000100 --format cloud --numPartitions 40 --runtimeMS 20000 --ADMMmaxLocalIterations 1000 --ADMMepsilon 0.000001  --ADMMLocalepsilon 0.000001 --ADMMrho 1.000000 --ADMMLagrangianrho 0.500000 --broadcastDelayMs 100  --pointCloudPointsPerPartition 500000 --pointCloudPartitionSkew 0.100000 --pointCloudLabelNoise 0.050000 --pointCloudDimension 10   '
p4674
sg97
F0.10000000000000001
sg98
F0.050058800000000001
sg99
g4606
sg100
F20431.0
sa(dp4675
g2
I5
sg3
g4
sg5
I1000
sg6
F20000.0
sg7
F9285206.0
sg8
F281940002.0305239
sg9
F9.9999999999999995e-07
sg10
I40
sg11
S'--pointCloudPointsPerPartition 500000 --pointCloudPartitionSkew 0.100000 --pointCloudLabelNoise 0.050000 --pointCloudDimension 10 '
p4676
sg13
F1.0
sg14
F9.9999999999999995e-07
sg15
I10
sg16
F0.0001
sg17
g18
sg19
(lp4677
S'RESULT:'
p4678
aS'HOGWILDSVM'
p4679
aS'9285206.0'
p4680
aS'20000'
p4681
aS'20812'
p4682
aS'0.50007675'
p4683
aS'2.819400020254037E8'
p4684
aS'0.005120240861669188'
p4685
aS'2.819400020305239E8'
p4686
aS'0.09551265968036575,-0.41001233869393505,-0.22776992237990518,-0.12360460298009293,-0.4623330047486057,0.7334243344247194,-0.9749985204323223,-0.06203970186064986,-0.640208789544359,-6.988706403903681'
p4687
aS'{input:'
p4688
aS'null,'
p4689
aS'format:'
p4690
aS'cloud,'
p4691
aS'numPartitions:'
p4692
aS'40,'
p4693
aS'algorithm:'
p4694
aS'HOGWILDSVM,'
p4695
aS'algParams:'
p4696
aS'{eta0:'
p4697
aS'1.0,'
p4698
aS'tol:'
p4699
aS'1.0E-6,'
p4700
aS'workerTol:'
p4701
aS'1.0E-6,'
p4702
aS'maxIterations:'
p4703
aS'1000,'
p4704
aS'maxWorkerIterations:'
p4705
aS'1000,'
p4706
aS'miniBatchSize:'
p4707
aS'10,'
p4708
aS'useLBFGS:'
p4709
aS'false,'
p4710
aS'rho0:'
p4711
aS'1.0,'
p4712
aS'lagrangianRho:'
p4713
aS'0.5,'
p4714
aS'regParam:'
p4715
aS'1.0E-4,'
p4716
aS'runtimeMS:'
p4717
aS'20000,'
p4718
aS'displayIncrementalStats:'
p4719
aS'false,'
p4720
aS'adaptiveRho:'
p4721
aS'false,'
p4722
aS'broadcastDelayMS:'
p4723
aS'5,'
p4724
aS'usePorkChop:'
p4725
aS'false},'
p4726
aS'regType:'
p4727
aS'L2,'
p4728
aS'pointCloudDim:'
p4729
aS'10,'
p4730
aS'pointCloudNoise:'
p4731
aS'0.05,'
p4732
aS'pointCloudSkew:'
p4733
aS'0.1,'
p4734
aS'pointCloudPoints:'
p4735
aS'500000,'
p4736
aS'pointCloudSize:'
p4737
aS'1.0}'
p4738
aS'{iterations:'
p4739
aS'9285206.0,'
p4740
aS'msgsSent:'
p4741
aS'[3631.0,'
p4742
aS'3656.125,'
p4743
aS'3683.0],'
p4744
aS'avgMsgsRcvd:'
p4745
aS'[0.0,'
p4746
aS'0.0,'
p4747
aS'0.0],'
p4748
aS'runtime:'
p4749
aS'20812}'
p4750
asg90
F0.5
sg91
F281940002.02540368
sg92
g259
sg94
F0.0051202408616691881
sg95
S'cd /mnt/spark; sbin/stop-all.sh; sleep 5; sbin/start-all.sh; sleep 3;./bin/spark-submit --driver-memory 52g --class org.apache.spark.examples.mllib.research.SynchronousADMMTests examples/target/scala-*/spark-examples-*.jar --algorithm HOGWILDSVM --regType L2 --regParam 0.000100 --format cloud --numPartitions 40 --runtimeMS 20000 --ADMMmaxLocalIterations 1000 --ADMMepsilon 0.000001  --ADMMLocalepsilon 0.000001 --ADMMrho 1.000000 --ADMMLagrangianrho 0.500000 --broadcastDelayMs 5  --pointCloudPointsPerPartition 500000 --pointCloudPartitionSkew 0.100000 --pointCloudLabelNoise 0.050000 --pointCloudDimension 10   '
p4751
sg97
F0.10000000000000001
sg98
F0.50007674999999996
sg99
g4687
sg100
F20812.0
sa(dp4752
g2
I100
sg3
g4
sg5
I1000
sg6
F20000.0
sg7
F31.0
sg8
F303347768.10208875
sg9
F9.9999999999999995e-07
sg10
I40
sg11
S'--pointCloudPointsPerPartition 500000 --pointCloudPartitionSkew 0.100000 --pointCloudLabelNoise 0.050000 --pointCloudDimension 10 '
p4753
sg13
F1.0
sg14
F9.9999999999999995e-07
sg15
I10
sg16
F0.0001
sg17
g18
sg19
(lp4754
S'RESULT:'
p4755
aS'SVM'
p4756
aS'31'
p4757
aS'20000'
p4758
aS'20412'
p4759
aS'0.49992325'
p4760
aS'3.0334776810148036E8'
p4761
aS'6.083584904951768E-4'
p4762
aS'3.0334776810208875E8'
p4763
aS'0.6533551388463785,0.654075795484896,0.6545089381069203,0.6524044280585367,0.6518997121184604,0.6520900583800501,0.6527947912707446,0.6526440321563193,0.6505748257407118,-1.4997852441060033'
p4764
aS'{input:'
p4765
aS'null,'
p4766
aS'format:'
p4767
aS'cloud,'
p4768
aS'numPartitions:'
p4769
aS'40,'
p4770
aS'algorithm:'
p4771
aS'SVM,'
p4772
aS'algParams:'
p4773
aS'{eta0:'
p4774
aS'1.0,'
p4775
aS'tol:'
p4776
aS'1.0E-6,'
p4777
aS'workerTol:'
p4778
aS'1.0E-6,'
p4779
aS'maxIterations:'
p4780
aS'1000,'
p4781
aS'maxWorkerIterations:'
p4782
aS'1000,'
p4783
aS'miniBatchSize:'
p4784
aS'10,'
p4785
aS'useLBFGS:'
p4786
aS'false,'
p4787
aS'rho0:'
p4788
aS'1.0,'
p4789
aS'lagrangianRho:'
p4790
aS'0.5,'
p4791
aS'regParam:'
p4792
aS'1.0E-4,'
p4793
aS'runtimeMS:'
p4794
aS'20000,'
p4795
aS'displayIncrementalStats:'
p4796
aS'false,'
p4797
aS'adaptiveRho:'
p4798
aS'false,'
p4799
aS'broadcastDelayMS:'
p4800
aS'100,'
p4801
aS'usePorkChop:'
p4802
aS'false},'
p4803
aS'regType:'
p4804
aS'L2,'
p4805
aS'pointCloudDim:'
p4806
aS'10,'
p4807
aS'pointCloudNoise:'
p4808
aS'0.05,'
p4809
aS'pointCloudSkew:'
p4810
aS'0.1,'
p4811
aS'pointCloudPoints:'
p4812
aS'500000,'
p4813
aS'pointCloudSize:'
p4814
aS'1.0}'
p4815
aS'{iterations:'
p4816
aS'31,'
p4817
aS'runtime:'
p4818
aS'20412}'
p4819
asg90
F0.5
sg91
F303347768.10148036
sg92
g328
sg94
F0.00060835849049517684
sg95
S'cd /mnt/spark; sbin/stop-all.sh; sleep 5; sbin/start-all.sh; sleep 3;./bin/spark-submit --driver-memory 52g --class org.apache.spark.examples.mllib.research.SynchronousADMMTests examples/target/scala-*/spark-examples-*.jar --algorithm SVM --regType L2 --regParam 0.000100 --format cloud --numPartitions 40 --runtimeMS 20000 --ADMMmaxLocalIterations 1000 --ADMMepsilon 0.000001  --ADMMLocalepsilon 0.000001 --ADMMrho 1.000000 --ADMMLagrangianrho 0.500000 --broadcastDelayMs 100  --pointCloudPointsPerPartition 500000 --pointCloudPartitionSkew 0.100000 --pointCloudLabelNoise 0.050000 --pointCloudDimension 10   '
p4820
sg97
F0.10000000000000001
sg98
F0.49992324999999999
sg99
g4764
sg100
F20412.0
sa.