(lp0
(dp1
S'pr'
p2
F1.0
sS'training_loss'
p3
F705900.01742886612
sS'line'
p4
(lp5
S'RESULT:'
p6
aS'SVM'
p7
aS'1'
p8
aS'1851'
p9
aS'1.0'
p10
aS'0.9999999999999999'
p11
aS'705900.0174288661'
p12
aS'0.005623653539994673'
p13
aS'705900.0230525197'
p14
aS'-2.5011095192889417,-2.499550617154766,-2.4990093939502342,-2.4996693748686947,-2.4984643909035893,-2.497907764424793,-2.500043156336979,-2.5002066679214408,-2.5013439731450604,0.0'
p15
asS'reg_penalty'
p16
F0.0056236535399946733
sS'iterations'
p17
I1
sS'algorithm'
p18
S'SVM'
p19
sS'total_loss'
p20
g14
sS'roc'
p21
F0.99999999999999989
sS'model'
p22
g15
sS'runtime_ms'
p23
I1851
sa(dp24
g2
F1.0
sg3
F587364.93040423351
sg4
(lp25
S'RESULT:'
p26
aS'SVM'
p27
aS'6'
p28
aS'536'
p29
aS'1.0'
p30
aS'1.0000000000000002'
p31
aS'587364.9304042335'
p32
aS'0.004911004880190448'
p33
aS'587364.9353152384'
p34
aS'-2.326552502207891,-2.3214420982508694,-2.3214894398625354,-2.3255508001941974,-2.321389050973416,-2.320061775610573,-2.3251200186705314,-2.323897001137707,-2.329032630619455,0.712742562871157'
p35
asg16
F0.0049110048801904484
sg17
I6
sg18
g19
sg20
g34
sg21
F1.0000000000000002
sg22
g35
sg23
I536
sa(dp36
g2
F1.0
sg3
F517170.15323884407
sg4
(lp37
S'RESULT:'
p38
aS'SVM'
p39
aS'11'
p40
aS'740'
p41
aS'1.0'
p42
aS'1.0'
p43
aS'517170.15323884407'
p44
aS'0.004530525181287085'
p45
aS'517170.15776936925'
p46
aS'-2.214839118042447,-2.207556099135099,-2.207915046727639,-2.214209168289239,-2.207885452099965,-2.2060599738036637,-2.2134801143954,-2.2110544536810197,-2.218128962965935,1.13974276957594'
p47
asg16
F0.0045305251812870848
sg17
I11
sg18
g19
sg20
g46
sg21
F1.0
sg22
g47
sg23
I740
sa(dp48
g2
F1.0
sg3
F464292.13776297984
sg4
(lp49
S'RESULT:'
p50
aS'SVM'
p51
aS'16'
p52
aS'740'
p53
aS'1.0'
p54
aS'1.0'
p55
aS'464292.13776297984'
p56
aS'0.004265354144384548'
p57
aS'464292.14202833397'
p58
aS'-2.1256883166128495,-2.1168322862319755,-2.1177415570324194,-2.1253893239335695,-2.1174841369401127,-2.1153525973837293,-2.1244977430354632,-2.121504103495277,-2.129339747108137,1.4646121856581682'
p59
asg16
F0.0042653541443845476
sg17
I16
sg18
g19
sg20
g58
sg21
F1.0
sg22
g59
sg23
I740
sa(dp60
g2
F1.0
sg3
F421245.61983636708
sg4
(lp61
S'RESULT:'
p62
aS'SVM'
p63
aS'21'
p64
aS'858'
p65
aS'1.0'
p66
aS'1.0'
p67
aS'421245.6198363671'
p68
aS'0.004063463455895172'
p69
aS'421245.62389983056'
p70
aS'-2.049507423489459,-2.0392071553438713,-2.0409336643244957,-2.049496056346923,-2.0403996370992616,-2.0379860766531124,-2.048609178393927,-2.044882292393765,-2.053387121831032,1.7316419939177354'
p71
asg16
F0.0040634634558951721
sg17
I21
sg18
g19
sg20
g70
sg21
F1.0
sg22
g71
sg23
I858
sa(dp72
g2
F0.99999999999999989
sg3
F384778.21868544444
sg4
(lp73
S'RESULT:'
p74
aS'SVM'
p75
aS'26'
p76
aS'984'
p77
aS'0.9999999999999999'
p78
aS'1.0'
p79
aS'384778.21868544444'
p80
aS'0.0039025009544883973'
p81
aS'384778.2225879454'
p82
aS'-1.9822368417094136,-1.97068224503671,-1.97319798710297,-1.98224972686954,-1.972213222267329,-1.9694975587397539,-1.9816324159583918,-1.9769262544068307,-1.9859730806739548,1.9599986502290545'
p83
asg16
F0.0039025009544883973
sg17
I26
sg18
g19
sg20
g82
sg21
F1.0
sg22
g83
sg23
I984
sa(dp84
g2
F0.99999999999999989
sg3
F353122.94733149745
sg4
(lp85
S'RESULT:'
p86
aS'SVM'
p87
aS'31'
p88
aS'1117'
p89
aS'0.9999999999999999'
p90
aS'1.0'
p91
aS'353122.94733149745'
p92
aS'0.003770471790753431'
p93
aS'353122.9511019692'
p94
aS'-1.9216509998802513,-1.9089964767515788,-1.9119579075138549,-1.9214203762565791,-1.9106781853468313,-1.907631226502744,-1.92104709949972,-1.9153876186382026,-1.9249125332110328,2.1601158576832202'
p95
asg16
F0.0037704717907534311
sg17
I31
sg18
g19
sg20
g94
sg21
F1.0
sg22
g95
sg23
I1117
sa(dp96
g2
F1.0
sg3
F325236.81377871527
sg4
(lp97
S'RESULT:'
p98
aS'SVM'
p99
aS'36'
p100
aS'1151'
p101
aS'1.0'
p102
aS'1.0'
p103
aS'325236.81377871527'
p104
aS'0.00366001553981044'
p105
aS'325236.8174387308'
p106
aS'-1.8662089284607968,-1.8526375793447964,-1.8559336675788407,-1.8655127167478494,-1.8543425518044931,-1.8511012328725023,-1.865564613941544,-1.858907045512187,-1.8688036900150262,2.338176665695318'
p107
asg16
F0.0036600155398104398
sg17
I36
sg18
g19
sg20
g106
sg21
F1.0
sg22
g107
sg23
I1151
sa(dp108
g2
F1.0
sg3
F300382.32044833089
sg4
(lp109
S'RESULT:'
p110
aS'SVM'
p111
aS'41'
p112
aS'1136'
p113
aS'1.0'
p114
aS'1.0'
p115
aS'300382.3204483309'
p116
aS'0.003566284742867778'
p117
aS'300382.3240146156'
p118
aS'-1.8149460782692899,-1.8005050099764008,-1.8040524906647644,-1.813707646119092,-1.8022714431653533,-1.7988435888099903,-1.8141912906666333,-1.806712145629532,-1.8168618318853518,2.4984700742110415'
p119
asg16
F0.003566284742867778
sg17
I41
sg18
g19
sg20
g118
sg21
F1.0
sg22
g119
sg23
I1136
sa(dp120
g2
F1.0
sg3
F278019.01153741928
sg4
(lp121
S'RESULT:'
p122
aS'SVM'
p123
aS'46'
p124
aS'1162'
p125
aS'1.0'
p126
aS'1.0'
p127
aS'278019.0115374193'
p128
aS'0.0034859265731552328'
p129
aS'278019.0150233459'
p130
aS'-1.7671386867886019,-1.7517742823415245,-1.7557253845544933,-1.7653959636424,-1.7537537600183613,-1.750077277637179,-1.7664151885390573,-1.7579715144082733,-1.7685527929069806,2.644180543943313'
p131
asg16
F0.0034859265731552328
sg17
I46
sg18
g19
sg20
g130
sg21
F1.0
sg22
g131
sg23
I1162
sa(dp132
g2
F1.0
sg3
F257770.55422875399
sg4
(lp133
S'RESULT:'
p134
aS'SVM'
p135
aS'51'
p136
aS'1696'
p137
aS'1.0'
p138
aS'0.9999999999999998'
p139
aS'257770.554228754'
p140
aS'0.0034164562721913094'
p141
aS'257770.55764521027'
p142
aS'-1.722341755261814,-1.7060686278308215,-1.7104039371641495,-1.7200820916297577,-1.7083032027635239,-1.7043523419942745,-1.7215440274732592,-1.7123177897497248,-1.723343756301493,2.777497239364086'
p143
asg16
F0.0034164562721913094
sg17
I51
sg18
g19
sg20
g142
sg21
F0.99999999999999978
sg22
g143
sg23
I1696
sa(dp144
g2
F1.0
sg3
F239357.853687211
sg4
(lp145
S'RESULT:'
p146
aS'SVM'
p147
aS'56'
p148
aS'1410'
p149
aS'1.0'
p150
aS'1.0'
p151
aS'239357.853687211'
p152
aS'0.0033559863597631663'
p153
aS'239357.85704319735'
p154
aS'-1.6801228626408624,-1.6629862724461393,-1.667754532230729,-1.677420145281693,-1.6654978778606273,-1.661326018491347,-1.6791803030368342,-1.6694662891151213,-1.6808790236399918,2.900065189708613'
p155
asg16
F0.0033559863597631663
sg17
I56
sg18
g19
sg20
g154
sg21
F1.0
sg22
g155
sg23
I1410
sa(dp156
g2
F1.0
sg3
F222516.92607412671
sg4
(lp157
S'RESULT:'
p158
aS'SVM'
p159
aS'61'
p160
aS'1436'
p161
aS'1.0'
p162
aS'1.0'
p163
aS'222516.9260741267'
p164
aS'0.0033030985316371804'
p165
aS'222516.92937722523'
p166
aS'-1.6401106777470327,-1.6223741605625657,-1.6275046502456119,-1.63701170870385,-1.6250862788124607,-1.6207427376079602,-1.639031660404725,-1.6290575815011086,-1.6406692340276188,3.013400784000153'
p167
asg16
F0.0033030985316371804
sg17
I61
sg18
g19
sg20
g166
sg21
F1.0
sg22
g167
sg23
I1436
sa(dp168
g2
F1.0
sg3
F207082.85140579144
sg4
(lp169
S'RESULT:'
p170
aS'SVM'
p171
aS'66'
p172
aS'1484'
p173
aS'1.0'
p174
aS'0.9999999999999999'
p175
aS'207082.85140579144'
p176
aS'0.0032566258697897567'
p177
aS'207082.85466241732'
p178
aS'-1.6021553523121321,-1.5839702888594767,-1.589387589407568,-1.5986039465302193,-1.5867544149721584,-1.5823959793437408,-1.6009650259112933,-1.5908115440750037,-1.6025638842624412,3.118486743080391'
p179
asg16
F0.0032566258697897567
sg17
I66
sg18
g19
sg20
g178
sg21
F0.99999999999999989
sg22
g179
sg23
I1484
sa(dp180
g2
F1.0
sg3
F192905.37541731462
sg4
(lp181
S'RESULT:'
p182
aS'SVM'
p183
aS'71'
p184
aS'1880'
p185
aS'1.0'
p186
aS'1.0'
p187
aS'192905.37541731462'
p188
aS'0.0032156296164581244'
p189
aS'192905.37863294422'
p190
aS'-1.5660982551082085,-1.547558208398143,-1.5531549271695648,-1.5621353642776905,-1.550394123776006,-1.5460168672712822,-1.5647736070942944,-1.554558344943968,-1.566284229842607,3.2161832063108227'
p191
asg16
F0.0032156296164581244
sg17
I71
sg18
g19
sg20
g190
sg21
F1.0
sg22
g191
sg23
I1880
sa(dp192
g2
F0.99999999999999989
sg3
F179850.69962883173
sg4
(lp193
S'RESULT:'
p194
aS'SVM'
p195
aS'76'
p196
aS'1657'
p197
aS'0.9999999999999999'
p198
aS'1.0'
p199
aS'179850.69962883173'
p200
aS'0.0031793555733379735'
p201
aS'179850.7028081873'
p202
aS'-1.5318558431507086,-1.5128777729962033,-1.5187136492895752,-1.5273617998583926,-1.5157981838426777,-1.5113980652962218,-1.5303939251390937,-1.5200861391291773,-1.5316963224318894,3.307267713748783'
p203
asg16
F0.0031793555733379735
sg17
I76
sg18
g19
sg20
g202
sg21
F1.0
sg22
g203
sg23
I1657
sa(dp204
g2
F1.0000000000000002
sg3
F167819.34056591411
sg4
(lp205
S'RESULT:'
p206
aS'SVM'
p207
aS'81'
p208
aS'2171'
p209
aS'1.0000000000000002'
p210
aS'1.0'
p211
aS'167819.3405659141'
p212
aS'0.003147155511686604'
p213
aS'167819.34371306963'
p214
aS'-1.4992249653756786,-1.479858361791468,-1.4859626761870814,-1.4941129901098626,-1.4828493052119316,-1.478459622486872,-1.4976277306585035,-1.4872769384862001,-1.4987337464513566,3.3922958118988134'
p215
asg16
F0.0031471555116866041
sg17
I81
sg18
g19
sg20
g214
sg21
F1.0
sg22
g215
sg23
I2171
sa(dp216
g2
F1.0000000000000002
sg3
F156685.76632505225
sg4
(lp217
S'RESULT:'
p218
aS'SVM'
p219
aS'86'
p220
aS'2033'
p221
aS'1.0000000000000002'
p222
aS'1.0'
p223
aS'156685.76632505225'
p224
aS'0.0031185362639367642'
p225
aS'156685.7694435885'
p226
aS'-1.4680592571583329,-1.4483871030404096,-1.454679344539919,-1.462361930381097,-1.451414689506189,-1.447087049912219,-1.4662868254477743,-1.4558909578910681,-1.4672568211768113,3.4719765839861307'
p227
asg16
F0.0031185362639367642
sg17
I86
sg18
g19
sg20
g226
sg21
F1.0
sg22
g227
sg23
I2033
sa(dp228
g2
F1.0
sg3
F146367.2095347571
sg4
(lp229
S'RESULT:'
p230
aS'SVM'
p231
aS'91'
p232
aS'1954'
p233
aS'1.0'
p234
aS'1.0'
p235
aS'146367.2095347571'
p236
aS'0.003093060884365742'
p237
aS'146367.212627818'
p238
aS'-1.438183182852794,-1.418402804759282,-1.4246953107427447,-1.4319596569110447,-1.4213700581230064,-1.4171169480054706,-1.4363376527778196,-1.4259136275529063,-1.4371975727720707,3.5467958210942183'
p239
asg16
F0.003093060884365742
sg17
I91
sg18
g19
sg20
g238
sg21
F1.0
sg22
g239
sg23
I1954
sa(dp240
g2
F0.99999999999999989
sg3
F136822.0815891721
sg4
(lp241
S'RESULT:'
p242
aS'SVM'
p243
aS'96'
p244
aS'2088'
p245
aS'0.9999999999999999'
p246
aS'1.0'
p247
aS'136822.0815891721'
p248
aS'0.0030703158355167063'
p249
aS'136822.08465948794'
p250
aS'-1.409676621680603,-1.3897313438635819,-1.3959754924825198,-1.4028681718991083,-1.3926601969012389,-1.388446626237224,-1.4077606024317688,-1.3972346057801923,-1.408490324695655,3.616993831339142'
p251
asg16
F0.0030703158355167063
sg17
I96
sg18
g19
sg20
g250
sg21
F1.0
sg22
g251
sg23
I2088
sa(dp252
g2
F0.75
sg3
F400000.0
sg4
(lp253
S'RESULT:'
p254
aS'SVMADMM'
p255
ag8
aS'1925'
p256
aS'0.75'
p257
aS'0.5'
p258
aS'400000.0'
p259
aS'0.0'
p260
aS'400000.0'
p261
aS'0.0,0.0,0.0,0.0,0.0,0.0,0.0,0.0,0.0,0.0'
p262
asg16
F0.0
sg17
I1
sg18
S'SVMADMM'
p263
sg20
g261
sg21
F0.5
sg22
g262
sg23
I1925
sa(dp264
g2
F1.0
sg3
F619719.28098601231
sg4
(lp265
S'RESULT:'
p266
aS'SVMADMM'
p267
ag28
aS'928'
p268
aS'1.0'
p269
aS'1.0'
p270
aS'619719.2809860123'
p271
aS'0.005124009033039993'
p272
aS'619719.2861100213'
p273
aS'-2.381572561372211,-2.379016700669838,-2.3773958420711554,-2.3810845696555796,-2.374867458366014,-2.3765933111356374,-2.380954745884667,-2.3800115923977208,-2.383984591490968,0.5309735019741548'
p274
asg16
F0.0051240090330399932
sg17
I6
sg18
g263
sg20
g273
sg21
F1.0
sg22
g274
sg23
I928
sa(dp275
g2
F1.0
sg3
F351218.61274525675
sg4
(lp276
S'RESULT:'
p277
aS'SVMADMM'
p278
aS'11'
p279
aS'1025'
p280
aS'1.0'
p281
aS'1.0'
p282
aS'351218.61274525675'
p283
aS'0.003767947746625096'
p284
aS'351218.61651320447'
p285
aS'-1.9203295264677738,-1.9077710489832127,-1.9123200495046127,-1.9191155558445625,-1.9118133022139718,-1.9021021092522754,-1.9177354282356378,-1.9083727798940382,-1.9203080860625463,2.175327007733442'
p286
asg16
F0.0037679477466250962
sg17
I11
sg18
g263
sg20
g285
sg21
F1.0
sg22
g286
sg23
I1025
sa(dp287
g2
F1.0000000000000002
sg3
F125436.25824382063
sg4
(lp288
S'RESULT:'
p289
aS'SVMADMM'
p290
aS'16'
p291
aS'1084'
p292
aS'1.0000000000000002'
p293
aS'1.0'
p294
aS'125436.25824382063'
p295
aS'0.0030323682600618316'
p296
aS'125436.26127618889'
p297
aS'-1.370841949771922,-1.351220742454072,-1.3621417258576234,-1.3658614258879145,-1.3584969730840666,-1.3490127747974896,-1.368593651592657,-1.355386595034666,-1.371132684161847,3.6935341075009838'
p298
asg16
F0.0030323682600618316
sg17
I16
sg18
g263
sg20
g297
sg21
F1.0
sg22
g298
sg23
I1084
sa(dp299
g2
F1.0
sg3
F33641.000259839362
sg4
(lp300
S'RESULT:'
p301
aS'SVMADMM'
p302
aS'21'
p303
aS'1222'
p304
aS'1.0'
p305
aS'1.0'
p306
aS'33641.00025983936'
p307
aS'0.002870671568196495'
p308
aS'33641.00313051093'
p309
aS'-0.9867213687258755,-0.9644052627957683,-0.9754122186997662,-0.9730167098926565,-0.9711152414971382,-0.9647931333370663,-0.9894427720726914,-0.9721204015982317,-0.9824691926659735,4.487947995029226'
p310
asg16
F0.002870671568196495
sg17
I21
sg18
g263
sg20
g309
sg21
F1.0
sg22
g310
sg23
I1222
sa(dp311
g2
F1.0
sg3
F9561.5091344284738
sg4
(lp312
S'RESULT:'
p313
aS'SVMADMM'
p314
aS'26'
p315
aS'1476'
p316
aS'1.0'
p317
aS'1.0'
p318
aS'9561.509134428474'
p319
aS'0.0028546875132844903'
p320
aS'9561.511989115987'
p321
aS'-0.7857902058880482,-0.755448939173865,-0.7669996063233447,-0.7648483452517092,-0.7672422852271825,-0.7627516288808756,-0.7807607985639482,-0.7639633487557321,-0.7715483277665095,4.81938371388348'
p322
asg16
F0.0028546875132844903
sg17
I26
sg18
g263
sg20
g321
sg21
F1.0
sg22
g322
sg23
I1476
sa(dp323
g2
F0.99999999999999989
sg3
F3476.1361268404034
sg4
(lp324
S'RESULT:'
p325
aS'SVMADMM'
p326
aS'31'
p327
aS'1442'
p328
aS'0.9999999999999999'
p329
aS'0.9999999999999999'
p330
aS'3476.1361268404034'
p331
aS'0.0028584862849831984'
p332
aS'3476.1389853266883'
p333
aS'-0.6753073350880956,-0.6492769123148097,-0.6571917406630459,-0.6578533894613834,-0.6602593754971083,-0.655137427064368,-0.6723608239556123,-0.6541943566355137,-0.6685053431020133,4.964927397178057'
p334
asg16
F0.0028584862849831984
sg17
I31
sg18
g263
sg20
g333
sg21
F0.99999999999999989
sg22
g334
sg23
I1442
sa(dp335
g2
F1.0
sg3
F1649.522750788833
sg4
(lp336
S'RESULT:'
p337
aS'SVMADMM'
p338
aS'36'
p339
aS'1569'
p340
aS'1.0'
p341
aS'1.0'
p342
aS'1649.522750788833'
p343
aS'0.002862635669881611'
p344
aS'1649.5256134245028'
p345
aS'-0.6162340576510698,-0.5926369645991227,-0.5956179405223238,-0.5969798006239826,-0.6005592658782095,-0.5950770966119003,-0.6137530640426225,-0.5962558811585452,-0.6097800439144174,5.036408870974863'
p346
asg16
F0.0028626356698816112
sg17
I36
sg18
g263
sg20
g345
sg21
F1.0
sg22
g346
sg23
I1569
sa(dp347
g2
F0.99999999999999978
sg3
F919.80734077598618
sg4
(lp348
S'RESULT:'
p349
aS'SVMADMM'
p350
aS'41'
p351
aS'1758'
p352
aS'0.9999999999999998'
p353
aS'1.0'
p354
aS'919.8073407759862'
p355
aS'0.002866004947246121'
p356
aS'919.8102067809334'
p357
aS'-0.5782880787556808,-0.5579036686387748,-0.5572218599091021,-0.5597732689840085,-0.5634018876337485,-0.554834791068442,-0.5754697609768915,-0.5573233333008248,-0.5721133344445019,5.078994173028876'
p358
asg16
F0.0028660049472461211
sg17
I41
sg18
g263
sg20
g357
sg21
F1.0
sg22
g358
sg23
I1758
sa(dp359
g2
F1.0
sg3
F599.85018015636376
sg4
(lp360
S'RESULT:'
p361
aS'SVMADMM'
p362
aS'46'
p363
aS'1815'
p364
aS'1.0'
p365
aS'1.0'
p366
aS'599.8501801563638'
p367
aS'0.002868369153084621'
p368
aS'599.8530485255169'
p369
aS'-0.5543860643163345,-0.5354187635363342,-0.5335699838401123,-0.5352776213740723,-0.5401434179128398,-0.530031141800077,-0.5520181358110765,-0.5326974719644902,-0.5485289943834327,5.104546278644047'
p370
asg16
F0.0028683691530846209
sg17
I46
sg18
g263
sg20
g369
sg21
F1.0
sg22
g370
sg23
I1815
sa(dp371
g2
F1.0
sg3
F422.08759412558442
sg4
(lp372
S'RESULT:'
p373
aS'SVMADMM'
p374
aS'51'
p375
aS'1952'
p376
aS'1.0'
p377
aS'1.0'
p378
aS'422.0875941255844'
p379
aS'0.0028701757944459977'
p380
aS'422.09046430137886'
p381
aS'-0.5368764434783213,-0.5200869077901656,-0.5147272133922762,-0.5179979760759207,-0.5247921090817993,-0.511501386788891,-0.5333972224844674,-0.5136265292416025,-0.5312552513238171,5.122710986657596'
p382
asg16
F0.0028701757944459977
sg17
I51
sg18
g263
sg20
g381
sg21
F1.0
sg22
g382
sg23
I1952
sa(dp383
g2
F1.0
sg3
F320.3498598941195
sg4
(lp384
S'RESULT:'
p385
aS'SVMADMM'
p386
aS'56'
p387
aS'2024'
p388
aS'1.0'
p389
aS'1.0'
p390
aS'320.3498598941195'
p391
aS'0.002871365842131259'
p392
aS'320.3527312599616'
p393
aS'-0.5252371312147565,-0.5078682002331015,-0.5025767266483856,-0.5063974377710877,-0.5118126766809723,-0.4984928108713406,-0.5191903422168684,-0.5009415237344463,-0.5176532496018447,5.135359707982527'
p394
asg16
F0.0028713658421312591
sg17
I56
sg18
g263
sg20
g393
sg21
F1.0
sg22
g394
sg23
I2024
sa(dp395
g2
F1.0
sg3
F254.71786663705311
sg4
(lp396
S'RESULT:'
p397
aS'SVMADMM'
p398
aS'61'
p399
aS'2261'
p400
aS'1.0'
p401
aS'1.0000000000000002'
p402
aS'254.7178666370531'
p403
aS'0.002872369836053357'
p404
aS'254.72073900688915'
p405
aS'-0.5154614860561759,-0.4992031596273036,-0.49375432256152707,-0.4970587332382096,-0.5022414378896228,-0.48839436781897183,-0.509185291665491,-0.49054210138831794,-0.5077255470400072,5.144849010511109'
p406
asg16
F0.0028723698360533568
sg17
I61
sg18
g263
sg20
g405
sg21
F1.0000000000000002
sg22
g406
sg23
I2261
sa(dp407
g2
F1.0
sg3
F207.72222447805598
sg4
(lp408
S'RESULT:'
p409
aS'SVMADMM'
p410
aS'66'
p411
aS'2377'
p412
aS'1.0'
p413
aS'1.0'
p414
aS'207.72222447805598'
p415
aS'0.002873187983448604'
p416
aS'207.72509766603943'
p417
aS'-0.507111156751731,-0.4909936720669746,-0.485571038566934,-0.48927454778816065,-0.49434740883720385,-0.4804401318176993,-0.49963038385630376,-0.4825127351220216,-0.4990206578554105,5.152844044669606'
p418
asg16
F0.0028731879834486039
sg17
I66
sg18
g263
sg20
g417
sg21
F1.0
sg22
g418
sg23
I2377
sa(dp419
g2
F1.0
sg3
F174.22681430947148
sg4
(lp420
S'RESULT:'
p421
aS'SVMADMM'
p422
aS'71'
p423
aS'2517'
p424
aS'1.0'
p425
aS'1.0'
p426
aS'174.22681430947148'
p427
aS'0.0028738184435964167'
p428
aS'174.22968812791507'
p429
aS'-0.5001738918598079,-0.4839498927507751,-0.4794501218015432,-0.4826241598360012,-0.48758726080917403,-0.47435802461810506,-0.49193083986024827,-0.474975664750991,-0.491235127919344,5.159393167765314'
p430
asg16
F0.0028738184435964167
sg17
I71
sg18
g263
sg20
g429
sg21
F1.0
sg22
g430
sg23
I2517
sa(dp431
g2
F1.0
sg3
F152.63234325007812
sg4
(lp432
S'RESULT:'
p433
aS'SVMADMM'
p434
aS'76'
p435
aS'3003'
p436
aS'1.0'
p437
aS'1.0'
p438
aS'152.63234325007812'
p439
aS'0.002874355953951235'
p440
aS'152.63521760603209'
p441
aS'-0.49504339367532973,-0.4782509563649582,-0.4746738377281053,-0.4774036059728313,-0.4830766830831285,-0.4691780211032559,-0.48654403125628487,-0.46947871289887455,-0.48648918169671085,5.164226947768483'
p442
asg16
F0.0028743559539512352
sg17
I76
sg18
g263
sg20
g441
sg21
F1.0
sg22
g442
sg23
I3003
sa(dp443
g2
F1.0
sg3
F132.79307063499118
sg4
(lp444
S'RESULT:'
p445
aS'SVMADMM'
p446
aS'81'
p447
aS'2782'
p448
aS'1.0'
p449
aS'1.0'
p450
aS'132.79307063499118'
p451
aS'0.002874914685399002'
p452
aS'132.7959455496766'
p453
aS'-0.49068638262803543,-0.4731498396666366,-0.4695294954656093,-0.4719299759218328,-0.4780330405409328,-0.46407923786229993,-0.48090688071496995,-0.464625058203992,-0.48096078257821967,5.169039643295369'
p454
asg16
F0.002874914685399002
sg17
I81
sg18
g263
sg20
g453
sg21
F1.0
sg22
g454
sg23
I2782
sa(dp455
g2
F1.0
sg3
F121.80513747613185
sg4
(lp456
S'RESULT:'
p457
aS'SVMADMM'
p458
aS'86'
p459
aS'3025'
p460
aS'1.0'
p461
aS'1.0'
p462
aS'121.80513747613185'
p463
aS'0.0028752130000838446'
p464
aS'121.80801268913193'
p465
aS'-0.4877503382974243,-0.46986813706109126,-0.46600669039955467,-0.46898906947906754,-0.47487232469839696,-0.4608590875274012,-0.47787125353279697,-0.46185588351060086,-0.47759616677753935,5.171912203952028'
p466
asg16
F0.0028752130000838446
sg17
I86
sg18
g263
sg20
g465
sg21
F1.0
sg22
g466
sg23
I3025
sa(dp467
g2
F1.0
sg3
F110.95379140332588
sg4
(lp468
S'RESULT:'
p469
aS'SVMADMM'
p470
aS'91'
p471
aS'3280'
p472
aS'1.0'
p473
aS'1.0'
p474
aS'110.95379140332588'
p475
aS'0.0028755189583709742'
p476
aS'110.95666692228426'
p477
aS'-0.48389909305441015,-0.4665220140791437,-0.4625779100279762,-0.4655855153559716,-0.4715891436239018,-0.4569532688651597,-0.4747551724013268,-0.45878172504650705,-0.4739082692421546,5.175033861140449'
p478
asg16
F0.0028755189583709742
sg17
I91
sg18
g263
sg20
g477
sg21
F1.0
sg22
g478
sg23
I3280
sa(dp479
g2
F1.0
sg3
F108.8051213688223
sg4
(lp480
S'RESULT:'
p481
aS'SVMADMM'
p482
aS'96'
p483
aS'3544'
p484
aS'1.0'
p485
aS'1.0'
p486
aS'108.8051213688223'
p487
aS'0.0028755107871876393'
p488
aS'108.80799687960949'
p489
aS'-0.4831530918619099,-0.4659319343899831,-0.46166589639443717,-0.46493309975020075,-0.47085651685694163,-0.4562915665928201,-0.4740367026147181,-0.4580704763890703,-0.4730356523286885,5.175622693814699'
p490
asg16
F0.0028755107871876393
sg17
I96
sg18
g263
sg20
g489
sg21
F1.0
sg22
g490
sg23
I3544
sa(dp491
g2
F1.0
sg3
F213191.63614807295
sg4
(lp492
S'RESULT:'
p493
aS'SVMADMMAsync'
p494
ag8
aS'3428'
p495
aS'1.0'
p496
aS'1.0'
p497
aS'213191.63614807295'
p498
aS'2.573895675997055E-5'
p499
aS'213191.63617381192'
p500
aS'-0.02082969879576676,-0.02092633575283552,-0.020589572148398107,-0.020672440868368388,-0.020775845244823267,-0.0208171862800251,-0.020683278349759165,-0.020685228191845508,-0.020851094661165994,0.5034988218651232'
p501
asg16
F2.5738956759970549e-05
sg17
I1
sg18
S'SVMADMMAsync'
p502
sg20
g500
sg21
F1.0
sg22
g501
sg23
I3428
sa(dp503
g2
F1.0
sg3
F281728.84892695153
sg4
(lp504
S'RESULT:'
p505
aS'SVMADMMAsync'
p506
ag28
aS'6797'
p507
aS'1.0'
p508
aS'1.0'
p509
aS'281728.8489269515'
p510
aS'1.6312309397741783E-7'
p511
aS'281728.8489271146'
p512
aS'-0.013284148638859189,-0.013083801799264036,-0.012998303253328134,-0.013081616142865682,-0.013196994491091385,-0.01315792744990705,-0.01323243482468967,-0.01310900174085366,-0.013141000895650881,0.00875048660772124'
p513
asg16
F1.6312309397741783e-07
sg17
I6
sg18
g502
sg20
g512
sg21
F1.0
sg22
g513
sg23
I6797
sa(dp514
g2
F1.0
sg3
F285138.23774184892
sg4
(lp515
S'RESULT:'
p516
aS'SVMADMMAsync'
p517
aS'11'
p518
aS'11728'
p519
aS'1.0'
p520
aS'1.0'
p521
aS'285138.2377418489'
p522
aS'1.4696910391965964E-7'
p523
aS'285138.2377419959'
p524
aS'-0.012738237842021688,-0.012766864724183338,-0.012825277074819555,-0.012768859141645755,-0.01283676472875791,-0.01265267779876066,-0.01275953019236776,-0.012773263658772505,-0.012754040481285079,0.0018449382538577516'
p525
asg16
F1.4696910391965964e-07
sg17
I11
sg18
g502
sg20
g524
sg21
F1.0
sg22
g525
sg23
I11728
sa(dp526
g2
F1.0
sg3
F287212.37337488966
sg4
(lp527
S'RESULT:'
p528
aS'SVMADMMAsync'
p529
aS'16'
p530
aS'16788'
p531
aS'1.0'
p532
aS'1.0'
p533
aS'287212.37337488966'
p534
aS'1.4140636733061856E-7'
p535
aS'287212.37337503105'
p536
aS'-0.012509339151275231,-0.012525476546337792,-0.012490581533171155,-0.012516233721328554,-0.01262101660915527,-0.012437279635222344,-0.012540899807913102,-0.012559191231028523,-0.012601044872848868,-5.0203760564581E-4'
p537
asg16
F1.4140636733061856e-07
sg17
I16
sg18
g502
sg20
g536
sg21
F1.0
sg22
g537
sg23
I16788
sa(dp538
g2
F1.0000000000000002
sg3
F288498.89194304642
sg4
(lp539
S'RESULT:'
p540
aS'SVMADMMAsync'
p541
aS'21'
p542
aS'21729'
p543
aS'1.0000000000000002'
p544
aS'1.0'
p545
aS'288498.8919430464'
p546
aS'1.384126155694953E-7'
p547
aS'288498.89194318483'
p548
aS'-0.012448969606190427,-0.012366168899274173,-0.012418622252287412,-0.012406268851560216,-0.012306021136374861,-0.012359860171437639,-0.012414061929032539,-0.012415043459753923,-0.01237935834071573,-0.0015473986079371851'
p549
asg16
F1.3841261556949531e-07
sg17
I21
sg18
g502
sg20
g548
sg21
F1.0
sg22
g549
sg23
I21729
sa(dp550
g2
F1.0
sg3
F288460.42035173834
sg4
(lp551
S'RESULT:'
p552
aS'SVMADMMAsync'
p553
aS'26'
p554
aS'26697'
p555
aS'1.0'
p556
aS'1.0'
p557
aS'288460.42035173834'
p558
aS'1.3860476078843917E-7'
p559
aS'288460.42035187694'
p560
aS'-0.012441458089996252,-0.012381850035644548,-0.012387131581791857,-0.012395853723851876,-0.012402209689557651,-0.01234222173709855,-0.012322292983040436,-0.012463386595285269,-0.012416456064869796,-0.0018332392698657946'
p561
asg16
F1.3860476078843917e-07
sg17
I26
sg18
g502
sg20
g560
sg21
F1.0
sg22
g561
sg23
I26697
sa(dp562
g2
F1.0
sg3
F289968.68458214862
sg4
(lp563
S'RESULT:'
p564
aS'SVMADMMAsync'
p565
aS'31'
p566
aS'31799'
p567
aS'1.0'
p568
aS'1.0'
p569
aS'289968.6845821486'
p570
aS'1.350822607897361E-7'
p571
aS'289968.6845822837'
p572
aS'-0.012264853000023388,-0.012258935439154576,-0.012184376011737948,-0.01224060722780377,-0.012185534383618244,-0.012154866673542155,-0.012398687938738643,-0.012191591171630297,-0.012164966297364098,-0.0022904610022246056'
p573
asg16
F1.350822607897361e-07
sg17
I31
sg18
g502
sg20
g572
sg21
F1.0
sg22
g573
sg23
I31799
sa(dp574
g2
F1.0
sg3
F290298.43249133282
sg4
(lp575
S'RESULT:'
p576
aS'SVMADMMAsync'
p577
aS'36'
p578
aS'36691'
p579
aS'1.0'
p580
aS'1.0'
p581
aS'290298.4324913328'
p582
aS'1.3428586987443498E-7'
p583
aS'290298.4324914671'
p584
aS'-0.012212114034624048,-0.012127267928901325,-0.012198452730976143,-0.012170992903161,-0.012205006680790612,-0.012236148130792384,-0.012217254637941728,-0.012130936707794299,-0.01221655298745263,-0.0023165518562682196'
p585
asg16
F1.3428586987443498e-07
sg17
I36
sg18
g502
sg20
g584
sg21
F1.0
sg22
g585
sg23
I36691
sa(dp586
g2
F1.0
sg3
F292237.20598517504
sg4
(lp587
S'RESULT:'
p588
aS'SVMADMMAsync'
p589
aS'41'
p590
aS'41774'
p591
aS'1.0'
p592
aS'1.0'
p593
aS'292237.20598517504'
p594
aS'1.2964163905176587E-7'
p595
aS'292237.20598530467'
p596
aS'-0.012008930895364919,-0.011991022565272645,-0.011952722730004885,-0.011950882071859808,-0.012030015095691283,-0.011956769210315493,-0.011936283063512177,-0.012012330500838555,-0.011936760091827616,-0.0024048725696873092'
p597
asg16
F1.2964163905176587e-07
sg17
I41
sg18
g502
sg20
g596
sg21
F1.0
sg22
g597
sg23
I41774
sa(dp598
g2
F1.0
sg3
F291286.83465710853
sg4
(lp599
S'RESULT:'
p600
aS'SVMADMMAsync'
p601
aS'46'
p602
aS'46747'
p603
aS'1.0'
p604
aS'1.0'
p605
aS'291286.8346571085'
p606
aS'1.3193151268915852E-7'
p607
aS'291286.8346572405'
p608
aS'-0.012078295732038571,-0.01203666202146746,-0.012052476828184907,-0.012048954520720488,-0.012084194180443902,-0.0120935294536757,-0.012099136139609935,-0.012136505760318085,-0.01209641166194585,-0.0024126577912620137'
p609
asg16
F1.3193151268915852e-07
sg17
I46
sg18
g502
sg20
g608
sg21
F1.0
sg22
g609
sg23
I46747
sa(dp610
g2
F1.0
sg3
F293114.34706981305
sg4
(lp611
S'RESULT:'
p612
aS'SVMADMMAsync'
p613
aS'51'
p614
aS'51750'
p615
aS'1.0'
p616
aS'1.0'
p617
aS'293114.34706981305'
p618
aS'1.2751309722357368E-7'
p619
aS'293114.3470699406'
p620
aS'-0.011922045390005522,-0.011852361732190562,-0.011875372063593088,-0.01187041906881382,-0.01186519561837852,-0.011837136083801516,-0.01187859307901706,-0.011857771889442627,-0.011939463519568537,-0.002329558375058104'
p621
asg16
F1.2751309722357368e-07
sg17
I51
sg18
g502
sg20
g620
sg21
F1.0
sg22
g621
sg23
I51750
sa(dp622
g2
F0.99999999999999989
sg3
F293532.57308539277
sg4
(lp623
S'RESULT:'
p624
aS'SVMADMMAsync'
p625
aS'56'
p626
aS'56876'
p627
aS'0.9999999999999999'
p628
aS'1.0'
p629
aS'293532.57308539277'
p630
aS'1.2653529002011823E-7'
p631
aS'293532.5730855193'
p632
aS'-0.011769977090812239,-0.011848647843431512,-0.011840839144443433,-0.011865849405892864,-0.011780223590645154,-0.011809880446260348,-0.011794390783894477,-0.011856307783791561,-0.011914009128787697,-0.002357113541764198'
p633
asg16
F1.2653529002011823e-07
sg17
I56
sg18
g502
sg20
g632
sg21
F1.0
sg22
g633
sg23
I56876
sa(dp634
g2
F1.0
sg3
F294829.04999112501
sg4
(lp635
S'RESULT:'
p636
aS'SVMADMMAsync'
p637
aS'61'
p638
aS'61796'
p639
aS'1.0'
p640
aS'1.0'
p641
aS'294829.049991125'
p642
aS'1.2347151287732603E-7'
p643
aS'294829.04999124847'
p644
aS'-0.011653930246963174,-0.011664402693571711,-0.011668973072046219,-0.011670982917965209,-0.011764159407304983,-0.011746436981941376,-0.011659633508152044,-0.011650178067065677,-0.011704944723724832,-0.0023264375537251436'
p645
asg16
F1.2347151287732603e-07
sg17
I61
sg18
g502
sg20
g644
sg21
F1.0
sg22
g645
sg23
I61796
sa(dp646
g2
F1.0
sg3
F297825.9440579802
sg4
(lp647
S'RESULT:'
p648
aS'SVMADMMAsync'
p649
aS'66'
p650
aS'66885'
p651
aS'1.0'
p652
aS'1.0'
p653
aS'297825.9440579802'
p654
aS'1.1652283661028562E-7'
p655
aS'297825.94405809673'
p656
aS'-0.011330953162281504,-0.011391057683397075,-0.011372473200448423,-0.011285803416740304,-0.011272012216084861,-0.011409352020215887,-0.011307312891778889,-0.011387040173898239,-0.011430259666104566,-0.0022308626637302545'
p657
asg16
F1.1652283661028562e-07
sg17
I66
sg18
g502
sg20
g656
sg21
F1.0
sg22
g657
sg23
I66885
sa(dp658
g2
F1.0
sg3
F315141.94543178898
sg4
(lp659
S'RESULT:'
p660
aS'SVMADMMAsync'
p661
aS'71'
p662
aS'72117'
p663
aS'1.0'
p664
aS'1.0'
p665
aS'315141.945431789'
p666
aS'8.036915338949376E-8'
p667
aS'315141.94543186936'
p668
aS'-0.009386669111572411,-0.009479154467396262,-0.009429552696627253,-0.009396538221062152,-0.009479312056785323,-0.009387354844392277,-0.009483285817053618,-0.009437467767824408,-0.009388924269648376,-0.001840113618063142'
p669
asg16
F8.0369153389493763e-08
sg17
I71
sg18
g502
sg20
g668
sg21
F1.0
sg22
g669
sg23
I72117
sa(dp670
g2
F1.0
sg3
F350115.97996771923
sg4
(lp671
S'RESULT:'
p672
aS'SVMADMMAsync'
p673
aS'76'
p674
aS'76977'
p675
aS'1.0'
p676
aS'1.0'
p677
aS'350115.97996771923'
p678
aS'2.777775529245785E-8'
p679
aS'350115.979967747'
p680
aS'-0.005563612856616534,-0.005563636722199534,-0.005567387860506642,-0.005543421600987955,-0.005557198168526258,-0.005527240370977063,-0.005478003417622941,-0.005472872243094033,-0.005616589631502313,-0.0010975481628605621'
p681
asg16
F2.7777755292457849e-08
sg17
I76
sg18
g502
sg20
g680
sg21
F1.0
sg22
g681
sg23
I76977
sa(dp682
g2
F1.0000000000000002
sg3
F348577.50435007917
sg4
(lp683
S'RESULT:'
p684
aS'SVMADMMAsync'
p685
aS'81'
p686
aS'81988'
p687
aS'1.0000000000000002'
p688
aS'0.9999999999999999'
p689
aS'348577.50435007917'
p690
aS'2.9513117754756614E-8'
p691
aS'348577.5043501087'
p692
aS'-0.005693664526596624,-0.0056826928798635375,-0.005682020265427882,-0.005726000429609716,-0.005779015455356929,-0.005693070542374668,-0.005820672435933162,-0.0056585665587535515,-0.005692981345468862,-0.0011091513345007561'
p693
asg16
F2.9513117754756614e-08
sg17
I81
sg18
g502
sg20
g692
sg21
F0.99999999999999989
sg22
g693
sg23
I81988
sa(dp694
g2
F1.0
sg3
F370337.76986773999
sg4
(lp695
S'RESULT:'
p696
aS'SVMADMMAsync'
p697
aS'86'
p698
aS'86743'
p699
aS'1.0'
p700
aS'1.0'
p701
aS'370337.76986774'
p702
aS'9.820986532074462E-9'
p703
aS'370337.7698677498'
p704
aS'-0.0033210425317783754,-0.0032526305346380763,-0.003202613578454612,-0.0033294988019508002,-0.0033060217361520054,-0.003299553982412907,-0.0032888326159157127,-0.00338193768252585,-0.0032836092710622163,-6.370179833714266E-4'
p705
asg16
F9.8209865320744623e-09
sg17
I86
sg18
g502
sg20
g704
sg21
F1.0
sg22
g705
sg23
I86743
sa(dp706
g2
F1.0
sg3
F378285.9957524591
sg4
(lp707
S'RESULT:'
p708
aS'SVMADMMAsync'
p709
aS'91'
p710
aS'91902'
p711
aS'1.0'
p712
aS'0.9999999999999999'
p713
aS'378285.9957524591'
p714
aS'5.2657606363588376E-9'
p715
aS'378285.99575246434'
p716
aS'-0.002374392744285119,-0.002552759130445804,-0.002481706325855885,-0.0023654378849593373,-0.0024199859846102964,-0.0023657140272748687,-0.00241473879877051,-0.0024283299271462048,-0.002313620811490863,-4.6432490857760455E-4'
p717
asg16
F5.2657606363588376e-09
sg17
I91
sg18
g502
sg20
g716
sg21
F0.99999999999999989
sg22
g717
sg23
I91902
sa(dp718
g2
F1.0
sg3
F355588.87053104304
sg4
(lp719
S'RESULT:'
p720
aS'SVMADMMAsync'
p721
aS'96'
p722
aS'97041'
p723
aS'1.0'
p724
aS'1.0'
p725
aS'355588.87053104304'
p726
aS'2.201500277550328E-8'
p727
aS'355588.87053106504'
p728
aS'-0.0049157743831121006,-0.004917522194030408,-0.005027941445527518,-0.0049107740023134295,-0.004883080360521162,-0.004880710839973886,-0.005016796922344558,-0.004916814121151727,-0.004946990744206013,-9.619911450373753E-4'
p729
asg16
F2.2015002775503281e-08
sg17
I96
sg18
g502
sg20
g728
sg21
F1.0
sg22
g729
sg23
I97041
sa.