(lp0
(dp1
S'training_loss'
p2
Fnan
sS'line'
p3
(lp4
S'RESULT:'
p5
aS'SVM'
p6
aS'1'
p7
aS'4156'
p8
aS'0.0'
p9
aS'NaN'
p10
aS'NaN'
p11
aS'NaN'
p12
aS'NaN,NaN,NaN,NaN,NaN,NaN,NaN,NaN,NaN,NaN,NaN,NaN,NaN,NaN,NaN,NaN,NaN,NaN,NaN,NaN,NaN,NaN,NaN,NaN,NaN,NaN,NaN,NaN,NaN,NaN,NaN,NaN,NaN,NaN,NaN,NaN,NaN,NaN,NaN,NaN,NaN,NaN,NaN,NaN,NaN,NaN,NaN,NaN,NaN,NaN,NaN,NaN,NaN,NaN,NaN,NaN,NaN,NaN,NaN,NaN,NaN,NaN,NaN,NaN,NaN,NaN,NaN,NaN,NaN,NaN,NaN,NaN,NaN,NaN,NaN,NaN,NaN,NaN,NaN,NaN,NaN,NaN,NaN,NaN,NaN,NaN,NaN,NaN,NaN,NaN,NaN,NaN,NaN,NaN,NaN,NaN,NaN,NaN,NaN,NaN'
p13
asS'reg_penalty'
p14
Fnan
sS'command'
p15
S'cd /mnt/spark; sbin/stop-all.sh; sleep 5; sbin/start-all.sh;./bin/spark-submit --class org.apache.spark.examples.mllib.research.SynchronousADMMTests examples/target/scala-*/spark-examples-*.jar --algorithm SVM --regType L2 --regParam 0.000100 --format cloud --numPartitions 40 --runtimeMS 5 --pointCloudPointsPerPartition 100000 --pointCloudPartitionSkew 0.000000 --pointCloudLabelNoise 0.200000 --pointCloudDimension 100  --ADMMmaxLocalIterations 500 '
p16
sS'iterations'
p17
I1
sS'algorithm'
p18
S'SVM'
p19
sS'training_error'
p20
F0.0
sS'total_loss'
p21
g12
sS'model'
p22
g13
sS'runtime_ms'
p23
I4156
sa(dp24
g2
F4000000.0
sg3
(lp25
S'RESULT:'
p26
aS'SVMADMM'
p27
ag7
aS'4054'
p28
aS'1.0'
p29
aS'4000000.0'
p30
aS'0.0'
p31
aS'4000000.0'
p32
aS'0.0,0.0,0.0,0.0,0.0,0.0,0.0,0.0,0.0,0.0,0.0,0.0,0.0,0.0,0.0,0.0,0.0,0.0,0.0,0.0,0.0,0.0,0.0,0.0,0.0,0.0,0.0,0.0,0.0,0.0,0.0,0.0,0.0,0.0,0.0,0.0,0.0,0.0,0.0,0.0,0.0,0.0,0.0,0.0,0.0,0.0,0.0,0.0,0.0,0.0,0.0,0.0,0.0,0.0,0.0,0.0,0.0,0.0,0.0,0.0,0.0,0.0,0.0,0.0,0.0,0.0,0.0,0.0,0.0,0.0,0.0,0.0,0.0,0.0,0.0,0.0,0.0,0.0,0.0,0.0,0.0,0.0,0.0,0.0,0.0,0.0,0.0,0.0,0.0,0.0,0.0,0.0,0.0,0.0,0.0,0.0,0.0,0.0,0.0,0.0'
p33
asg14
F0.0
sg15
S'cd /mnt/spark; sbin/stop-all.sh; sleep 5; sbin/start-all.sh;./bin/spark-submit --class org.apache.spark.examples.mllib.research.SynchronousADMMTests examples/target/scala-*/spark-examples-*.jar --algorithm SVMADMM --regType L2 --regParam 0.000100 --format cloud --numPartitions 40 --runtimeMS 5 --pointCloudPointsPerPartition 100000 --pointCloudPartitionSkew 0.000000 --pointCloudLabelNoise 0.200000 --pointCloudDimension 100  --ADMMmaxLocalIterations 500 '
p34
sg17
I1
sg18
S'SVMADMM'
p35
sg20
F1.0
sg21
g32
sg22
g33
sg23
I4054
sa(dp36
g2
F2797155.3993477626
sg3
(lp37
S'RESULT:'
p38
aS'SVMADMMAsync'
p39
aS'205'
p40
aS'5775'
p41
aS'0.199879'
p42
aS'2797155.3993477626'
p43
aS'3.3549014191342403E-6'
p44
aS'2797155.3993511177'
p45
aS'-0.003991205075436064,-0.004493966388648068,-0.003919005790768276,-0.0025883343756469253,-0.004839829425548498,-0.003365703937409311,-0.004484442754011219,-0.003175815776879332,-0.002641670024649031,-0.004177965770117564,-0.005096487719159606,-0.003151528926798269,-0.0030706766393898697,-0.002432827489684675,-0.002906832327690144,-0.004463223044412079,-0.005302840720590916,-0.004815084826380467,-0.0038666084930325207,-0.0027740503621712996,-0.0024665337751552936,-0.004863680981677147,-0.003829427872341202,-0.0034388954108025174,-0.003119131312761537,-0.00305472505541299,-0.003930320327259712,-0.0036765169836355154,-0.00307792098723942,-0.0031488674672453787,-0.004171469042414912,-0.0032558724995704145,-0.00382510937794226,-0.004410359081847683,-0.0032265120280738904,-0.0049031834710102805,-0.003226368606268818,-0.004127813142128276,-0.004178657474323046,-0.0033313154531699443,-0.0039040473029781724,-0.0019023105095334022,-0.0037479715357113096,-0.002693679511211294,-0.002925371147567557,-0.005224238071461264,-0.002375519899365594,-0.0029839105674782846,-0.003439700425994307,-0.0014819484723585605,-0.0032310050311852795,-0.003960672499393156,-0.0036553897978456587,-0.0015715897808251838,-0.0030190958259737593,-0.004872768975750625,-0.003826336845016282,-0.0021866738852613964,-0.002647093372221427,-0.0031649279745411406,-0.004610832257674528,-0.0016055182033738707,-0.0026792161237124586,-0.003406669226964181,-0.003988478513565307,-6.875513206185268E-4,-0.0033791639422656506,-0.0017082628226980628,-0.004967219724729773,-0.001592465523386405,-0.0038009632466552024,-0.00276803486046543,-0.003614073398094078,-0.004824291074147695,-0.004688964592673122,-0.003021428157476736,-0.003389080142590469,-0.005698073420694134,-0.003661783528540977,-0.0030405235145148585,-0.0034388174858449687,-0.005164576778166259,-0.003862157417043751,-0.0027818982762500013,-0.0036723151584099173,-0.0031761659560539265,-0.002194030757503741,-0.00396228183839652,-0.0060605368948241,-0.00269282996911221,-0.0027952281231419175,-0.0045934220268789025,-0.0026760557556053262,-0.0029806705275775606,-0.002862909147006398,-0.0033121939455919543,-8.221664413347469E-4,-0.0036618800687238523,-0.003736967021631725,0.17960434895252325'
p46
asg14
F3.3549014191342403e-06
sg15
S'cd /mnt/spark; sbin/stop-all.sh; sleep 5; sbin/start-all.sh;./bin/spark-submit --class org.apache.spark.examples.mllib.research.SynchronousADMMTests examples/target/scala-*/spark-examples-*.jar --algorithm SVMADMMAsync --regType L2 --regParam 0.000100 --format cloud --numPartitions 40 --runtimeMS 5 --pointCloudPointsPerPartition 100000 --pointCloudPartitionSkew 0.000000 --pointCloudLabelNoise 0.200000 --pointCloudDimension 100  --ADMMmaxLocalIterations 500 '
p47
sg17
I205
sg18
S'SVMADMMAsync'
p48
sg20
F0.199879
sg21
g45
sg22
g46
sg23
I5775
sa(dp49
g2
Fnan
sg3
(lp50
S'RESULT:'
p51
aS'SVM'
p52
ag7
aS'4035'
p53
aS'0.0'
p54
aS'NaN'
p55
aS'NaN'
p56
aS'NaN'
p57
aS'NaN,NaN,NaN,NaN,NaN,NaN,NaN,NaN,NaN,NaN,NaN,NaN,NaN,NaN,NaN,NaN,NaN,NaN,NaN,NaN,NaN,NaN,NaN,NaN,NaN,NaN,NaN,NaN,NaN,NaN,NaN,NaN,NaN,NaN,NaN,NaN,NaN,NaN,NaN,NaN,NaN,NaN,NaN,NaN,NaN,NaN,NaN,NaN,NaN,NaN,NaN,NaN,NaN,NaN,NaN,NaN,NaN,NaN,NaN,NaN,NaN,NaN,NaN,NaN,NaN,NaN,NaN,NaN,NaN,NaN,NaN,NaN,NaN,NaN,NaN,NaN,NaN,NaN,NaN,NaN,NaN,NaN,NaN,NaN,NaN,NaN,NaN,NaN,NaN,NaN,NaN,NaN,NaN,NaN,NaN,NaN,NaN,NaN,NaN,NaN'
p58
asg14
Fnan
sg15
S'cd /mnt/spark; sbin/stop-all.sh; sleep 5; sbin/start-all.sh;./bin/spark-submit --class org.apache.spark.examples.mllib.research.SynchronousADMMTests examples/target/scala-*/spark-examples-*.jar --algorithm SVM --regType L2 --regParam 0.000100 --format cloud --numPartitions 40 --runtimeMS 10 --pointCloudPointsPerPartition 100000 --pointCloudPartitionSkew 0.000000 --pointCloudLabelNoise 0.200000 --pointCloudDimension 100  --ADMMmaxLocalIterations 500 '
p59
sg17
I1
sg18
g19
sg20
F0.0
sg21
g57
sg22
g58
sg23
I4035
sa(dp60
g2
F4000000.0
sg3
(lp61
S'RESULT:'
p62
aS'SVMADMM'
p63
ag7
aS'4068'
p64
aS'1.0'
p65
aS'4000000.0'
p66
aS'0.0'
p67
aS'4000000.0'
p68
aS'0.0,0.0,0.0,0.0,0.0,0.0,0.0,0.0,0.0,0.0,0.0,0.0,0.0,0.0,0.0,0.0,0.0,0.0,0.0,0.0,0.0,0.0,0.0,0.0,0.0,0.0,0.0,0.0,0.0,0.0,0.0,0.0,0.0,0.0,0.0,0.0,0.0,0.0,0.0,0.0,0.0,0.0,0.0,0.0,0.0,0.0,0.0,0.0,0.0,0.0,0.0,0.0,0.0,0.0,0.0,0.0,0.0,0.0,0.0,0.0,0.0,0.0,0.0,0.0,0.0,0.0,0.0,0.0,0.0,0.0,0.0,0.0,0.0,0.0,0.0,0.0,0.0,0.0,0.0,0.0,0.0,0.0,0.0,0.0,0.0,0.0,0.0,0.0,0.0,0.0,0.0,0.0,0.0,0.0,0.0,0.0,0.0,0.0,0.0,0.0'
p69
asg14
F0.0
sg15
S'cd /mnt/spark; sbin/stop-all.sh; sleep 5; sbin/start-all.sh;./bin/spark-submit --class org.apache.spark.examples.mllib.research.SynchronousADMMTests examples/target/scala-*/spark-examples-*.jar --algorithm SVMADMM --regType L2 --regParam 0.000100 --format cloud --numPartitions 40 --runtimeMS 10 --pointCloudPointsPerPartition 100000 --pointCloudPartitionSkew 0.000000 --pointCloudLabelNoise 0.200000 --pointCloudDimension 100  --ADMMmaxLocalIterations 500 '
p70
sg17
I1
sg18
g35
sg20
F1.0
sg21
g68
sg22
g69
sg23
I4068
sa(dp71
g2
F2980191.8486382272
sg3
(lp72
S'RESULT:'
p73
aS'SVMADMMAsync'
p74
aS'207'
p75
aS'5753'
p76
aS'0.19988875'
p77
aS'2980191.848638227'
p78
aS'3.3706665781241258E-6'
p79
aS'2980191.8486415977'
p80
aS'-0.0027518789620883553,-0.0035196822268650425,-0.0028704393794224854,-0.003694500117898513,-0.0048123530219202305,-0.0030275075911800503,-0.0038924761843276883,-0.0032526195098297518,-0.0025625726492462084,-0.0029580646796307512,-0.0032954640377454584,-0.0028547483693053457,-0.0020468355397350907,-0.0033565149589878615,-0.0032375249004349565,-0.0031421377004712025,-0.002402615793221328,-0.002776247597720681,-0.0034834524463811917,-0.0031334758922494663,-0.005612188828892639,-0.0055067251556712845,-0.004558990097554415,-0.00443971728593546,-0.0051546152312586056,-0.004599176693765371,-0.004710885716727929,-0.0050349100342427485,-0.00512028924149854,-0.004170690102338805,-0.0037813414523110954,-0.003886676850332708,-0.0046179180518889015,-0.005039096348069006,-0.005459448053556593,-0.003427141770403421,-0.004723512735696262,-0.004849631462613844,-0.004371115487966279,-0.004953248148158504,-0.003582783589739449,-0.00462927166604851,-0.004799825635162055,-0.004753941676236954,-0.004045102794921408,-0.005070006766007958,-0.005307952247477017,-0.00459384447584295,-0.004286189732237835,-0.004095875308907022,-0.0053644450414052965,-0.006098726436285613,-0.004435716195990014,-0.004725044879171848,-0.003004926359994876,-0.0046133999684095685,-0.0040680024948879815,-0.003952572818033999,-0.004812986394080274,-0.0052141339079068896,-0.005117135428010183,-0.004206353391491309,-0.005249911046865556,-0.004780827323181227,-0.004321578105140442,-0.004850515628597422,-0.004873402865369068,-0.004777401174745962,-0.004477898410656983,-0.005340079577636948,-0.005493947563603396,-0.004123946630264697,-0.00580561190187375,-0.0049122991828808235,-0.004905071181599757,-0.004361446708874027,-0.0029589777010522616,-0.0057570922603733254,-0.004382911791018385,-0.004719585450236676,-0.00411984989816861,-0.005342555630284042,-0.003993314062829004,-0.004357024549492532,-0.005108743031123451,-0.004220678573462713,-0.004842816681284169,-0.005250196064356967,-0.004662840154274129,-0.004180238750281949,-0.004959403374259019,-0.005934682414560976,-0.0041772502758146675,-0.004613210678410076,-0.004603238860553824,-0.004533464339606792,-0.004680266528573789,-0.005117309532700006,-0.0050947840442506324,0.1781392115002327'
p81
asg14
F3.3706665781241258e-06
sg15
S'cd /mnt/spark; sbin/stop-all.sh; sleep 5; sbin/start-all.sh;./bin/spark-submit --class org.apache.spark.examples.mllib.research.SynchronousADMMTests examples/target/scala-*/spark-examples-*.jar --algorithm SVMADMMAsync --regType L2 --regParam 0.000100 --format cloud --numPartitions 40 --runtimeMS 10 --pointCloudPointsPerPartition 100000 --pointCloudPartitionSkew 0.000000 --pointCloudLabelNoise 0.200000 --pointCloudDimension 100  --ADMMmaxLocalIterations 500 '
p82
sg17
I207
sg18
g48
sg20
F0.19988875
sg21
g80
sg22
g81
sg23
I5753
sa(dp83
g2
Fnan
sg3
(lp84
S'RESULT:'
p85
aS'SVM'
p86
ag7
aS'4051'
p87
aS'0.0'
p88
aS'NaN'
p89
aS'NaN'
p90
aS'NaN'
p91
aS'NaN,NaN,NaN,NaN,NaN,NaN,NaN,NaN,NaN,NaN,NaN,NaN,NaN,NaN,NaN,NaN,NaN,NaN,NaN,NaN,NaN,NaN,NaN,NaN,NaN,NaN,NaN,NaN,NaN,NaN,NaN,NaN,NaN,NaN,NaN,NaN,NaN,NaN,NaN,NaN,NaN,NaN,NaN,NaN,NaN,NaN,NaN,NaN,NaN,NaN,NaN,NaN,NaN,NaN,NaN,NaN,NaN,NaN,NaN,NaN,NaN,NaN,NaN,NaN,NaN,NaN,NaN,NaN,NaN,NaN,NaN,NaN,NaN,NaN,NaN,NaN,NaN,NaN,NaN,NaN,NaN,NaN,NaN,NaN,NaN,NaN,NaN,NaN,NaN,NaN,NaN,NaN,NaN,NaN,NaN,NaN,NaN,NaN,NaN,NaN'
p92
asg14
Fnan
sg15
S'cd /mnt/spark; sbin/stop-all.sh; sleep 5; sbin/start-all.sh;./bin/spark-submit --class org.apache.spark.examples.mllib.research.SynchronousADMMTests examples/target/scala-*/spark-examples-*.jar --algorithm SVM --regType L2 --regParam 0.000100 --format cloud --numPartitions 40 --runtimeMS 15 --pointCloudPointsPerPartition 100000 --pointCloudPartitionSkew 0.000000 --pointCloudLabelNoise 0.200000 --pointCloudDimension 100  --ADMMmaxLocalIterations 500 '
p93
sg17
I1
sg18
g19
sg20
F0.0
sg21
g91
sg22
g92
sg23
I4051
sa(dp94
g2
F4000000.0
sg3
(lp95
S'RESULT:'
p96
aS'SVMADMM'
p97
ag7
aS'4080'
p98
aS'1.0'
p99
aS'4000000.0'
p100
aS'0.0'
p101
aS'4000000.0'
p102
aS'0.0,0.0,0.0,0.0,0.0,0.0,0.0,0.0,0.0,0.0,0.0,0.0,0.0,0.0,0.0,0.0,0.0,0.0,0.0,0.0,0.0,0.0,0.0,0.0,0.0,0.0,0.0,0.0,0.0,0.0,0.0,0.0,0.0,0.0,0.0,0.0,0.0,0.0,0.0,0.0,0.0,0.0,0.0,0.0,0.0,0.0,0.0,0.0,0.0,0.0,0.0,0.0,0.0,0.0,0.0,0.0,0.0,0.0,0.0,0.0,0.0,0.0,0.0,0.0,0.0,0.0,0.0,0.0,0.0,0.0,0.0,0.0,0.0,0.0,0.0,0.0,0.0,0.0,0.0,0.0,0.0,0.0,0.0,0.0,0.0,0.0,0.0,0.0,0.0,0.0,0.0,0.0,0.0,0.0,0.0,0.0,0.0,0.0,0.0,0.0'
p103
asg14
F0.0
sg15
S'cd /mnt/spark; sbin/stop-all.sh; sleep 5; sbin/start-all.sh;./bin/spark-submit --class org.apache.spark.examples.mllib.research.SynchronousADMMTests examples/target/scala-*/spark-examples-*.jar --algorithm SVMADMM --regType L2 --regParam 0.000100 --format cloud --numPartitions 40 --runtimeMS 15 --pointCloudPointsPerPartition 100000 --pointCloudPartitionSkew 0.000000 --pointCloudLabelNoise 0.200000 --pointCloudDimension 100  --ADMMmaxLocalIterations 500 '
p104
sg17
I1
sg18
g35
sg20
F1.0
sg21
g102
sg22
g103
sg23
I4080
sa(dp105
g2
F3560024.459715012
sg3
(lp106
S'RESULT:'
p107
aS'SVMADMMAsync'
p108
aS'218'
p109
aS'5794'
p110
aS'0.20181175'
p111
aS'3560024.459715012'
p112
aS'3.857170102396919E-6'
p113
aS'3560024.459718869'
p114
aS'-0.006983317446908945,-0.0062006163748566535,-0.007910748785279791,-0.007183176546406612,-0.007497672171242172,-0.006200140103995952,-0.0073206336640038025,-0.007311444501708625,-0.007527303293478672,-0.007047588151879156,-0.005538142919306021,-0.007168557397558735,-0.0064308199905931535,-0.0066710373037646604,-0.00761160140667025,-0.007508697272061391,-0.006112162375541105,-0.006447807990530333,-0.007907896577917307,-0.008022553892078042,-0.00816737474161098,-0.007053699265471883,-0.007857103822426442,-0.007817947344898164,-0.007623781628842111,-0.006502641916249563,-0.006822537384160504,-0.007859143946742359,-0.006714717819734681,-0.007311285981822918,-0.007579476835671552,-0.0068675792613487815,-0.007856708514985792,-0.0076896321850632495,-0.006938035227054847,-0.0067648655884110604,-0.007693711562807288,-0.00784258272394511,-0.008373561233225638,-0.007259490772433266,-0.007123116972668716,-0.0075605398029354965,-0.007240484942542994,-0.0071607867849170555,-0.007663936701563591,-0.007572460858021552,-0.007158084304350336,-0.00677667725512681,-0.007871490746646458,-0.007383158527669835,-0.007482308486021053,-0.00821026579667742,-0.007520078633150143,-0.007467914427228128,-0.007155749661025306,-0.007118483945461395,-0.006982513493486316,-0.007348237138508655,-0.007538266750193495,-0.008340536976387355,-0.00822758970994776,-0.007528005899089004,-0.00764188100131087,-0.00826923611953047,-0.007170372199502548,-0.00796576816310053,-0.007470175549782834,-0.0076898469999513675,-0.007483887164309587,-0.007246337449680639,-0.006831449636566904,-0.0069771005980524305,-0.006944495766919618,-0.0076343081761935635,-0.0074461360728225985,-0.006674137831493811,-0.007863174179925337,-0.007166554136452051,-0.006452351165565399,-0.007158459171649841,-0.007019177678994779,-0.007530033237398539,-0.007200509248126559,-0.007061867784194715,-0.0074276955935392176,-0.008382090168444883,-0.00789737838050316,-0.0075690366876323455,-0.0069202668231313335,-0.006971511173130723,-0.008137112487300218,-0.008514990378798725,-0.006754875904408638,-0.0075528572659481945,-0.007109868321110392,-0.008178101182753996,-0.007810126669240149,-0.007377243349665222,-0.006355544684781321,0.18219609252674066'
p115
asg14
F3.8571701023969191e-06
sg15
S'cd /mnt/spark; sbin/stop-all.sh; sleep 5; sbin/start-all.sh;./bin/spark-submit --class org.apache.spark.examples.mllib.research.SynchronousADMMTests examples/target/scala-*/spark-examples-*.jar --algorithm SVMADMMAsync --regType L2 --regParam 0.000100 --format cloud --numPartitions 40 --runtimeMS 15 --pointCloudPointsPerPartition 100000 --pointCloudPartitionSkew 0.000000 --pointCloudLabelNoise 0.200000 --pointCloudDimension 100  --ADMMmaxLocalIterations 500 '
p116
sg17
I218
sg18
g48
sg20
F0.20181175000000001
sg21
g114
sg22
g115
sg23
I5794
sa(dp117
g2
Fnan
sg3
(lp118
S'RESULT:'
p119
aS'SVM'
p120
ag7
aS'4120'
p121
aS'0.0'
p122
aS'NaN'
p123
aS'NaN'
p124
aS'NaN'
p125
aS'NaN,NaN,NaN,NaN,NaN,NaN,NaN,NaN,NaN,NaN,NaN,NaN,NaN,NaN,NaN,NaN,NaN,NaN,NaN,NaN,NaN,NaN,NaN,NaN,NaN,NaN,NaN,NaN,NaN,NaN,NaN,NaN,NaN,NaN,NaN,NaN,NaN,NaN,NaN,NaN,NaN,NaN,NaN,NaN,NaN,NaN,NaN,NaN,NaN,NaN,NaN,NaN,NaN,NaN,NaN,NaN,NaN,NaN,NaN,NaN,NaN,NaN,NaN,NaN,NaN,NaN,NaN,NaN,NaN,NaN,NaN,NaN,NaN,NaN,NaN,NaN,NaN,NaN,NaN,NaN,NaN,NaN,NaN,NaN,NaN,NaN,NaN,NaN,NaN,NaN,NaN,NaN,NaN,NaN,NaN,NaN,NaN,NaN,NaN,NaN'
p126
asg14
Fnan
sg15
S'cd /mnt/spark; sbin/stop-all.sh; sleep 5; sbin/start-all.sh;./bin/spark-submit --class org.apache.spark.examples.mllib.research.SynchronousADMMTests examples/target/scala-*/spark-examples-*.jar --algorithm SVM --regType L2 --regParam 0.000100 --format cloud --numPartitions 40 --runtimeMS 20 --pointCloudPointsPerPartition 100000 --pointCloudPartitionSkew 0.000000 --pointCloudLabelNoise 0.200000 --pointCloudDimension 100  --ADMMmaxLocalIterations 500 '
p127
sg17
I1
sg18
g19
sg20
F0.0
sg21
g125
sg22
g126
sg23
I4120
sa(dp128
g2
F4000000.0
sg3
(lp129
S'RESULT:'
p130
aS'SVMADMM'
p131
ag7
aS'4049'
p132
aS'1.0'
p133
aS'4000000.0'
p134
aS'0.0'
p135
aS'4000000.0'
p136
aS'0.0,0.0,0.0,0.0,0.0,0.0,0.0,0.0,0.0,0.0,0.0,0.0,0.0,0.0,0.0,0.0,0.0,0.0,0.0,0.0,0.0,0.0,0.0,0.0,0.0,0.0,0.0,0.0,0.0,0.0,0.0,0.0,0.0,0.0,0.0,0.0,0.0,0.0,0.0,0.0,0.0,0.0,0.0,0.0,0.0,0.0,0.0,0.0,0.0,0.0,0.0,0.0,0.0,0.0,0.0,0.0,0.0,0.0,0.0,0.0,0.0,0.0,0.0,0.0,0.0,0.0,0.0,0.0,0.0,0.0,0.0,0.0,0.0,0.0,0.0,0.0,0.0,0.0,0.0,0.0,0.0,0.0,0.0,0.0,0.0,0.0,0.0,0.0,0.0,0.0,0.0,0.0,0.0,0.0,0.0,0.0,0.0,0.0,0.0,0.0'
p137
asg14
F0.0
sg15
S'cd /mnt/spark; sbin/stop-all.sh; sleep 5; sbin/start-all.sh;./bin/spark-submit --class org.apache.spark.examples.mllib.research.SynchronousADMMTests examples/target/scala-*/spark-examples-*.jar --algorithm SVMADMM --regType L2 --regParam 0.000100 --format cloud --numPartitions 40 --runtimeMS 20 --pointCloudPointsPerPartition 100000 --pointCloudPartitionSkew 0.000000 --pointCloudLabelNoise 0.200000 --pointCloudDimension 100  --ADMMmaxLocalIterations 500 '
p138
sg17
I1
sg18
g35
sg20
F1.0
sg21
g136
sg22
g137
sg23
I4049
sa(dp139
g2
F7002433.8671806231
sg3
(lp140
S'RESULT:'
p141
aS'SVMADMMAsync'
p142
aS'191'
p143
aS'5679'
p144
aS'0.273047'
p145
aS'7002433.867180623'
p146
aS'8.95531811826925E-6'
p147
aS'7002433.867189579'
p148
aS'-0.024506573821077165,-0.02399013452285164,-0.02608375915693609,-0.024480094658218186,-0.025066916460589155,-0.025635359216108305,-0.02624544499566386,-0.025037987854646265,-0.02476816520278712,-0.025097106474288224,-0.024309138950708496,-0.027189295390584515,-0.024063151163674686,-0.024281700666153188,-0.024390538631742745,-0.024857169319476347,-0.023505753144457284,-0.02406279816397508,-0.024579645133241755,-0.025976243011729294,-0.024994131665604952,-0.024782952202609378,-0.02434349383380281,-0.025089223000970436,-0.024888756671903215,-0.02383175441626003,-0.023504714172403126,-0.024831689311790497,-0.02477073652690257,-0.025106832612163885,-0.02482652637124356,-0.024633909926071156,-0.023871937517518614,-0.024375173760640217,-0.024964984337530086,-0.02367601437408647,-0.02524636828879624,-0.024495052789616868,-0.024963094919496016,-0.024511546209782773,-0.023086910159111188,-0.0241643264645619,-0.023919012583302434,-0.024975261085508644,-0.024910583707538146,-0.024720860404449912,-0.025774021557129,-0.024046462379371854,-0.02464924885016672,-0.025043310097576207,-0.025713465097427654,-0.02466667976489643,-0.02344673872119681,-0.02501136197639503,-0.025034990926950766,-0.02423371387786855,-0.0237742953742031,-0.0240084668116809,-0.024962970253811452,-0.025582350958419403,-0.025006822460903536,-0.02498238798957938,-0.02361083090090853,-0.02493977515243604,-0.0240918751111765,-0.02563264807294873,-0.02408249039522039,-0.025717947402032818,-0.024739336469001963,-0.024783914706776784,-0.02560765139704368,-0.025049841878617567,-0.023630813469600002,-0.02433262357756405,-0.024445383826361747,-0.02306225795410573,-0.025404515362432822,-0.02495769351727714,-0.02399696163829746,-0.025684990622735132,-0.02396778980829401,-0.025023111401419478,-0.024603346205515995,-0.02422356862781621,-0.025018030922780935,-0.025429370700957746,-0.025837049285894875,-0.02438717556433644,-0.024673262578682284,-0.02427395348237856,-0.024602910120944954,-0.025632501185112094,-0.02359220321256197,-0.025051144865792532,-0.023713495094022236,-0.024286340121536104,-0.02590830163240004,-0.024201047243012908,-0.023261846793209848,0.17092041157505683'
p149
asg14
F8.9553181182692501e-06
sg15
S'cd /mnt/spark; sbin/stop-all.sh; sleep 5; sbin/start-all.sh;./bin/spark-submit --class org.apache.spark.examples.mllib.research.SynchronousADMMTests examples/target/scala-*/spark-examples-*.jar --algorithm SVMADMMAsync --regType L2 --regParam 0.000100 --format cloud --numPartitions 40 --runtimeMS 20 --pointCloudPointsPerPartition 100000 --pointCloudPartitionSkew 0.000000 --pointCloudLabelNoise 0.200000 --pointCloudDimension 100  --ADMMmaxLocalIterations 500 '
p150
sg17
I191
sg18
g48
sg20
F0.27304699999999998
sg21
g148
sg22
g149
sg23
I5679
sa(dp151
g2
Fnan
sg3
(lp152
S'RESULT:'
p153
aS'SVM'
p154
ag7
aS'4172'
p155
aS'0.0'
p156
aS'NaN'
p157
aS'NaN'
p158
aS'NaN'
p159
aS'NaN,NaN,NaN,NaN,NaN,NaN,NaN,NaN,NaN,NaN,NaN,NaN,NaN,NaN,NaN,NaN,NaN,NaN,NaN,NaN,NaN,NaN,NaN,NaN,NaN,NaN,NaN,NaN,NaN,NaN,NaN,NaN,NaN,NaN,NaN,NaN,NaN,NaN,NaN,NaN,NaN,NaN,NaN,NaN,NaN,NaN,NaN,NaN,NaN,NaN,NaN,NaN,NaN,NaN,NaN,NaN,NaN,NaN,NaN,NaN,NaN,NaN,NaN,NaN,NaN,NaN,NaN,NaN,NaN,NaN,NaN,NaN,NaN,NaN,NaN,NaN,NaN,NaN,NaN,NaN,NaN,NaN,NaN,NaN,NaN,NaN,NaN,NaN,NaN,NaN,NaN,NaN,NaN,NaN,NaN,NaN,NaN,NaN,NaN,NaN'
p160
asg14
Fnan
sg15
S'cd /mnt/spark; sbin/stop-all.sh; sleep 5; sbin/start-all.sh;./bin/spark-submit --class org.apache.spark.examples.mllib.research.SynchronousADMMTests examples/target/scala-*/spark-examples-*.jar --algorithm SVM --regType L2 --regParam 0.000100 --format cloud --numPartitions 40 --runtimeMS 25 --pointCloudPointsPerPartition 100000 --pointCloudPartitionSkew 0.000000 --pointCloudLabelNoise 0.200000 --pointCloudDimension 100  --ADMMmaxLocalIterations 500 '
p161
sg17
I1
sg18
g19
sg20
F0.0
sg21
g159
sg22
g160
sg23
I4172
sa(dp162
g2
F4000000.0
sg3
(lp163
S'RESULT:'
p164
aS'SVMADMM'
p165
ag7
aS'4063'
p166
aS'1.0'
p167
aS'4000000.0'
p168
aS'0.0'
p169
aS'4000000.0'
p170
aS'0.0,0.0,0.0,0.0,0.0,0.0,0.0,0.0,0.0,0.0,0.0,0.0,0.0,0.0,0.0,0.0,0.0,0.0,0.0,0.0,0.0,0.0,0.0,0.0,0.0,0.0,0.0,0.0,0.0,0.0,0.0,0.0,0.0,0.0,0.0,0.0,0.0,0.0,0.0,0.0,0.0,0.0,0.0,0.0,0.0,0.0,0.0,0.0,0.0,0.0,0.0,0.0,0.0,0.0,0.0,0.0,0.0,0.0,0.0,0.0,0.0,0.0,0.0,0.0,0.0,0.0,0.0,0.0,0.0,0.0,0.0,0.0,0.0,0.0,0.0,0.0,0.0,0.0,0.0,0.0,0.0,0.0,0.0,0.0,0.0,0.0,0.0,0.0,0.0,0.0,0.0,0.0,0.0,0.0,0.0,0.0,0.0,0.0,0.0,0.0'
p171
asg14
F0.0
sg15
S'cd /mnt/spark; sbin/stop-all.sh; sleep 5; sbin/start-all.sh;./bin/spark-submit --class org.apache.spark.examples.mllib.research.SynchronousADMMTests examples/target/scala-*/spark-examples-*.jar --algorithm SVMADMM --regType L2 --regParam 0.000100 --format cloud --numPartitions 40 --runtimeMS 25 --pointCloudPointsPerPartition 100000 --pointCloudPartitionSkew 0.000000 --pointCloudLabelNoise 0.200000 --pointCloudDimension 100  --ADMMmaxLocalIterations 500 '
p172
sg17
I1
sg18
g35
sg20
F1.0
sg21
g170
sg22
g171
sg23
I4063
sa(dp173
g2
F3134852.0308114914
sg3
(lp174
S'RESULT:'
p175
aS'SVMADMMAsync'
p176
aS'194'
p177
aS'5780'
p178
aS'0.199969'
p179
aS'3134852.0308114914'
p180
aS'3.341758075200615E-6'
p181
aS'3134852.030814833'
p182
aS'-0.0058400975533925885,-0.004324466603107441,-0.0049785756338767435,-0.005232284303417501,-0.005543671694243768,-0.004831040383894722,-0.005509566238550938,-0.005799326369379153,-0.005242456552804724,-0.004911240180222613,-0.004995636091389887,-0.004871170980373175,-0.0042733536468137845,-0.005482168729088194,-0.005046410763215035,-0.005020326877349137,-0.004563754178613843,-0.005071848982135881,-0.0046009776580705495,-0.005104707976510583,-0.00600205124668772,-0.00483289224139867,-0.0050285110061727995,-0.004998128269847034,-0.0053094605128185535,-0.004804985496440578,-0.00451124369909357,-0.00485134594533155,-0.005198593333286756,-0.005978773516377943,-0.005719334941676255,-0.004574295512820139,-0.0046174780831584284,-0.004881459654755143,-0.005011421579606545,-0.004738053675065051,-0.004969125638052263,-0.0049887160570643825,-0.006138333546266163,-0.00453991341660911,-0.004710972932800364,-0.00460850556668101,-0.005840187233671125,-0.005249482647745491,-0.0051330425673105475,-0.005232117018042365,-0.004745691486494991,-0.004606760582327042,-0.004867212662739653,-0.005313699847656909,-0.005149903849582148,-0.006214859223183049,-0.004373474377638084,-0.004376905538759316,-0.00478047779348095,-0.0044414879742781296,-0.005326247286659074,-0.005650870357897575,-0.005051140528629244,-0.005691247453281812,-0.0061108067831688396,-0.005066447673719598,-0.004594697716718321,-0.005539319054148381,-0.004818221334040478,-0.004838577752872083,-0.004624852748051847,-0.004939007640836211,-0.005359827989737909,-0.005587645698841495,-0.004502309488873086,-0.00423429451460913,-0.004909533402508594,-0.004978420418088496,-0.005510953108383255,-0.004835719481846798,-0.005748129620957872,-0.005940250727539606,-0.005041180865063259,-0.005413339065710178,-0.004688587210746244,-0.006148322147426128,-0.0054718040608765445,-0.004830295194188779,-0.005621130433523157,-0.006389594154203672,-0.0056670959915706785,-0.00541944909822924,-0.006119914108179998,-0.00520369415094242,-0.0048151325612719445,-0.005983280341714101,-0.004245476036389075,-0.005538810268196948,-0.005814644274094807,-0.005591824198418975,-0.00517722383217315,-0.0051167475981018186,-0.00431685426438658,0.1754253456453276'
p183
asg14
F3.3417580752006151e-06
sg15
S'cd /mnt/spark; sbin/stop-all.sh; sleep 5; sbin/start-all.sh;./bin/spark-submit --class org.apache.spark.examples.mllib.research.SynchronousADMMTests examples/target/scala-*/spark-examples-*.jar --algorithm SVMADMMAsync --regType L2 --regParam 0.000100 --format cloud --numPartitions 40 --runtimeMS 25 --pointCloudPointsPerPartition 100000 --pointCloudPartitionSkew 0.000000 --pointCloudLabelNoise 0.200000 --pointCloudDimension 100  --ADMMmaxLocalIterations 500 '
p184
sg17
I194
sg18
g48
sg20
F0.19996900000000001
sg21
g182
sg22
g183
sg23
I5780
sa(dp185
g2
Fnan
sg3
(lp186
S'RESULT:'
p187
aS'SVM'
p188
ag7
aS'4084'
p189
aS'0.0'
p190
aS'NaN'
p191
aS'NaN'
p192
aS'NaN'
p193
aS'NaN,NaN,NaN,NaN,NaN,NaN,NaN,NaN,NaN,NaN,NaN,NaN,NaN,NaN,NaN,NaN,NaN,NaN,NaN,NaN,NaN,NaN,NaN,NaN,NaN,NaN,NaN,NaN,NaN,NaN,NaN,NaN,NaN,NaN,NaN,NaN,NaN,NaN,NaN,NaN,NaN,NaN,NaN,NaN,NaN,NaN,NaN,NaN,NaN,NaN,NaN,NaN,NaN,NaN,NaN,NaN,NaN,NaN,NaN,NaN,NaN,NaN,NaN,NaN,NaN,NaN,NaN,NaN,NaN,NaN,NaN,NaN,NaN,NaN,NaN,NaN,NaN,NaN,NaN,NaN,NaN,NaN,NaN,NaN,NaN,NaN,NaN,NaN,NaN,NaN,NaN,NaN,NaN,NaN,NaN,NaN,NaN,NaN,NaN,NaN'
p194
asg14
Fnan
sg15
S'cd /mnt/spark; sbin/stop-all.sh; sleep 5; sbin/start-all.sh;./bin/spark-submit --class org.apache.spark.examples.mllib.research.SynchronousADMMTests examples/target/scala-*/spark-examples-*.jar --algorithm SVM --regType L2 --regParam 0.000100 --format cloud --numPartitions 40 --runtimeMS 30 --pointCloudPointsPerPartition 100000 --pointCloudPartitionSkew 0.000000 --pointCloudLabelNoise 0.200000 --pointCloudDimension 100  --ADMMmaxLocalIterations 500 '
p195
sg17
I1
sg18
g19
sg20
F0.0
sg21
g193
sg22
g194
sg23
I4084
sa(dp196
g2
F4000000.0
sg3
(lp197
S'RESULT:'
p198
aS'SVMADMM'
p199
ag7
aS'4075'
p200
aS'1.0'
p201
aS'4000000.0'
p202
aS'0.0'
p203
aS'4000000.0'
p204
aS'0.0,0.0,0.0,0.0,0.0,0.0,0.0,0.0,0.0,0.0,0.0,0.0,0.0,0.0,0.0,0.0,0.0,0.0,0.0,0.0,0.0,0.0,0.0,0.0,0.0,0.0,0.0,0.0,0.0,0.0,0.0,0.0,0.0,0.0,0.0,0.0,0.0,0.0,0.0,0.0,0.0,0.0,0.0,0.0,0.0,0.0,0.0,0.0,0.0,0.0,0.0,0.0,0.0,0.0,0.0,0.0,0.0,0.0,0.0,0.0,0.0,0.0,0.0,0.0,0.0,0.0,0.0,0.0,0.0,0.0,0.0,0.0,0.0,0.0,0.0,0.0,0.0,0.0,0.0,0.0,0.0,0.0,0.0,0.0,0.0,0.0,0.0,0.0,0.0,0.0,0.0,0.0,0.0,0.0,0.0,0.0,0.0,0.0,0.0,0.0'
p205
asg14
F0.0
sg15
S'cd /mnt/spark; sbin/stop-all.sh; sleep 5; sbin/start-all.sh;./bin/spark-submit --class org.apache.spark.examples.mllib.research.SynchronousADMMTests examples/target/scala-*/spark-examples-*.jar --algorithm SVMADMM --regType L2 --regParam 0.000100 --format cloud --numPartitions 40 --runtimeMS 30 --pointCloudPointsPerPartition 100000 --pointCloudPartitionSkew 0.000000 --pointCloudLabelNoise 0.200000 --pointCloudDimension 100  --ADMMmaxLocalIterations 500 '
p206
sg17
I1
sg18
g35
sg20
F1.0
sg21
g204
sg22
g205
sg23
I4075
sa(dp207
g2
F3059257.5536232009
sg3
(lp208
S'RESULT:'
p209
aS'SVMADMMAsync'
p210
aS'193'
p211
aS'5725'
p212
aS'0.1998975'
p213
aS'3059257.553623201'
p214
aS'3.661455433607538E-6'
p215
aS'3059257.5536268624'
p216
aS'-0.0042191314450428586,-0.004205778459366662,-0.005493480867129946,-0.0044676909566699705,-0.006689455475651994,-0.003406732928828332,-0.005462383411852994,-0.005478624701678094,-0.004823040509534673,-0.006133086341550292,-0.005824323249956379,-0.0048144913332918435,-0.0040877872792763285,-0.005245050504713195,-0.005358680020023572,-0.00524997390494193,-0.003917013240887852,-0.0034182353460020915,-0.005527495884847392,-0.005080453460586354,-0.003476185559930549,-0.005635134303346503,-0.005262072529390077,-0.004377924827836782,-0.005651403104054491,-0.0033832910193111014,-0.004287503570539068,-0.005297869241699657,-0.004653944638950611,-0.005992997048210402,-0.003654150721210382,-0.003929870949902473,-0.003956540777907115,-0.004262422803330315,-0.004608180344317193,-0.0043088269043111485,-0.0047478301661989485,-0.006037145026061874,-0.005054143969627676,-0.003876650324845662,-0.004925303821804884,-0.00498865432515561,-0.004771696796764917,-0.0038489209824677712,-0.004916577625539931,-0.005329191330939876,-0.004573460675596087,-0.004376298883454507,-0.004612233287070977,-0.0041579762596693284,-0.005556201862212094,-0.005617458608736346,-0.004864745906738041,-0.003369718050816401,-0.004435665173281168,-0.005544957895649531,-0.005044214018116698,-0.004236672505662186,-0.005665747293888864,-0.005852920379956273,-0.0058578835391146925,-0.004467727575508036,-0.0041560234336586385,-0.0055424421669176115,-0.003965548502898392,-0.005943413261129997,-0.005779852775851719,-0.004816208690950089,-0.005062980549205466,-0.0044196095093432825,-0.006356981850177897,-0.004570790028334017,-0.004498156186859344,-0.005143316516507694,-0.004618035655186089,-0.005352533674580513,-0.004732580568127531,-0.0052979715438560265,-0.003340397454346141,-0.004416079459285631,-0.004652284170534059,-0.005530153733363404,-0.0046159207215706495,-0.00393515270946104,-0.004132952081161737,-0.004510416352619885,-0.004671655320593865,-0.004917087671163335,-0.005130108077317107,-0.0052665290472193845,-0.004228890499626923,-0.0057942925469578075,-0.0029245485366379445,-0.005078886422100657,-0.005736189733332016,-0.005419605462814037,-0.005062209478531204,-0.005130739309730158,-0.005768320503179528,0.18504385420324165'
p217
asg14
F3.6614554336075378e-06
sg15
S'cd /mnt/spark; sbin/stop-all.sh; sleep 5; sbin/start-all.sh;./bin/spark-submit --class org.apache.spark.examples.mllib.research.SynchronousADMMTests examples/target/scala-*/spark-examples-*.jar --algorithm SVMADMMAsync --regType L2 --regParam 0.000100 --format cloud --numPartitions 40 --runtimeMS 30 --pointCloudPointsPerPartition 100000 --pointCloudPartitionSkew 0.000000 --pointCloudLabelNoise 0.200000 --pointCloudDimension 100  --ADMMmaxLocalIterations 500 '
p218
sg17
I193
sg18
g48
sg20
F0.19989750000000001
sg21
g216
sg22
g217
sg23
I5725
sa(dp219
g2
Fnan
sg3
(lp220
S'RESULT:'
p221
aS'SVM'
p222
ag7
aS'4062'
p223
aS'0.0'
p224
aS'NaN'
p225
aS'NaN'
p226
aS'NaN'
p227
aS'NaN,NaN,NaN,NaN,NaN,NaN,NaN,NaN,NaN,NaN,NaN,NaN,NaN,NaN,NaN,NaN,NaN,NaN,NaN,NaN,NaN,NaN,NaN,NaN,NaN,NaN,NaN,NaN,NaN,NaN,NaN,NaN,NaN,NaN,NaN,NaN,NaN,NaN,NaN,NaN,NaN,NaN,NaN,NaN,NaN,NaN,NaN,NaN,NaN,NaN,NaN,NaN,NaN,NaN,NaN,NaN,NaN,NaN,NaN,NaN,NaN,NaN,NaN,NaN,NaN,NaN,NaN,NaN,NaN,NaN,NaN,NaN,NaN,NaN,NaN,NaN,NaN,NaN,NaN,NaN,NaN,NaN,NaN,NaN,NaN,NaN,NaN,NaN,NaN,NaN,NaN,NaN,NaN,NaN,NaN,NaN,NaN,NaN,NaN,NaN'
p228
asg14
Fnan
sg15
S'cd /mnt/spark; sbin/stop-all.sh; sleep 5; sbin/start-all.sh;./bin/spark-submit --class org.apache.spark.examples.mllib.research.SynchronousADMMTests examples/target/scala-*/spark-examples-*.jar --algorithm SVM --regType L2 --regParam 0.000100 --format cloud --numPartitions 40 --runtimeMS 35 --pointCloudPointsPerPartition 100000 --pointCloudPartitionSkew 0.000000 --pointCloudLabelNoise 0.200000 --pointCloudDimension 100  --ADMMmaxLocalIterations 500 '
p229
sg17
I1
sg18
g19
sg20
F0.0
sg21
g227
sg22
g228
sg23
I4062
sa(dp230
g2
F4000000.0
sg3
(lp231
S'RESULT:'
p232
aS'SVMADMM'
p233
ag7
aS'4180'
p234
aS'1.0'
p235
aS'4000000.0'
p236
aS'0.0'
p237
aS'4000000.0'
p238
aS'0.0,0.0,0.0,0.0,0.0,0.0,0.0,0.0,0.0,0.0,0.0,0.0,0.0,0.0,0.0,0.0,0.0,0.0,0.0,0.0,0.0,0.0,0.0,0.0,0.0,0.0,0.0,0.0,0.0,0.0,0.0,0.0,0.0,0.0,0.0,0.0,0.0,0.0,0.0,0.0,0.0,0.0,0.0,0.0,0.0,0.0,0.0,0.0,0.0,0.0,0.0,0.0,0.0,0.0,0.0,0.0,0.0,0.0,0.0,0.0,0.0,0.0,0.0,0.0,0.0,0.0,0.0,0.0,0.0,0.0,0.0,0.0,0.0,0.0,0.0,0.0,0.0,0.0,0.0,0.0,0.0,0.0,0.0,0.0,0.0,0.0,0.0,0.0,0.0,0.0,0.0,0.0,0.0,0.0,0.0,0.0,0.0,0.0,0.0,0.0'
p239
asg14
F0.0
sg15
S'cd /mnt/spark; sbin/stop-all.sh; sleep 5; sbin/start-all.sh;./bin/spark-submit --class org.apache.spark.examples.mllib.research.SynchronousADMMTests examples/target/scala-*/spark-examples-*.jar --algorithm SVMADMM --regType L2 --regParam 0.000100 --format cloud --numPartitions 40 --runtimeMS 35 --pointCloudPointsPerPartition 100000 --pointCloudPartitionSkew 0.000000 --pointCloudLabelNoise 0.200000 --pointCloudDimension 100  --ADMMmaxLocalIterations 500 '
p240
sg17
I1
sg18
g35
sg20
F1.0
sg21
g238
sg22
g239
sg23
I4180
sa(dp241
g2
F6845815.3042999459
sg3
(lp242
S'RESULT:'
p243
aS'SVMADMMAsync'
p244
aS'204'
p245
aS'5683'
p246
aS'0.27193225'
p247
aS'6845815.304299946'
p248
aS'8.474390730258989E-6'
p249
aS'6845815.30430842'
p250
aS'-0.024169447332990625,-0.023366070619463913,-0.025052464339653312,-0.023138626977003755,-0.023699681818119593,-0.02554963263492809,-0.025363987906423323,-0.022861191646154837,-0.02301877377609128,-0.025249938214335167,-0.024476399472587305,-0.025218873761844753,-0.023008322499446364,-0.023662871835794363,-0.02346521467831372,-0.025587500433737895,-0.02344130141297544,-0.025100620231649513,-0.024014408476203782,-0.024076735897676085,-0.023903953801992305,-0.024459689986549123,-0.025010972315751348,-0.023640791782384738,-0.024185065013922348,-0.022910237253535595,-0.022637449299673682,-0.02442869002820985,-0.023882644018476805,-0.0232513440514047,-0.024551635208956913,-0.02384005543396085,-0.022175531241226405,-0.023037922868213108,-0.024286198843567006,-0.023730063436584584,-0.02407867690440458,-0.02358257057960696,-0.02387536801059607,-0.023003106047219068,-0.023200198623548305,-0.023209088580619038,-0.02307752720682613,-0.023398695309188356,-0.02361893242701157,-0.02445173414342928,-0.023111354519503913,-0.02295054858024974,-0.021663159796811764,-0.02269983697530638,-0.02519977775043171,-0.02356477089833519,-0.02265339736151142,-0.023554716876662427,-0.024031412058059164,-0.02397832117206839,-0.02432679749429809,-0.023669615216199247,-0.02374470771144232,-0.025421253047519833,-0.024589129949554988,-0.022916659552587617,-0.02340131037550873,-0.02482242139932,-0.022980166463710924,-0.023637299698263132,-0.02218692853954477,-0.024071554653648988,-0.023668982084951037,-0.025050955562098645,-0.024823301009762672,-0.024951192903162108,-0.022617510330943752,-0.02266808518814481,-0.023389302150651166,-0.023104466755078792,-0.02355889924155155,-0.023989627649482856,-0.023200246490552127,-0.024675827657052708,-0.023187842642845492,-0.024904107672131737,-0.023203418178525764,-0.02377126622883571,-0.02524650988962061,-0.024382891379985946,-0.024905065498941795,-0.023879913517868296,-0.02375240351454633,-0.023463134091717117,-0.02405180978371856,-0.02486991894743669,-0.02333164321002606,-0.024209406620693937,-0.023001519928566038,-0.024650164612639257,-0.025385058833738525,-0.024820125308689392,-0.023549212843407885,0.16822663395531012'
p251
asg14
F8.4743907302589885e-06
sg15
S'cd /mnt/spark; sbin/stop-all.sh; sleep 5; sbin/start-all.sh;./bin/spark-submit --class org.apache.spark.examples.mllib.research.SynchronousADMMTests examples/target/scala-*/spark-examples-*.jar --algorithm SVMADMMAsync --regType L2 --regParam 0.000100 --format cloud --numPartitions 40 --runtimeMS 35 --pointCloudPointsPerPartition 100000 --pointCloudPartitionSkew 0.000000 --pointCloudLabelNoise 0.200000 --pointCloudDimension 100  --ADMMmaxLocalIterations 500 '
p252
sg17
I204
sg18
g48
sg20
F0.27193224999999999
sg21
g250
sg22
g251
sg23
I5683
sa(dp253
g2
Fnan
sg3
(lp254
S'RESULT:'
p255
aS'SVM'
p256
ag7
aS'4068'
p257
aS'0.0'
p258
aS'NaN'
p259
aS'NaN'
p260
aS'NaN'
p261
aS'NaN,NaN,NaN,NaN,NaN,NaN,NaN,NaN,NaN,NaN,NaN,NaN,NaN,NaN,NaN,NaN,NaN,NaN,NaN,NaN,NaN,NaN,NaN,NaN,NaN,NaN,NaN,NaN,NaN,NaN,NaN,NaN,NaN,NaN,NaN,NaN,NaN,NaN,NaN,NaN,NaN,NaN,NaN,NaN,NaN,NaN,NaN,NaN,NaN,NaN,NaN,NaN,NaN,NaN,NaN,NaN,NaN,NaN,NaN,NaN,NaN,NaN,NaN,NaN,NaN,NaN,NaN,NaN,NaN,NaN,NaN,NaN,NaN,NaN,NaN,NaN,NaN,NaN,NaN,NaN,NaN,NaN,NaN,NaN,NaN,NaN,NaN,NaN,NaN,NaN,NaN,NaN,NaN,NaN,NaN,NaN,NaN,NaN,NaN,NaN'
p262
asg14
Fnan
sg15
S'cd /mnt/spark; sbin/stop-all.sh; sleep 5; sbin/start-all.sh;./bin/spark-submit --class org.apache.spark.examples.mllib.research.SynchronousADMMTests examples/target/scala-*/spark-examples-*.jar --algorithm SVM --regType L2 --regParam 0.000100 --format cloud --numPartitions 40 --runtimeMS 40 --pointCloudPointsPerPartition 100000 --pointCloudPartitionSkew 0.000000 --pointCloudLabelNoise 0.200000 --pointCloudDimension 100  --ADMMmaxLocalIterations 500 '
p263
sg17
I1
sg18
g19
sg20
F0.0
sg21
g261
sg22
g262
sg23
I4068
sa(dp264
g2
F4000000.0
sg3
(lp265
S'RESULT:'
p266
aS'SVMADMM'
p267
ag7
aS'4065'
p268
aS'1.0'
p269
aS'4000000.0'
p270
aS'0.0'
p271
aS'4000000.0'
p272
aS'0.0,0.0,0.0,0.0,0.0,0.0,0.0,0.0,0.0,0.0,0.0,0.0,0.0,0.0,0.0,0.0,0.0,0.0,0.0,0.0,0.0,0.0,0.0,0.0,0.0,0.0,0.0,0.0,0.0,0.0,0.0,0.0,0.0,0.0,0.0,0.0,0.0,0.0,0.0,0.0,0.0,0.0,0.0,0.0,0.0,0.0,0.0,0.0,0.0,0.0,0.0,0.0,0.0,0.0,0.0,0.0,0.0,0.0,0.0,0.0,0.0,0.0,0.0,0.0,0.0,0.0,0.0,0.0,0.0,0.0,0.0,0.0,0.0,0.0,0.0,0.0,0.0,0.0,0.0,0.0,0.0,0.0,0.0,0.0,0.0,0.0,0.0,0.0,0.0,0.0,0.0,0.0,0.0,0.0,0.0,0.0,0.0,0.0,0.0,0.0'
p273
asg14
F0.0
sg15
S'cd /mnt/spark; sbin/stop-all.sh; sleep 5; sbin/start-all.sh;./bin/spark-submit --class org.apache.spark.examples.mllib.research.SynchronousADMMTests examples/target/scala-*/spark-examples-*.jar --algorithm SVMADMM --regType L2 --regParam 0.000100 --format cloud --numPartitions 40 --runtimeMS 40 --pointCloudPointsPerPartition 100000 --pointCloudPartitionSkew 0.000000 --pointCloudLabelNoise 0.200000 --pointCloudDimension 100  --ADMMmaxLocalIterations 500 '
p274
sg17
I1
sg18
g35
sg20
F1.0
sg21
g272
sg22
g273
sg23
I4065
sa(dp275
g2
F6031448.7097158264
sg3
(lp276
S'RESULT:'
p277
aS'SVMADMMAsync'
p278
aS'202'
p279
aS'5755'
p280
aS'0.2545945'
p281
aS'6031448.709715826'
p282
aS'7.114927261358856E-6'
p283
aS'6031448.709722942'
p284
aS'-0.019136553325562803,-0.018619515301306382,-0.020116959045395216,-0.018225534573956467,-0.0210552861817628,-0.018427248566473847,-0.018873969284414913,-0.020786562160862106,-0.02003576969318643,-0.020661011087126698,-0.019026748805427186,-0.021170832971989823,-0.017867714764486516,-0.020497609449290095,-0.020153656856559433,-0.020425978080293204,-0.02018761015974381,-0.018788651093514054,-0.020982574361047057,-0.021193473824681158,-0.021169543227499622,-0.020004280234457963,-0.020889365150046156,-0.020075661777138893,-0.01859568889140114,-0.019928380055561287,-0.019684654955934945,-0.01975345105151518,-0.02017379290045796,-0.02015159944646896,-0.020656557992975697,-0.019736990712833056,-0.02005232741092692,-0.021025779558942255,-0.018944682970026102,-0.017972644967911833,-0.019240374390735806,-0.018876137947489036,-0.020235505596811507,-0.02025345364942055,-0.019790224005073676,-0.0183960569076604,-0.02023854447713916,-0.01813224916640073,-0.018875992826927732,-0.019010238135243957,-0.019213562757364737,-0.01994820059800523,-0.02017278847378977,-0.0200867981890129,-0.019290406039351553,-0.020705004584131406,-0.018600829917146348,-0.01897289244190647,-0.019440804888316187,-0.019498231207968564,-0.020730106790203037,-0.02064126194944361,-0.019122112113595338,-0.020250587314812787,-0.021138677903421606,-0.01964604903749572,-0.019080330466674556,-0.02111953304137433,-0.01984619061002543,-0.02176077468694482,-0.018341591405796793,-0.020119011663960466,-0.01959535546815207,-0.019845072655186716,-0.019656361770669144,-0.019203851205756982,-0.019226497850839235,-0.020926809058739258,-0.022105663008492794,-0.018567427696348972,-0.019804312847893142,-0.01952803543134035,-0.019882346629834742,-0.020248484215495997,-0.020128272742753993,-0.0201898016223546,-0.020048268159843837,-0.019253270010520705,-0.01958325309158637,-0.02017754182982495,-0.01840410972749687,-0.021230884285823683,-0.021103061315678903,-0.019315637911954533,-0.02035379516677412,-0.020978376760994243,-0.01852490363163764,-0.02125147803752619,-0.01863744195318031,-0.01954140923210622,-0.020919531534897524,-0.020277307732100056,-0.018938486089955735,0.17925646523316935'
p285
asg14
F7.1149272613588556e-06
sg15
S'cd /mnt/spark; sbin/stop-all.sh; sleep 5; sbin/start-all.sh;./bin/spark-submit --class org.apache.spark.examples.mllib.research.SynchronousADMMTests examples/target/scala-*/spark-examples-*.jar --algorithm SVMADMMAsync --regType L2 --regParam 0.000100 --format cloud --numPartitions 40 --runtimeMS 40 --pointCloudPointsPerPartition 100000 --pointCloudPartitionSkew 0.000000 --pointCloudLabelNoise 0.200000 --pointCloudDimension 100  --ADMMmaxLocalIterations 500 '
p286
sg17
I202
sg18
g48
sg20
F0.2545945
sg21
g284
sg22
g285
sg23
I5755
sa(dp287
g2
Fnan
sg3
(lp288
S'RESULT:'
p289
aS'SVM'
p290
ag7
aS'4045'
p291
aS'0.0'
p292
aS'NaN'
p293
aS'NaN'
p294
aS'NaN'
p295
aS'NaN,NaN,NaN,NaN,NaN,NaN,NaN,NaN,NaN,NaN,NaN,NaN,NaN,NaN,NaN,NaN,NaN,NaN,NaN,NaN,NaN,NaN,NaN,NaN,NaN,NaN,NaN,NaN,NaN,NaN,NaN,NaN,NaN,NaN,NaN,NaN,NaN,NaN,NaN,NaN,NaN,NaN,NaN,NaN,NaN,NaN,NaN,NaN,NaN,NaN,NaN,NaN,NaN,NaN,NaN,NaN,NaN,NaN,NaN,NaN,NaN,NaN,NaN,NaN,NaN,NaN,NaN,NaN,NaN,NaN,NaN,NaN,NaN,NaN,NaN,NaN,NaN,NaN,NaN,NaN,NaN,NaN,NaN,NaN,NaN,NaN,NaN,NaN,NaN,NaN,NaN,NaN,NaN,NaN,NaN,NaN,NaN,NaN,NaN,NaN'
p296
asg14
Fnan
sg15
S'cd /mnt/spark; sbin/stop-all.sh; sleep 5; sbin/start-all.sh;./bin/spark-submit --class org.apache.spark.examples.mllib.research.SynchronousADMMTests examples/target/scala-*/spark-examples-*.jar --algorithm SVM --regType L2 --regParam 0.000100 --format cloud --numPartitions 40 --runtimeMS 45 --pointCloudPointsPerPartition 100000 --pointCloudPartitionSkew 0.000000 --pointCloudLabelNoise 0.200000 --pointCloudDimension 100  --ADMMmaxLocalIterations 500 '
p297
sg17
I1
sg18
g19
sg20
F0.0
sg21
g295
sg22
g296
sg23
I4045
sa(dp298
g2
F4000000.0
sg3
(lp299
S'RESULT:'
p300
aS'SVMADMM'
p301
ag7
aS'4080'
p302
aS'1.0'
p303
aS'4000000.0'
p304
aS'0.0'
p305
aS'4000000.0'
p306
aS'0.0,0.0,0.0,0.0,0.0,0.0,0.0,0.0,0.0,0.0,0.0,0.0,0.0,0.0,0.0,0.0,0.0,0.0,0.0,0.0,0.0,0.0,0.0,0.0,0.0,0.0,0.0,0.0,0.0,0.0,0.0,0.0,0.0,0.0,0.0,0.0,0.0,0.0,0.0,0.0,0.0,0.0,0.0,0.0,0.0,0.0,0.0,0.0,0.0,0.0,0.0,0.0,0.0,0.0,0.0,0.0,0.0,0.0,0.0,0.0,0.0,0.0,0.0,0.0,0.0,0.0,0.0,0.0,0.0,0.0,0.0,0.0,0.0,0.0,0.0,0.0,0.0,0.0,0.0,0.0,0.0,0.0,0.0,0.0,0.0,0.0,0.0,0.0,0.0,0.0,0.0,0.0,0.0,0.0,0.0,0.0,0.0,0.0,0.0,0.0'
p307
asg14
F0.0
sg15
S'cd /mnt/spark; sbin/stop-all.sh; sleep 5; sbin/start-all.sh;./bin/spark-submit --class org.apache.spark.examples.mllib.research.SynchronousADMMTests examples/target/scala-*/spark-examples-*.jar --algorithm SVMADMM --regType L2 --regParam 0.000100 --format cloud --numPartitions 40 --runtimeMS 45 --pointCloudPointsPerPartition 100000 --pointCloudPartitionSkew 0.000000 --pointCloudLabelNoise 0.200000 --pointCloudDimension 100  --ADMMmaxLocalIterations 500 '
p308
sg17
I1
sg18
g35
sg20
F1.0
sg21
g306
sg22
g307
sg23
I4080
sa(dp309
g2
F5278704.1563329734
sg3
(lp310
S'RESULT:'
p311
aS'SVMADMMAsync'
p312
aS'200'
p313
aS'5595'
p314
aS'0.2395075'
p315
aS'5278704.156332973'
p316
aS'5.726072421800525E-6'
p317
aS'5278704.156338699'
p318
aS'-0.016775501943259302,-0.015836173642992075,-0.015624237031825645,-0.016096628904379472,-0.01576468449553622,-0.01663312167332334,-0.016679364018773728,-0.01563267100943817,-0.015379603497522562,-0.016020906131366187,-0.015954604096440398,-0.015155662693387013,-0.015403997722270158,-0.015891327674304727,-0.015450029350093257,-0.016175514042690443,-0.015460676512041156,-0.016208174633106028,-0.016106477173290487,-0.016657751247158195,-0.016585653889691784,-0.01608726085130863,-0.016688732148183148,-0.015801808735114296,-0.01645638954554506,-0.013947437339012483,-0.015978500223530243,-0.016072671950584108,-0.016512331424515154,-0.016199652967718876,-0.01550138430329026,-0.016073202376877954,-0.017523186939788174,-0.015690653482957815,-0.016219835924490136,-0.016341619369323192,-0.01572042094682215,-0.015196741560721216,-0.016998876173302313,-0.015959274941435817,-0.015556646740253048,-0.01629854456306379,-0.016165052280690238,-0.014996747024302884,-0.016019760610081316,-0.01596389714940695,-0.015421232145557294,-0.01569684969113984,-0.01555426035923307,-0.01694883032754585,-0.01663338518339056,-0.017594870382209797,-0.016237164920166896,-0.014415308367624906,-0.015547703740464476,-0.015454058247094896,-0.016457063826047946,-0.01603771745042391,-0.015545097333274523,-0.015033493739266898,-0.018017674566397978,-0.01598332729693351,-0.015568793348353554,-0.015711320770303384,-0.016797323238977552,-0.01614105773946569,-0.016748562740171075,-0.015517181805275511,-0.01532070813494976,-0.01630060376055119,-0.015937830904447323,-0.014524608140533557,-0.015439945262417048,-0.016757428910904988,-0.015263859682115102,-0.015722464857719956,-0.01638700057357239,-0.0165010562887661,-0.015907297362980983,-0.016199582545501655,-0.01476402334211254,-0.017495854184060262,-0.01664886045558086,-0.015729972089525278,-0.015585790616911545,-0.017627724205486337,-0.015401883864825326,-0.016221226922470484,-0.01660014314044898,-0.015279078224833131,-0.01722808700488504,-0.01674528457208508,-0.014935901746058276,-0.01663355112937658,-0.016474294564039805,-0.015970595430847345,-0.015772037631154465,-0.01655513643261895,-0.01499244373121895,0.17838584125496884'
p319
asg14
F5.7260724218005248e-06
sg15
S'cd /mnt/spark; sbin/stop-all.sh; sleep 5; sbin/start-all.sh;./bin/spark-submit --class org.apache.spark.examples.mllib.research.SynchronousADMMTests examples/target/scala-*/spark-examples-*.jar --algorithm SVMADMMAsync --regType L2 --regParam 0.000100 --format cloud --numPartitions 40 --runtimeMS 45 --pointCloudPointsPerPartition 100000 --pointCloudPartitionSkew 0.000000 --pointCloudLabelNoise 0.200000 --pointCloudDimension 100  --ADMMmaxLocalIterations 500 '
p320
sg17
I200
sg18
g48
sg20
F0.23950750000000001
sg21
g318
sg22
g319
sg23
I5595
sa.