(lp0
(dp1
S'training_loss'
p2
F310062734.7176739
sS'line'
p3
(lp4
S'RESULT:'
p5
aS'SVM'
p6
aS'1'
p7
aS'3917'
p8
aS'0.3501445'
p9
aS'3.100627347176739E8'
p10
aS'0.02232460765173832'
p11
aS'3.100627347399985E8'
p12
aS'-1.5017520958807997,-1.501567725452023,-1.5023505569257831,-1.501962662280597,-1.5015202880207554,-1.5020287858440098,-1.5026903880814684,-1.5014261187239164,-1.5020537484729157,-1.5010704975646956,-1.500765814734254,-1.5016512113347433,-1.5013345539161451,-1.5017580466850555,-1.5019553941103492,-1.5009905431106378,-1.5015762372220043,-1.5018502837752445,-1.5022915269921786,-1.5015063825881547,-1.5021261745460455,-1.5014056669433973,-1.5025189610493432,-1.5021594879566158,-1.5020828067722716,-1.5015397339628316,-1.5017918844182914,-1.5016985866299002,-1.5018315395985535,-1.5021574667029283,-1.5021543187185886,-1.5012932507232917,-1.50073027236695,-1.5021124437980216,-1.5020302500909788,-1.5015891808531192,-1.5022706660715341,-1.5015381356695348,-1.5017670723093113,-1.5011153010642506,-1.5009859644251728,-1.5012210001421216,-1.5024609273982652,-1.5011866190253274,-1.5015538649114202,-1.5013490349935732,-1.5017807177881033,-1.5021266095065404,-1.5015547547613046,-1.5011964487705602,-1.5023899596872203,-1.5027479600682543,-1.5017124383494216,-1.5011472907898802,-1.5015270374366856,-1.5012896977280323,-1.502438375418961,-1.5014645043060952,-1.5010133782260158,-1.5016307692293756,-1.5026244897395864,-1.5020009296983912,-1.5016920327943668,-1.501493429333718,-1.5011768355646145,-1.5019859704950729,-1.501775117831441,-1.5013634356555914,-1.501818250961192,-1.5011712948163556,-1.5018792555745517,-1.5010412439044607,-1.5008528331638513,-1.5015649124895845,-1.502734850137255,-1.501425618064972,-1.5012824773372693,-1.502182215965666,-1.501385787281971,-1.5012784603459184,-1.5012137069452574,-1.5020733701507276,-1.5016192682290115,-1.5005195989043816,-1.5019087811708047,-1.50210449405848,-1.5020574040147114,-1.5017374760752826,-1.501794245279415,-1.5016990767071468,-1.5016810197237578,-1.502332199928551,-1.5005011538099597,-1.5014335011470155,-1.5015659194360638,-1.5014163259372741,-1.5015234552482157,-1.5016533654577895,-1.5009019508894337,-4.62E-4'
p13
asS'reg_penalty'
p14
F0.022324607651738319
sS'command'
p15
S'cd ~/spark; sbin/stop-all.sh; sleep 5; sbin/start-all.sh;./bin/spark-submit --class org.apache.spark.examples.mllib.research.SynchronousADMMTests examples/target/scala-*/spark-examples-*.jar --algorithm SVM --regType L2 --regParam 0.000100 --format cloud --numPartitions 40 --sweepIterationStart 1 --sweepIterationEnd 50  --sweepIterationStep 2  --pointCloudPointsPerPartition 100000 --pointCloudPartitionSkew 0.010000 --pointCloudLabelNoise 0.200000 --pointCloudDimension 100   '
p16
sS'iterations'
p17
I1
sS'algorithm'
p18
S'SVM'
p19
sS'training_error'
p20
F0.35014450000000003
sS'total_loss'
p21
g12
sS'model'
p22
g13
sS'runtime_ms'
p23
I3917
sa(dp24
g2
F172704459.01558805
sg3
(lp25
S'RESULT:'
p26
aS'SVM'
p27
aS'3'
p28
aS'2579'
p29
aS'0.34536825'
p30
aS'1.7270445901558805E8'
p31
aS'0.006912075483194308'
p32
aS'1.7270445902250013E8'
p33
aS'-0.8345079868001346,-0.8341065208193091,-0.8357313155892425,-0.835724720013368,-0.8351430460692846,-0.8345912380847703,-0.8364388996974157,-0.8347821678065324,-0.83470243459749,-0.8338655857369536,-0.8337423789002407,-0.834962044137879,-0.834210754518748,-0.8352653887870092,-0.8357641625205042,-0.8336804739867927,-0.8346598634246281,-0.8348088996567373,-0.8354970176198973,-0.8351259944704013,-0.8354299738368435,-0.8348106078682163,-0.8359620516433768,-0.8359647528803491,-0.8355708532281001,-0.8343241037000657,-0.835398839890062,-0.8354291387571208,-0.8348523151428038,-0.8356099676757474,-0.8357821447570342,-0.8347108520845622,-0.8337886433185802,-0.8354918974174157,-0.8355347999973193,-0.8344677674752534,-0.8357217950571243,-0.8348798616238864,-0.834897639816327,-0.8339250378784785,-0.8336193428978502,-0.8341479250141116,-0.8356570942857218,-0.8337365091264073,-0.8347727996177717,-0.8342933672484745,-0.8346263791006558,-0.8357437075530458,-0.8349254635903653,-0.8342261449267994,-0.8362486848859321,-0.8365745834669014,-0.8351462186252729,-0.8341332071146643,-0.8350839712217297,-0.8348072191126923,-0.8357648050466744,-0.8345762210427705,-0.8341641488102319,-0.8350959926772448,-0.8364912343675883,-0.8354980546337949,-0.8354034150469449,-0.8344900947234746,-0.8345262932260853,-0.8359720992167703,-0.8350726618952338,-0.8342665986351354,-0.8351802974846738,-0.8342722381439445,-0.8348271672542343,-0.8338001689253665,-0.8343457673043833,-0.8348883081583386,-0.8364283114550368,-0.8346224291358347,-0.8344174240528408,-0.8358113461090793,-0.8348185341517169,-0.8345752985669164,-0.83374162880268,-0.835021212950548,-0.8349506654745341,-0.8334844419614991,-0.8353467395981589,-0.8353343234836955,-0.8353490725005458,-0.8353680161152982,-0.835259745645548,-0.8346879640720213,-0.834796643433835,-0.8357969845576054,-0.8335243455901966,-0.8343620907162729,-0.8350724809446062,-0.8345857246777859,-0.8350330544459199,-0.8349299998129239,-0.8334145521904339,0.3298915786090537'
p34
asg14
F0.0069120754831943076
sg15
g16
sg17
I3
sg18
g19
sg20
F0.34536824999999999
sg21
g33
sg22
g34
sg23
I2579
sa(dp35
g2
F71477263.297561988
sg3
(lp36
S'RESULT:'
p37
aS'SVM'
p38
aS'5'
p39
aS'2967'
p40
aS'0.33028125'
p41
aS'7.147726329756199E7'
p42
aS'0.001199981527411867'
p43
aS'7.147726329876196E7'
p44
aS'-0.3426112333409276,-0.34207017297899656,-0.34433738831177235,-0.34458925146042796,-0.34389283146515537,-0.34252208925143857,-0.3452582196891782,-0.3433338870971334,-0.34268580923367165,-0.342029963893968,-0.341990004677188,-0.3434416726635079,-0.3423394482775469,-0.3439332204983172,-0.3445409037064597,-0.3417630241507644,-0.34300767388368425,-0.343007481177653,-0.34397826423817923,-0.34379119699321686,-0.34394667069892415,-0.3434185368096244,-0.34448273296975,-0.3448119502874222,-0.3441180162974824,-0.3424217611833231,-0.34408804268675786,-0.3442297719065505,-0.3431700408951286,-0.34414857726943454,-0.3445444132127593,-0.3433300566688402,-0.34206153148066654,-0.34405753218904017,-0.3442257100169759,-0.3427095225744522,-0.344302174527531,-0.34342031444713583,-0.3432607347652742,-0.3420440498243539,-0.34158617139961645,-0.3423996958677651,-0.34405771131113505,-0.3417062452322099,-0.34316990808929315,-0.3425012361064903,-0.34281626302862167,-0.3444606591356455,-0.3435395108266849,-0.3425357231162087,-0.3450594470147878,-0.34544627873221656,-0.34370738809726264,-0.3424326693842063,-0.3438303204993997,-0.3434281520267353,-0.3442212676709735,-0.3429710529309214,-0.3424534159497967,-0.3436557242736772,-0.34537224001626493,-0.3441350204687528,-0.34425179639362036,-0.34272511697787333,-0.3431033638437303,-0.34498407624172833,-0.3435499395583976,-0.3424982281008804,-0.34378492036246583,-0.34263315146575013,-0.34299338132582413,-0.34189592304156474,-0.3430381247169243,-0.34342187889269904,-0.34522733946737105,-0.34300695641138174,-0.3428326462445769,-0.3445539428737605,-0.34348788204974173,-0.34307243860154146,-0.34176472611378894,-0.3432825856890884,-0.34342661639585603,-0.3417890678948664,-0.34392602818795226,-0.3437696888082733,-0.3438386269039112,-0.34411877593759543,-0.3438603763684343,-0.34299813053977846,-0.34320366219462917,-0.34432226522217035,-0.34183715894893185,-0.3425621444269699,-0.3437572766446576,-0.342984715048672,-0.3436786424102276,-0.34346712065610646,-0.34138498953501634,0.5716484657109167'
p45
asg14
F0.0011999815274118669
sg15
g16
sg17
I5
sg18
g19
sg20
F0.33028125000000003
sg21
g44
sg22
g45
sg23
I2967
sa(dp46
g2
F54423955.117740057
sg3
(lp47
S'RESULT:'
p48
aS'SVM'
p49
aS'7'
p50
aS'3390'
p51
aS'0.53371125'
p52
aS'5.442395511774006E7'
p53
aS'9.891665976567676E-5'
p54
aS'5.442395511783897E7'
p55
aS'0.06438415358947308,0.06507452551315926,0.06240336375635669,0.06199845165538098,0.06284337525750011,0.06462238683570293,0.061414504892150806,0.06346126960451454,0.06442699672670607,0.06501381804634535,0.06497847129825324,0.06345102871209599,0.06471074861182333,0.06277500112270515,0.062094267047838464,0.06533219563055184,0.06397115767977676,0.06394045481181337,0.06276771436675946,0.06285774791448939,0.06283702087552823,0.06311298698212517,0.062405323408476626,0.06178145823996947,0.06271835037309892,0.06471776405520133,0.06257438912718807,0.06236598834794732,0.06367979126430925,0.06268871453632838,0.062148538267908726,0.06341779110165416,0.06485261129070333,0.06275819112279632,0.06244598723712616,0.06424387772613177,0.06251564826324005,0.06327607269391208,0.06370934789043045,0.06494514310882551,0.06549380353914436,0.06454802561279713,0.06288242517705958,0.06543686876375895,0.06373180286604632,0.06450194210366966,0.06412023647377138,0.06220704920873285,0.06312746922560877,0.0643392473697583,0.06163001214456487,0.06105398464724168,0.06301933150377659,0.0645779108143811,0.06287594482800629,0.06336997919797438,0.0626643617338879,0.06392042440376686,0.06436336394853873,0.06314237492646335,0.06118986367838991,0.06262993682018597,0.06233138344339295,0.06430357914129636,0.06358384888725496,0.06148575260544897,0.06330166118561148,0.06440172589646795,0.06287502274521348,0.06430676038749925,0.06397551543809088,0.06527376351427341,0.06363271676250273,0.06340004519825868,0.06152139398838419,0.06387858272194522,0.0640292791608629,0.062099057204330455,0.06317884140956756,0.06371748995963183,0.06522267178208219,0.06374626366804492,0.06346237783586842,0.06510124358221414,0.0628245036652216,0.06307064351258382,0.0629094380016938,0.06248355378544965,0.06277315614388812,0.06389398315947653,0.06366828153364129,0.06243197672886577,0.06519710212966023,0.06443261933775804,0.0629332984641938,0.06390996824137268,0.06297933624589513,0.06329300427267254,0.06572094045467805,0.7684037307701221'
p56
asg14
F9.8916659765676756e-05
sg15
g16
sg17
I7
sg18
g19
sg20
F0.53371124999999997
sg21
g55
sg22
g56
sg23
I3390
sa(dp57
g2
F98570007.356845126
sg3
(lp58
S'RESULT:'
p59
aS'SVM'
p60
aS'9'
p61
aS'4417'
p62
aS'0.3309595'
p63
aS'9.857000735684513E7'
p64
aS'0.002303732800016369'
p65
aS'9.857000735914886E7'
p66
aS'-0.475400720015509,-0.4746943020904635,-0.47748074810703156,-0.4776694507033413,-0.47674182917426633,-0.475169825399945,-0.47848121322330134,-0.4761244251494672,-0.47547860924534957,-0.47461311803760586,-0.4745262695487612,-0.4762925150923869,-0.47493573181594434,-0.4768981882020785,-0.47761517992774283,-0.47418577012619234,-0.4757218756774654,-0.47590654015619205,-0.47703678129805926,-0.47672209188097026,-0.4769340247691768,-0.4765140914712807,-0.47747870367722456,-0.4780578143382064,-0.4770366869068252,-0.47495504699064006,-0.4770453510219903,-0.47724002457282044,-0.476104826789231,-0.4770712011400648,-0.47765253516318606,-0.47613941186833086,-0.4745667269776911,-0.4769932662306321,-0.4772888189961904,-0.47551682835203823,-0.47720070397341074,-0.4763282904902564,-0.47597285170596876,-0.47465926277332615,-0.4740789319519201,-0.4750668427015962,-0.477067323785637,-0.4741101450295465,-0.4758496974407097,-0.475112174693092,-0.47564743033111123,-0.4774973746864143,-0.47647015654070235,-0.47523943405737606,-0.478153388509196,-0.4788741775498573,-0.4766539932583797,-0.47504348204963376,-0.4766868525679937,-0.4762156374530564,-0.47718188792577354,-0.47571857278541835,-0.47518701598445673,-0.4766266457247195,-0.47878765318827216,-0.47712470588717254,-0.47738657592057876,-0.47522808708275066,-0.4758817554774093,-0.4781902171481156,-0.4763736237378109,-0.4752093864049424,-0.47672185779616494,-0.4752443553935649,-0.4758111672530321,-0.47436527270587264,-0.4757970865138063,-0.4762380862097988,-0.478265857765626,-0.47577283428501116,-0.4756542719607226,-0.4776302273259558,-0.47647536172892446,-0.4758277079170041,-0.47449239372935076,-0.47603460997789665,-0.47627745837234253,-0.47426396122136594,-0.4768873921921347,-0.4767121479180001,-0.4768531760934851,-0.4771509009807537,-0.47685561057577697,-0.4757761831265941,-0.4760625044009167,-0.4774229800799161,-0.4742284842343695,-0.4752961921503613,-0.47661622220032246,-0.47568390904676283,-0.4765524627613062,-0.4763367019545279,-0.4738461747125169,0.7648340030938273'
p67
asg14
F0.0023037328000163689
sg15
g16
sg17
I9
sg18
g19
sg20
F0.33095950000000002
sg21
g66
sg22
g67
sg23
I4417
sa(dp68
g2
F32695898.646747898
sg3
(lp69
S'RESULT:'
p70
aS'SVM'
p71
aS'11'
p72
aS'3413'
p73
aS'0.28365125'
p74
aS'3.26958986467479E7'
p75
aS'3.2384598014972095E-4'
p76
aS'3.2695898647071745E7'
p77
aS'-0.15482298624324559,-0.15406393204470378,-0.15719562386643765,-0.15756833034217457,-0.15654223215294125,-0.15454210821774542,-0.15832452614846815,-0.15583351951859953,-0.15486188121068845,-0.15408715060796244,-0.15404816566441007,-0.15592726841254761,-0.15439660125548194,-0.15667036455295139,-0.15745884643988733,-0.15362595289189698,-0.1552897352737738,-0.1554030410727122,-0.1566898674361486,-0.15652247927653487,-0.156620982982691,-0.1563264162164674,-0.15711901579755863,-0.15793025833011143,-0.1567263606098714,-0.15435283636791747,-0.1568216691599906,-0.15710383241306136,-0.15565227824219244,-0.15677052730579055,-0.15742426515114438,-0.15585263203453992,-0.15415651475148048,-0.1566998650026681,-0.15707503600655232,-0.15508179557882887,-0.1569232370135268,-0.1560568922412484,-0.15555467130817696,-0.15419175069456434,-0.15351470468823683,-0.15456519719315837,-0.1566670542986295,-0.15349245109888793,-0.15546112800820402,-0.15467601892776536,-0.15516439106343294,-0.15733131812259896,-0.15629080980972115,-0.1548273328765287,-0.1579947744210843,-0.15878376476366632,-0.15635733233854177,-0.15458274538592712,-0.1564818044812881,-0.1559509255408665,-0.15679156639001152,-0.15533834681482062,-0.1548433698733826,-0.15640353148666816,-0.15871422156081064,-0.156941207610457,-0.15723092828340152,-0.1547313985602163,-0.15560155031900422,-0.15816520946599502,-0.15604882840681564,-0.154735543774315,-0.1564659271859597,-0.15482835127492506,-0.1552693604339863,-0.15381027245186463,-0.15561771186439846,-0.15592821722860423,-0.1580666977529017,-0.15536511428944452,-0.15527351245234938,-0.15738239654008826,-0.1562351650169668,-0.15547874223672883,-0.15391088001890266,-0.1555215710868693,-0.15593643434029125,-0.15382375716605626,-0.15662303394260302,-0.15633910822917926,-0.15658553920203352,-0.15693278630299548,-0.15661402338637087,-0.15535424778537507,-0.15570960338544712,-0.15713703248736727,-0.15381121631844397,-0.15480893015346792,-0.15637335386329435,-0.1553470850569053,-0.15632243117056746,-0.15598414983173153,-0.1532331648829197,0.9125522218745143'
p78
asg14
F0.00032384598014972095
sg15
g16
sg17
I11
sg18
g19
sg20
F0.28365125000000002
sg21
g77
sg22
g78
sg23
I3413
sa(dp79
g2
F112538856.89911443
sg3
(lp80
S'RESULT:'
p81
aS'SVM'
p82
aS'13'
p83
aS'7272'
p84
aS'0.566003'
p85
aS'1.1253885689911443E8'
p86
aS'2.921772107280745E-4'
p87
aS'1.1253885689940661E8'
p88
aS'0.13630295975599035,0.1366974733666935,0.13525918574246015,0.13502367983232622,0.13551718324552708,0.13644292540587996,0.13480002780446596,0.1358373551487417,0.13634779547583134,0.13662304190332158,0.13670910869787617,0.13589122956961722,0.1365225059037359,0.1354471849884934,0.1350985933477355,0.1368965343593665,0.1360992603345782,0.13607846961459671,0.13541726579936972,0.13548546778183904,0.13551190630096918,0.13548492018508662,0.135323414062938,0.1348207420100292,0.13550881776065302,0.13658645842185965,0.13538292455877654,0.13524298660988043,0.1359543840557969,0.13542999558379937,0.13516291645817993,0.13589651074908748,0.13651900413462453,0.13547544530508282,0.13527596779756187,0.1361319320450148,0.13539081464636427,0.13573480778145436,0.13604351617752425,0.1365594717052996,0.13688836648601346,0.1363857791294578,0.1355595383519548,0.13688240065300708,0.13598222396432366,0.13641023692956197,0.13613103492330278,0.1350986881096429,0.13558466197529545,0.13626862041559984,0.1349155060764191,0.13442843536111174,0.13558832649401759,0.1364066363220074,0.13553019645059788,0.13575622068545878,0.13547700190382622,0.13608120899520168,0.13622097034646957,0.13563746791745449,0.13454751439059615,0.13537861383893257,0.13514508526994692,0.13638172975806964,0.13590639029378082,0.13470056491869795,0.13574545802149637,0.13629777499480944,0.13555109063098789,0.1362833894249858,0.136106068595456,0.136817839442252,0.13585994341564714,0.13581554840003748,0.1348719281155183,0.1360682322717446,0.13604906719440785,0.1351156881871487,0.13560284522726682,0.13596475704255445,0.13673296092595602,0.13602127833822764,0.1358279875759956,0.13668103033514856,0.1354468140813963,0.13561838434607595,0.13546490298524078,0.13527210468059456,0.13538699181046876,0.136105403791008,0.13596323401176788,0.13526172181984125,0.13677878971855376,0.13632451648160301,0.13558180062885883,0.1360585920870944,0.13559339615054697,0.135739327209881,0.1369866492655227,1.0466456745748753'
p89
asg14
F0.00029217721072807449
sg15
g16
sg17
I13
sg18
g19
sg20
F0.56600300000000003
sg21
g88
sg22
g89
sg23
I7272
sa(dp90
g2
F55901467.48551587
sg3
(lp91
S'RESULT:'
p92
aS'SVM'
p93
aS'15'
p94
aS'4191'
p95
aS'0.30548175'
p96
aS'5.590146748551587E7'
p97
aS'8.249285330783835E-4'
p98
aS'5.59014674863408E7'
p99
aS'-0.26911124396678243,-0.26874470463391037,-0.2703534610837356,-0.2704962690211376,-0.2698441256072519,-0.269067371628832,-0.27083690766885493,-0.2695064903288101,-0.26922677861659927,-0.26865149001797417,-0.2684851484262059,-0.26952763649157563,-0.26882091296121285,-0.2699671944828854,-0.27035903351243085,-0.26836101970505966,-0.2692579845149299,-0.26942551255793684,-0.27013983911600614,-0.26987225049930746,-0.2699693524231271,-0.2699161761963083,-0.27024788148815826,-0.270682036430582,-0.2700156260398245,-0.268812926187862,-0.2700239660064946,-0.2701651592722093,-0.26950988132854925,-0.27011121981877895,-0.27035565437002407,-0.26941032334884124,-0.2686717054068041,-0.27003109110187934,-0.27021497559590735,-0.2693180065272692,-0.2701547145530897,-0.26964367954608626,-0.2693592341114168,-0.26874779868597476,-0.26835895750314576,-0.26893645249872034,-0.2700567464010219,-0.26839932248184417,-0.26934422696856075,-0.2689569446824944,-0.2693208327493083,-0.270372308484347,-0.2698401485462504,-0.2690573755518868,-0.2706396954504884,-0.2712294751774471,-0.26979195281625945,-0.26885747585929365,-0.26982632891782465,-0.26953672907683,-0.27013560798661285,-0.26928916952319826,-0.26906444969121446,-0.26980133566966147,-0.2711171848770987,-0.27014969108480147,-0.27027669906960805,-0.2689449042538856,-0.2694245446429725,-0.27074666730215424,-0.26970980674227124,-0.2690726875849476,-0.2698707452120198,-0.26902801117941855,-0.2693247528548097,-0.26842745914172267,-0.26939652511228385,-0.2696123803214091,-0.27072237753472395,-0.2692983975547714,-0.2692992879703578,-0.27037620566339027,-0.26975677274290444,-0.2692745436969246,-0.2685891718495138,-0.2694899967862011,-0.2696170751711783,-0.2684906787066623,-0.2700214349009311,-0.2698795678518129,-0.2700890813981516,-0.27012529212672926,-0.27003167582376136,-0.2693209580463102,-0.26950128239050375,-0.2703433166156838,-0.2683753301902583,-0.2690990809067732,-0.26977313799576885,-0.26930785611280195,-0.26978212832087195,-0.26967110211098444,-0.268238178563123,1.026561746152543'
p100
asg14
F0.00082492853307838346
sg15
g16
sg17
I15
sg18
g19
sg20
F0.30548175
sg21
g99
sg22
g100
sg23
I4191
sa(dp101
g2
F3761674.21645816
sg3
(lp102
S'RESULT:'
p103
aS'SVM'
p104
aS'17'
p105
aS'4659'
p106
aS'0.199879'
p107
aS'3761674.21645816'
p108
aS'1.2975951602735544E-4'
p109
aS'3761674.2165879193'
p110
aS'-0.014226302582015099,-0.013800780572664845,-0.015615824193126931,-0.015931666072901945,-0.015261840370277557,-0.014150153877431737,-0.01619193930780255,-0.014828111684465045,-0.014386165281119495,-0.013767348343306118,-0.013632232546657408,-0.014789281251060077,-0.013963770755355376,-0.01532922699088246,-0.015796535614615054,-0.01348073795838614,-0.014418154745355821,-0.014570310371883027,-0.015366613854271377,-0.015245962429986104,-0.015254965457015074,-0.01531920247153623,-0.015499626356810625,-0.016003929515880422,-0.01528467104949019,-0.013886367286359225,-0.015374071693761954,-0.015607424814231247,-0.014669719896261701,-0.015420190267188438,-0.015692927743780893,-0.014671834136310652,-0.013916324257299467,-0.015294657541138762,-0.015588477065872103,-0.014534333099912894,-0.015446913369488946,-0.014925471527116041,-0.014545772227113618,-0.013935358554037519,-0.01346509106776736,-0.014071452526777467,-0.015270555068269936,-0.013449545243554739,-0.014589342044704467,-0.01420249167979537,-0.014488363038038382,-0.01577889369670732,-0.015221051971565314,-0.014226317715391512,-0.01602003015525083,-0.016718443787512888,-0.015125324083171465,-0.014052463757196043,-0.015161045021498482,-0.014864669661413782,-0.015380333604643193,-0.014537132485302251,-0.014331017916186517,-0.015093456798329907,-0.016545813172534146,-0.015542924905869476,-0.01561672121189478,-0.014064198290793972,-0.01478302208246346,-0.016256852901681773,-0.014990202864978819,-0.014341443177055296,-0.015243948414067343,-0.014244274818021652,-0.014431800385555887,-0.013539132535912074,-0.014820058409900028,-0.01492491534292098,-0.01610333454777324,-0.014536063524905884,-0.014521187097883859,-0.015751403457446272,-0.015057010475153898,-0.014533465166077703,-0.01363088337005744,-0.014642507216900552,-0.014841270314742833,-0.013690942401411915,-0.015302924070423302,-0.015166353375849873,-0.015411545023693518,-0.015467448779412196,-0.015402235730981317,-0.014541655970689071,-0.014749172224064466,-0.01568848125349287,-0.013556359207421681,-0.014288536890463194,-0.01507471544023703,-0.014571903247920043,-0.015124206795731454,-0.014950694666112124,-0.013335209313288549,1.1294616817500387'
p111
asg14
F0.00012975951602735544
sg15
g16
sg17
I17
sg18
g19
sg20
F0.199879
sg21
g110
sg22
g111
sg23
I4659
sa(dp112
g2
F73878875.373292595
sg3
(lp113
S'RESULT:'
p114
aS'SVM'
p115
aS'19'
p116
aS'4664'
p117
aS'0.314565'
p118
aS'7.38788753732926E7'
p119
aS'0.0013798978952518466'
p120
aS'7.387887537467249E7'
p121
aS'-0.3569743527614326,-0.3566272424442619,-0.3581508152476679,-0.35840411667652,-0.35770914120126795,-0.35705030829685375,-0.3586578734037089,-0.35725685632260307,-0.35719830834688426,-0.3564298508514531,-0.356141126621514,-0.3572990399133887,-0.3566532084794703,-0.35775854915260125,-0.35816463594759096,-0.3561673854050983,-0.35700545205760087,-0.3572747049270458,-0.35796089687761057,-0.357640119524957,-0.35780419986860373,-0.357770703923705,-0.3580995993502112,-0.3583811894458213,-0.35785506788231397,-0.35665403110172644,-0.3577685414755086,-0.35798323915805685,-0.35721711707363185,-0.35803975329783383,-0.3581306372692553,-0.3570366173543905,-0.35649840472248207,-0.3578427984376311,-0.3580637224340345,-0.357224910387907,-0.35798476943451335,-0.35742714052915436,-0.35716798841990127,-0.3566418375341368,-0.35616295632945266,-0.3567107714482889,-0.3578765820610346,-0.3561912218543002,-0.3571273745577881,-0.3568283375956012,-0.3570950978620382,-0.3581937630365828,-0.35774806873710197,-0.3567696251575154,-0.35839885318150544,-0.3591403466308618,-0.35753705386523477,-0.3566313228569673,-0.3575623329199341,-0.35728862544909396,-0.3579694894106574,-0.3571204470506759,-0.3568663137551643,-0.35764764979130803,-0.35899145537800276,-0.35800301187835765,-0.3579931495421137,-0.35659735090364686,-0.3572744476791064,-0.3585575969689144,-0.35754996905549674,-0.35700240019170615,-0.3576644427790816,-0.3568018179133841,-0.3570029275273461,-0.35617905782130954,-0.3572447369144325,-0.3574177991795708,-0.3586042320205754,-0.3570562216800577,-0.3570800085867548,-0.3581849184838779,-0.35748248189070725,-0.3569156511604968,-0.3563042448327407,-0.35738922257769545,-0.35743479250447735,-0.35628082126990157,-0.35779255369420043,-0.35773705250807725,-0.3579801003345515,-0.35784783983741086,-0.357840375731739,-0.35711764559225334,-0.35734495003563543,-0.3582535178280133,-0.3561832503127672,-0.3569615469406161,-0.35752405048400104,-0.3571714728385488,-0.35753588353003246,-0.3574931684848461,-0.3559836976734816,1.0738138451554398'
p122
asg14
F0.0013798978952518466
sg15
g16
sg17
I19
sg18
g19
sg20
F0.31456499999999998
sg21
g121
sg22
g122
sg23
I4664
sa(dp123
g2
F26889791.228143126
sg3
(lp124
S'RESULT:'
p125
aS'SVM'
p126
aS'21'
p127
aS'5028'
p128
aS'0.2540575'
p129
aS'2.6889791228143126E7'
p130
aS'3.0032941089049047E-4'
p131
aS'2.6889791228443455E7'
p132
aS'-0.12789158721998875,-0.12754062738944041,-0.12928441093972304,-0.12967505747488223,-0.12896383983861864,-0.1279612025770807,-0.12988370665300866,-0.1284225412990211,-0.1281740644369383,-0.12738144419624978,-0.12714431959167483,-0.12840779470569488,-0.1276051654421943,-0.12893175453399866,-0.12942764399852036,-0.12714555402204758,-0.12802009720924,-0.12826574926619166,-0.12904117895265116,-0.1288513838701704,-0.1289341135461361,-0.12899171920299743,-0.12918276922609379,-0.12957915763971034,-0.1289803255655116,-0.12756481662660063,-0.12896465619204067,-0.12925465267669112,-0.1282488071908524,-0.12918073679839664,-0.12931676875857334,-0.12816202602398086,-0.12758334600863452,-0.12897816811130391,-0.1292484765284771,-0.128267927702117,-0.1291338579015044,-0.12854503903447087,-0.1282013677939744,-0.1276466741857547,-0.12711034452290304,-0.12766798890419306,-0.1289378887675023,-0.12708620471341403,-0.12819699351495764,-0.12791475450221643,-0.12809708559685556,-0.12941799902955003,-0.12896365907261204,-0.12782456909366252,-0.12964731051772382,-0.1304316225802878,-0.128712108775599,-0.12763012748113461,-0.1287542629980527,-0.1284465686872851,-0.12906629119745444,-0.12819849862661853,-0.1279483803126341,-0.12880128987472877,-0.13024174758955992,-0.12922739831959013,-0.1291807433762151,-0.127592073997586,-0.12846969997783797,-0.12989479000641596,-0.12867648115654873,-0.12809070588700144,-0.12885282083643906,-0.12783930716434752,-0.1279599058082103,-0.1271245114046866,-0.12848221175484154,-0.12857818127249415,-0.1298234127467186,-0.12814210388935687,-0.1281214665408405,-0.12935351750167084,-0.12861252713634602,-0.1279843587451991,-0.12719646442132762,-0.1283896599658586,-0.12851106155505948,-0.1272903802456451,-0.1289194161212795,-0.1288707942827611,-0.1291417676532732,-0.12901934359125605,-0.1290453911605563,-0.12820368316056513,-0.1284383539485565,-0.12942419112599646,-0.1272143276377017,-0.12797801801303405,-0.1286799655558761,-0.12825723224893076,-0.12873933644665136,-0.12860087473700726,-0.12689398100788798,1.1697950323889963'
p133
asg14
F0.00030032941089049047
sg15
g16
sg17
I21
sg18
g19
sg20
F0.25405749999999999
sg21
g132
sg22
g133
sg23
I5028
sa(dp134
g2
F73983077.405949503
sg3
(lp135
S'RESULT:'
p136
aS'SVM'
p137
aS'23'
p138
aS'5828'
p139
aS'0.524186'
p140
aS'7.39830774059495E7'
p141
aS'2.241311551057985E-4'
p142
aS'7.398307740617363E7'
p143
aS'0.08784223002327812,0.08823311550611251,0.08653702893204748,0.08606147481775767,0.08676209328878848,0.08779687108306977,0.0859468244421724,0.08736083998332281,0.08766147722749648,0.08836295505474265,0.08863497329957357,0.08738661757505148,0.08815538651688053,0.08687750125567822,0.08638945805147785,0.08864851776614777,0.08780446470968532,0.08755875382417265,0.08676988768071572,0.08693251068177851,0.08686986145563293,0.08672396897470247,0.0866640177976407,0.08625172416864753,0.0868291132682398,0.08820561801005636,0.08681274990643399,0.08654407662745346,0.08761974136501995,0.08658363748711474,0.08654675499830718,0.08764091475196836,0.08808243661259864,0.08683423678357949,0.08653467768665479,0.08747628427196695,0.08671282566714957,0.08722002761498028,0.0875700966438884,0.0880446904261074,0.0886413132360099,0.08806428808067668,0.08696734767569958,0.08869248340143787,0.08753509571890206,0.0878336303204491,0.08775454521630358,0.08636728979510447,0.08676893310562923,0.08793283870183853,0.08622884463368859,0.08540317711869334,0.08709804128290108,0.08813699680506376,0.0870245136479708,0.08734315279044835,0.08678735584495958,0.08756754954391348,0.08779066241947926,0.08698219517050153,0.0856062136595858,0.08662761243709956,0.08663776510277434,0.08822489789428567,0.08721301522885729,0.08586703345576752,0.08710414984401975,0.08759531215163444,0.08690203370845603,0.08790634304799624,0.08789693574462117,0.08866188036901027,0.08719435553736808,0.08720026377938318,0.08598602797200454,0.08762444796344646,0.08758744478848926,0.08644055255730729,0.08713743756412842,0.08780457020182336,0.08860964248712468,0.08739020301533272,0.08727031749614071,0.08834811298633687,0.08688370040512935,0.08695808969296079,0.08665257397339132,0.08674545074517125,0.08671707923877421,0.08762310960180877,0.08737209867836608,0.08643284151270406,0.08849752281860127,0.08779399937940738,0.08707074639677814,0.08749459443519945,0.08705156756109501,0.08711943941917112,0.0888673636865554,1.2194785573628464'
p144
asg14
F0.00022413115510579851
sg15
g16
sg17
I23
sg18
g19
sg20
F0.52418600000000004
sg21
g143
sg22
g144
sg23
I5828
sa(dp145
g2
F45725982.267837211
sg3
(lp146
S'RESULT:'
p147
aS'SVM'
p148
aS'25'
p149
aS'6434'
p150
aS'0.28819375'
p151
aS'4.572598226783721E7'
p152
aS'6.24484286926467E-4'
p153
aS'4.57259822684617E7'
p154
aS'-0.22007488530213193,-0.2197365669539008,-0.22151252010453032,-0.2219330658954814,-0.2211447318915459,-0.22022996125659755,-0.2221157333839484,-0.22053619922850576,-0.22040405755804293,-0.21948258180628522,-0.21916647246485726,-0.22056776666953826,-0.21976028355283742,-0.22106766902565528,-0.22155232730180163,-0.21921050305824433,-0.22010713207905058,-0.22044078555521152,-0.22122695512303125,-0.22093618079807034,-0.22111842855385735,-0.22116627709187198,-0.2213740832945002,-0.22169661702190563,-0.2211907588307349,-0.21971834408020813,-0.22109910448423875,-0.22135117285175204,-0.22030961722296194,-0.2214561908890022,-0.22147293427403886,-0.22019870124331437,-0.21970319657898055,-0.22114118320513065,-0.22143605200359268,-0.22050754914009096,-0.22128327156486063,-0.22066614053842626,-0.2203805997377611,-0.2198362369769322,-0.21921371130080886,-0.21976695311666877,-0.22110918376463568,-0.21915579195235424,-0.2203646380855638,-0.22010408584619578,-0.22020974654860703,-0.22159936734707628,-0.22115521299244445,-0.219924698482377,-0.22181544123225194,-0.22267448862175399,-0.22079899839297012,-0.21973380926252928,-0.22085498794998165,-0.22054972458259958,-0.22127814807698062,-0.22033163711330916,-0.22004797750823507,-0.22099708871578927,-0.22248995546396177,-0.22141404521335573,-0.22126202757778557,-0.21964641677263114,-0.22061743063231445,-0.22205892279720557,-0.2208583526610819,-0.22029522412524655,-0.22099920612098028,-0.21995920720837475,-0.2200187031694833,-0.2192225637144128,-0.2206271490431405,-0.22072509979091098,-0.22206573551347158,-0.22028537952820998,-0.22030470935533236,-0.2215139844510943,-0.2207242424720693,-0.22000884452486766,-0.21923241847755887,-0.2206019436053493,-0.22068364260414636,-0.2194103630149638,-0.2210462981408146,-0.22103087925550763,-0.2213750268182803,-0.22112482667334094,-0.22118573535365746,-0.22033291631795854,-0.2205812441726292,-0.221633950572078,-0.2192991418787244,-0.22018089165066818,-0.22078372898905185,-0.22040488546905823,-0.2208175806119018,-0.22078535560572354,-0.21895759217072538,1.1936204542727609'
p155
asg14
F0.00062448428692646698
sg15
g16
sg17
I25
sg18
g19
sg20
F0.28819375000000003
sg21
g154
sg22
g155
sg23
I6434
sa(dp156
g2
F4764974.7823222224
sg3
(lp157
S'RESULT:'
p158
aS'SVM'
p159
aS'27'
p160
aS'7348'
p161
aS'0.199879'
p162
aS'4764974.782322222'
p163
aS'1.6427338868058974E-4'
p164
aS'4764974.782486496'
p165
aS'-0.019340564902533594,-0.018928379211780588,-0.02087833230257266,-0.021385969410041394,-0.020603378007263223,-0.019464400351938915,-0.021491714502446538,-0.019941926133015944,-0.019648567344001028,-0.01870534714267645,-0.01842865619758305,-0.019910938488177918,-0.018997553980295304,-0.020461022125805056,-0.02098212383457633,-0.01842891702708553,-0.019371608198111692,-0.0196925064553147,-0.020542085509146338,-0.020337546257686023,-0.02045456943563438,-0.02061522133539906,-0.02067578777066638,-0.021061545290880404,-0.020517627592468557,-0.018930802490495238,-0.02054979877391401,-0.020808510481000714,-0.019572331845824853,-0.020817184499168973,-0.02087628770793494,-0.019537576916061047,-0.019059358969997192,-0.020482280207666223,-0.02081322669774993,-0.019814832370513277,-0.02061536003168396,-0.020027502442678147,-0.019662235405564443,-0.019160002188307684,-0.018463980859615772,-0.01903205714869713,-0.020384694911709772,-0.01835425885785537,-0.019711874705456475,-0.019441120944794124,-0.019474892498636417,-0.021022688600902978,-0.020560481829209165,-0.019223719725929844,-0.02120810852162508,-0.022155121865999772,-0.020169260997880245,-0.019015070883895355,-0.020260538346033072,-0.01988332641584624,-0.020594524145128967,-0.01966461655133582,-0.019400378761120454,-0.020326249803281266,-0.021913514322530872,-0.020816674341461255,-0.020646399875122276,-0.018915074478914856,-0.020047464142541896,-0.02156433969271876,-0.020172697610671877,-0.019634328777801066,-0.020437900087300773,-0.019294055773738022,-0.019254757635178144,-0.018470328624275154,-0.020097145262744642,-0.020097475312855703,-0.02147446886756696,-0.01964264668199979,-0.01962329129135433,-0.020934146272063914,-0.020098079628205187,-0.019332748129554878,-0.01841105420051696,-0.019903018974813308,-0.019992865743598418,-0.018738125908374106,-0.020404166866461418,-0.020350589870129443,-0.02078788023683853,-0.020552249312728574,-0.02060312211321952,-0.01963780504188499,-0.019894296610341144,-0.021007876841126802,-0.01858291727185303,-0.01951662315423619,-0.02017596374291604,-0.019761183226053164,-0.02023553561004518,-0.020176667802658546,-0.018177302464774336,1.2661316757605208'
p166
asg14
F0.00016427338868058974
sg15
g16
sg17
I27
sg18
g19
sg20
F0.199879
sg21
g165
sg22
g166
sg23
I7348
sa(dp167
g2
F61728721.86772909
sg3
(lp168
S'RESULT:'
p169
aS'SVM'
p170
aS'29'
p171
aS'6312'
p172
aS'0.30288675'
p173
aS'6.172872186772909E7'
p174
aS'0.001029250821609264'
p175
aS'6.172872186875834E7'
p176
aS'-0.29825629074853677,-0.29784811872192996,-0.29968971155874863,-0.3001155213334042,-0.29928623219454575,-0.2984236197740425,-0.3003053075728067,-0.2986268383597064,-0.2985650441621827,-0.29753556855958013,-0.29717499230953215,-0.2986899490227882,-0.29788468483089225,-0.29914821491093857,-0.29961021060492554,-0.29722246779731387,-0.29817505323176646,-0.29859347861075375,-0.29937250022182293,-0.2990061562351267,-0.2992592013162253,-0.2993060173760289,-0.299505471216332,-0.29979455302227914,-0.2993154319731116,-0.29784934014858877,-0.2992061708161454,-0.29943990449537794,-0.29834080754046477,-0.2996283126422975,-0.29960640604591543,-0.29822072798056026,-0.2977785424293946,-0.29925655752051517,-0.2995682336527651,-0.29866436149961184,-0.2993896440090184,-0.29876338595792606,-0.2985092615213556,-0.29801321635079425,-0.29728879298889144,-0.29783651886460916,-0.299243515495324,-0.29720704547881865,-0.29848683428004774,-0.29825534637897355,-0.29829828808946446,-0.29970424632847614,-0.2993147599395837,-0.29799645499699295,-0.29991301874189696,-0.3008752672195514,-0.2988782585405507,-0.2978015335873826,-0.298914554002781,-0.29856117696717177,-0.29945637967164923,-0.29840703740802543,-0.2981585012768751,-0.29910529078056136,-0.3006554141693486,-0.29956587511176613,-0.29933928638807067,-0.29768066955152717,-0.2987528703961386,-0.30020607112881603,-0.2989438851962329,-0.29841989792963663,-0.2991088709336641,-0.2980436238221802,-0.298034471399392,-0.29729861731787754,-0.2987549650151077,-0.2988165492030498,-0.3002399722828938,-0.2983877501110447,-0.29842362637932895,-0.29965276666129875,-0.29878104578073966,-0.2979777475771572,-0.2972172566351331,-0.298799900501443,-0.2988007068475992,-0.2974745507613313,-0.2991281296572814,-0.29911231871586114,-0.2995630752049338,-0.2992278918848727,-0.29927922107557065,-0.2984363993693953,-0.29868826761515654,-0.2998328286077778,-0.2973302297250713,-0.2983668215353436,-0.2988629155155607,-0.29847847573117264,-0.29886409275863435,-0.29895937841271275,-0.2969791968780412,1.2066515216423308'
p177
asg14
F0.0010292508216092639
sg15
g16
sg17
I29
sg18
g19
sg20
F0.30288674999999998
sg21
g176
sg22
g177
sg23
I6312
sa(dp178
g2
F23303387.855152473
sg3
(lp179
S'RESULT:'
p180
aS'SVM'
p181
aS'31'
p182
aS'6727'
p183
aS'0.23711125'
p184
aS'2.3303387855152473E7'
p185
aS'2.865127126762418E-4'
p186
aS'2.3303387855438985E7'
p187
aS'-0.11068697053250551,-0.1102349641623701,-0.11226942287255672,-0.11278593973001245,-0.11195113918980318,-0.11083818825222812,-0.11292980443508564,-0.11123688737227849,-0.1110055052848606,-0.10995789144806041,-0.10963690359915622,-0.11124464264954433,-0.110313225268853,-0.11174484990352676,-0.11227863428703638,-0.10966676841687154,-0.11065469719282452,-0.11106586385209297,-0.11189565199935059,-0.11161726069350716,-0.1118164821662061,-0.11195850046915508,-0.11202969632316938,-0.11239355426416159,-0.11186644944940062,-0.11023434038301554,-0.11184107333608732,-0.1121169763435298,-0.110810456085652,-0.11220509076670278,-0.11221417862889312,-0.11077865180461115,-0.11028933466142857,-0.11181757389738091,-0.11218026250306673,-0.11116676109915416,-0.11195067389970562,-0.11133374837981876,-0.11099595458184913,-0.11050471316571084,-0.10972717804166618,-0.11029136346684996,-0.11172623623685031,-0.10959259590011287,-0.11103003024007488,-0.11080712062769184,-0.11075563920757753,-0.11235262971990775,-0.11193744562099989,-0.11050199899896636,-0.11254467897940779,-0.11356081029788075,-0.11146431991176793,-0.11028529176947124,-0.11152245372643318,-0.11112676943025007,-0.11199868296780141,-0.11095706260786718,-0.11069375843978257,-0.11169769870718348,-0.1133295673190472,-0.11219480196659101,-0.11193980549607885,-0.11014583360849804,-0.11136346318211979,-0.1129206631454247,-0.1115076956788861,-0.11096440810621466,-0.11175125914755528,-0.11055879768810487,-0.11047389888194098,-0.10974430243547291,-0.11141976779485809,-0.11140351766559989,-0.11286979415359255,-0.11093278225520253,-0.11092693432309052,-0.11227865064189818,-0.11137145525659072,-0.1105068834125909,-0.10961253095689862,-0.11128142893179287,-0.11130466576200265,-0.10999231341931191,-0.11168828604997863,-0.11167531777601425,-0.11216896290526342,-0.11183664010781513,-0.11189511413910326,-0.11094078820083518,-0.1112193482299693,-0.11241690935012731,-0.10983562401981058,-0.11087364766030491,-0.1114649968538978,-0.11102103980360092,-0.11149566553633806,-0.11154683071582351,-0.10938732233100985,1.2800475155060025'
p188
asg14
F0.0002865127126762418
sg15
g16
sg17
I31
sg18
g19
sg20
F0.23711125
sg21
g187
sg22
g188
sg23
I6727
sa(dp189
g2
F58296062.173533559
sg3
(lp190
S'RESULT:'
p191
aS'SVM'
p192
aS'33'
p193
aS'7138'
p194
aS'0.5077155'
p195
aS'5.829606217353356E7'
p196
aS'2.174444524000327E-4'
p197
aS'5.8296062173751004E7'
p198
aS'0.0680568812397101,0.06855179902119998,0.06650203789680131,0.06593548420712117,0.06676472890437174,0.06793699933531444,0.06585788969558803,0.06754596276517538,0.06780263319752455,0.06880085315080933,0.06914613787758164,0.0675834393372426,0.06846042515161849,0.06702151352405389,0.06650185863267469,0.06914031276609992,0.06811666156383778,0.06773846476399559,0.06686684628764711,0.06713415576747002,0.0669537311880926,0.06673690321572978,0.06679732463039842,0.06636205155930665,0.06692464707657554,0.06852026993510882,0.06690160843718099,0.06665631646371714,0.06800280559056747,0.0665679721261268,0.06659508433292391,0.06801780593752782,0.06839089709043829,0.06697509152366524,0.06658381502441225,0.06756669804713919,0.06685193122672237,0.06740813527390165,0.06778824321837909,0.06818800189537402,0.06903903295877561,0.06844021638457728,0.06713419728794386,0.06916739143831493,0.06770722255654937,0.06793793649852235,0.06806364441405438,0.0664122932078196,0.0667734180180024,0.06825113801133804,0.06627576928523671,0.0651993045043068,0.0673039979535908,0.06851017493792048,0.06723355138716157,0.06763576192140572,0.06678768788691858,0.06783256647483284,0.0680213703736856,0.0670821758673741,0.06545709262892949,0.06661642064785347,0.0668348240260007,0.06866338253975394,0.06732083105803048,0.06575168265280323,0.06728325959890648,0.06774689551947963,0.06703142534287299,0.06816347029398291,0.06838112274195604,0.06904662706250903,0.06725369774998297,0.06736388188588255,0.06593179621101425,0.06784747197305985,0.06780075501833387,0.06647533691602274,0.06737956823813838,0.0682499607750025,0.0692333996529599,0.06747490190131683,0.0674792343598465,0.06869503742078581,0.06706479219165618,0.06710924922413639,0.06660604461250026,0.06687738414735875,0.06682963758816951,0.06784562669944191,0.06758384360605459,0.06636559713709544,0.06891362336908331,0.06788736445034221,0.06730325459466699,0.06772625533873128,0.06727665475960533,0.0671861217892259,0.06939043542639281,1.3129491623155662'
p199
asg14
F0.00021744445240003271
sg15
g16
sg17
I33
sg18
g19
sg20
F0.50771549999999999
sg21
g198
sg22
g199
sg23
I7138
sa(dp200
g2
F39497699.265052825
sg3
(lp201
S'RESULT:'
p202
aS'SVM'
p203
aS'35'
p204
aS'7459'
p205
aS'0.27488575'
p206
aS'3.9497699265052825E7'
p207
aS'5.244408502235824E-4'
p208
aS'3.9497699265577264E7'
p209
aS'-0.19002801158323893,-0.18951838796709006,-0.19161498622873613,-0.1921269615232311,-0.1912530320566979,-0.190182028752362,-0.1922555676916834,-0.19047164198893024,-0.19035423815209174,-0.18918112944833138,-0.18884220146203684,-0.19051080954907545,-0.18957934934904835,-0.19100492451987025,-0.19153311639840212,-0.18886521878146578,-0.18989525769212462,-0.19039259040410714,-0.1912086071281962,-0.1908821176854419,-0.1911366326509938,-0.19126425296141475,-0.19130886607402206,-0.19166609847995936,-0.19116253582717754,-0.18952381888607353,-0.1911078134158114,-0.19136439548470946,-0.19003132527867134,-0.19152286500257326,-0.1914951035034903,-0.18996666159326395,-0.18954146872961802,-0.19108781448384787,-0.1914913823468058,-0.1904994603315311,-0.19124462510932122,-0.19059535640336667,-0.19030092190274517,-0.1898173065790167,-0.18896123465243253,-0.18954659112301886,-0.19101395807582566,-0.18880982080771053,-0.19030232940212258,-0.19013949588100895,-0.18998626717072548,-0.1916244932159536,-0.1912537313662159,-0.18974162669435374,-0.19179725860597846,-0.1929172387797281,-0.19072420603557133,-0.18949821159051822,-0.19074055810425766,-0.19034189130684115,-0.1913663382555086,-0.19020689810498959,-0.18995978520890575,-0.19097600728302813,-0.19269118061725637,-0.19148754242087618,-0.19119219865447584,-0.1893533672591814,-0.19065760285667127,-0.19225562574103322,-0.1907521299158012,-0.19027028137332794,-0.19100859636204237,-0.18983270442191555,-0.18966771474822997,-0.18898762104916556,-0.1907076006046322,-0.19064429110599995,-0.19217641802959212,-0.19017833804946105,-0.19021124924861962,-0.1915956502482716,-0.19061049131581953,-0.18969228352248396,-0.18875700821559055,-0.19063130397875494,-0.19056166893435317,-0.18922267222272177,-0.19093585615788117,-0.19095515383889164,-0.19149102377132293,-0.19111320841640067,-0.19115721535600738,-0.1902275655276207,-0.190493839933235,-0.1917663025867053,-0.18903380679510767,-0.19020473807763405,-0.19068208322987656,-0.1902796986387261,-0.19072190699100072,-0.1908453927133913,-0.18859666219614124,1.2839723420640343'
p210
asg14
F0.00052444085022358244
sg15
g16
sg17
I35
sg18
g19
sg20
F0.27488574999999998
sg21
g209
sg22
g210
sg23
I7459
sa(dp211
g2
F4727128.3715104079
sg3
(lp212
S'RESULT:'
p213
aS'SVM'
p214
aS'37'
p215
aS'7890'
p216
aS'0.199879'
p217
aS'4727128.371510408'
p218
aS'1.8356979082884172E-4'
p219
aS'4727128.371693978'
p220
aS'-0.019230078033007275,-0.018661178845217646,-0.020890104174383473,-0.021491834440803756,-0.020617118919862412,-0.019377583571626777,-0.021511321092285943,-0.019774371807276814,-0.019514761634662717,-0.0183507156691632,-0.018032949172643073,-0.0197696122827261,-0.018766011998436832,-0.020290645259407616,-0.020836085260152112,-0.018034010625227262,-0.019108175156582974,-0.019564336816884492,-0.020468716914137264,-0.020179150412796623,-0.020389112724200298,-0.020609380702880598,-0.02054086843192575,-0.0209257645358783,-0.020416099321938136,-0.018693967422076282,-0.020439552614443662,-0.020703242368822913,-0.019227167957812583,-0.020808354405695298,-0.020792604235671627,-0.019229723879402888,-0.018823935064084737,-0.020345927816556836,-0.020776795079311572,-0.019743913127858587,-0.02050039962142776,-0.019871067781217513,-0.01951248766468365,-0.019069934788489812,-0.018159141113146163,-0.018777057833804872,-0.020218011266059294,-0.018003251534066414,-0.019568670037473257,-0.019390862398814324,-0.01919108778768877,-0.020955337416090125,-0.020571208738473734,-0.018979581208899227,-0.021094612093814705,-0.02227776671257911,-0.019993762439146537,-0.01872925685075484,-0.02005594432545936,-0.01962030227120902,-0.020610061304682945,-0.01946701131579509,-0.019236903604432573,-0.020224369800519823,-0.02200294439867309,-0.02076166098406347,-0.020460791583067434,-0.018567593487378964,-0.019983115098536397,-0.02165434135130935,-0.02000921202979708,-0.01953643825626411,-0.02035374216966712,-0.019104142588329653,-0.018832397951200536,-0.018162834347585588,-0.020075985020399964,-0.019926495444827413,-0.0214560149396522,-0.019435320173540382,-0.01948036976463763,-0.020920651844707566,-0.019912486580390312,-0.01896214791455693,-0.01788225712922445,-0.019855503508023314,-0.019801391742337762,-0.01852194334028108,-0.020204539222856338,-0.020193966159977553,-0.020809275983162442,-0.020467907658191106,-0.02046952052497203,-0.019469271992337694,-0.01972950902185258,-0.02104940258283909,-0.018268578179393244,-0.019449885002244927,-0.019985589039489812,-0.019557898853281033,-0.02003021277986089,-0.020140731818060975,-0.017780200559743997,1.3403857291892973'
p221
asg14
F0.00018356979082884172
sg15
g16
sg17
I37
sg18
g19
sg20
F0.199879
sg21
g220
sg22
g221
sg23
I7890
sa(dp222
g2
F53895282.5192791
sg3
(lp223
S'RESULT:'
p224
aS'SVM'
p225
aS'39'
p226
aS'8243'
p227
aS'0.29335325'
p228
aS'5.38952825192791E7'
p229
aS'8.378833854146768E-4'
p230
aS'5.3895282520116985E7'
p231
aS'-0.26038042278008056,-0.25980503304487806,-0.26195673667443864,-0.262493305032937,-0.261575222122017,-0.2605382694314812,-0.26256465055935096,-0.26068559892922183,-0.26067414442818926,-0.25943433614827155,-0.25904250106489457,-0.26080061615596506,-0.2598494005675812,-0.26126583270098047,-0.2617754870829672,-0.2590522963668757,-0.26015327623245676,-0.2606909376764003,-0.2615366688941987,-0.2611309035561287,-0.26145959238638256,-0.2615963413826222,-0.2615987407476997,-0.2619170320733897,-0.2614681407707016,-0.2598351893820169,-0.26139189431268345,-0.2616128610022879,-0.26025760400492803,-0.2618482581715873,-0.2618038607280673,-0.2601705178900671,-0.2597972869638925,-0.2613600643176855,-0.2617984433429434,-0.26084156482720244,-0.2615450163213328,-0.2608749187377132,-0.260599422970911,-0.2601244682659066,-0.2592334306271886,-0.2598327765721999,-0.26133015491089573,-0.25907873220515615,-0.2605818759449923,-0.26046322967622504,-0.26023036058412136,-0.26191245924863915,-0.2615515997920394,-0.2599961804245463,-0.262057478496564,-0.26329545557514866,-0.26095528516075905,-0.25973682374566176,-0.2609889869922314,-0.2605832621233196,-0.26174312469254857,-0.26046408267404714,-0.2602435971271446,-0.2612297506039314,-0.26306281084522337,-0.2617237699505645,-0.26144090939229847,-0.25955180413875417,-0.26094599071233965,-0.2626050229981753,-0.2610070533936678,-0.26058491284924556,-0.2612746510114214,-0.26012759486344467,-0.25986900194660817,-0.2592213805986688,-0.2609989810375628,-0.260907896031906,-0.2624656781679331,-0.2604259365493337,-0.2605454502676119,-0.26194553871273146,-0.26085520053872757,-0.2598903765571171,-0.25892918059093384,-0.2609663974161354,-0.2608309343456675,-0.25947473450564784,-0.261175614176165,-0.2612209114781146,-0.2618165877811342,-0.2614183183596741,-0.26142610730966287,-0.2605305480326607,-0.260786302988078,-0.26210729119301934,-0.2592559029113583,-0.2605536110241082,-0.2609189041755295,-0.2605590610713295,-0.26094316502308834,-0.26115527092990837,-0.258806277044947,1.2814053069903135'
p232
asg14
F0.00083788338541467683
sg15
g16
sg17
I39
sg18
g19
sg20
F0.29335325000000001
sg21
g231
sg22
g232
sg23
I8243
sa(dp233
g2
F20623663.005040299
sg3
(lp234
S'RESULT:'
p235
aS'SVM'
p236
aS'41'
p237
aS'8649'
p238
aS'0.2254645'
p239
aS'2.06236630050403E7'
p240
aS'2.7574105992008937E-4'
p241
aS'2.062366300531604E7'
p242
aS'-0.09779063241639374,-0.09717000508048329,-0.0994564532216379,-0.10006936004204613,-0.09916696667262179,-0.09791919248713601,-0.10008476030493547,-0.09822761814995985,-0.09806943876809116,-0.09681829435473778,-0.09645986935140319,-0.09828718604518127,-0.09722881812698199,-0.09878560537050912,-0.09932657280843543,-0.09644002260980149,-0.09757407614146413,-0.09810984361768689,-0.09900746588361116,-0.09866702084108459,-0.0989441158089625,-0.0991633092610647,-0.09906602684461809,-0.09942088538098205,-0.09893756254152235,-0.09719370790621962,-0.0989571059401013,-0.09920283544281111,-0.09768360791052394,-0.09936082538397475,-0.09932895314430946,-0.0976569684351347,-0.09727850155757435,-0.09884491573953046,-0.09933314750265104,-0.09828430703509773,-0.09902657723644535,-0.09837124454517203,-0.09803235507392116,-0.09757769595520076,-0.09664033980228616,-0.09726451007363789,-0.09877791406571226,-0.09643918211101407,-0.09806455766963333,-0.09794728529935845,-0.09763710599564958,-0.09947240030323608,-0.0990773542658784,-0.09746604669362675,-0.0996005620636175,-0.10088807142692718,-0.09845148405169639,-0.09718009164374311,-0.09852371034305044,-0.09807133289795225,-0.09921616284144982,-0.09793764588915066,-0.09772637671582633,-0.09873455705782926,-0.10061143179022838,-0.09926423572999568,-0.09896098009168533,-0.09698047282354975,-0.09850518877846526,-0.10022797114281533,-0.09849185453601345,-0.09805615468527314,-0.09883868908969087,-0.09758964808677048,-0.09726668836545002,-0.09661903200945547,-0.0985821694857514,-0.09841148817560347,-0.10000808694635865,-0.09793111987135698,-0.09800052375643742,-0.0994962932336892,-0.09838268789763978,-0.09737309550129752,-0.09627982855846423,-0.09840239117320874,-0.09829297968728673,-0.09694081709436789,-0.09867037335608732,-0.09869461980839535,-0.09936029330571541,-0.09896864387340469,-0.09896111887406989,-0.0979883388762973,-0.09825888223099431,-0.09962586960939102,-0.09670457459288612,-0.09801858409475862,-0.09846037393848102,-0.09805414674005658,-0.09849798566618338,-0.09867481398905208,-0.09619136567724063,1.3415756712462599'
p243
asg14
F0.00027574105992008937
sg15
g16
sg17
I41
sg18
g19
sg20
F0.22546450000000001
sg21
g242
sg22
g243
sg23
I8649
sa(dp244
g2
F50424838.693369888
sg3
(lp245
S'RESULT:'
p246
aS'SVM'
p247
aS'43'
p248
aS'8989'
p249
aS'0.502739'
p250
aS'5.042483869336989E7'
p251
aS'2.1923685004279108E-4'
p252
aS'5.042483869358912E7'
p253
aS'0.05805183482819643,0.05871692387354828,0.056373971614414424,0.055693594348541826,0.056637057588800874,0.05791280286720119,0.055770744101298945,0.057614574174250616,0.05782073687148034,0.05901093124018774,0.05941866657064064,0.05761046645683967,0.0586329503818033,0.05703238037469616,0.05651240703099712,0.059433414684133073,0.05825384672319059,0.057777841595383586,0.0568159539820656,0.057170652298812685,0.056890694482321265,0.05659753958217953,0.05682534345460829,0.05640882132165132,0.05689459843293951,0.058640086584756,0.05686644690934172,0.05663115708465378,0.058177664339108606,0.05645771778560314,0.05652463024399215,0.05821212231835549,0.058496124151893356,0.0569975699267244,0.05651586346436853,0.0575167315588823,0.05683301867384108,0.05744382691619957,0.05783184125282471,0.058214651949585444,0.05921071064681047,0.05854021928856591,0.057139423911315,0.05937538336929273,0.05773802338091073,0.0578765571030769,0.058232883357764206,0.056361427576410786,0.05666592615354292,0.058357716771807275,0.05625592908932521,0.05491953259840717,0.05740910618671023,0.05868423982553229,0.05730467084099604,0.05774006691086435,0.056618269795749285,0.057928020549024725,0.05806749494756284,0.057106169514965596,0.05520887852681526,0.0566052352144911,0.05686189184011567,0.05890921591750263,0.05728173157729415,0.05553279981076077,0.057341722582762406,0.057746254875389647,0.0570083331939698,0.058205922927745776,0.05865584130209622,0.059277620036402884,0.05720139327780674,0.05741614319752913,0.05583048977170774,0.057939879771014086,0.05779917487242303,0.05631131029204174,0.05745652965399471,0.05849741804959887,0.059634128363481934,0.05742904018385207,0.05754386105678718,0.05883085506645366,0.057147844726329666,0.05715335421599793,0.056482249850684174,0.05683269733935484,0.05684293980292897,0.05785411231728975,0.057594270451976265,0.05621614288009181,0.05911375617484129,0.05782471717951107,0.05736321143662807,0.05776072940284159,0.057317438140619535,0.05713303371421086,0.059677407563545476,1.3656694161224823'
p254
asg14
F0.00021923685004279108
sg15
g16
sg17
I43
sg18
g19
sg20
F0.50273900000000005
sg21
g253
sg22
g254
sg23
I8989
sa(dp255
g2
F35034534.965003364
sg3
(lp256
S'RESULT:'
p257
aS'SVM'
p258
aS'45'
p259
aS'9800'
p260
aS'0.26412325'
p261
aS'3.5034534965003364E7'
p262
aS'4.608921768671312E-4'
p263
aS'3.503453496546426E7'
p264
aS'-0.16843763117195346,-0.16776626659438645,-0.170113928581688,-0.17074712809300124,-0.16977938289329375,-0.16857661956193312,-0.17072075970331896,-0.16880423133713357,-0.16867692401469114,-0.16738113989699321,-0.16697665755306923,-0.16887907601970203,-0.16780830941578917,-0.16938679036424487,-0.16990686070355776,-0.16697950289987165,-0.16815942842893916,-0.1687159778374547,-0.16965561248533662,-0.1692131381155101,-0.1695906968310243,-0.16981344298769466,-0.16966873440489577,-0.17000466545794551,-0.16957120593479477,-0.16780050924162615,-0.16957194925948044,-0.16978294217618253,-0.1682624752475847,-0.17000551362991434,-0.16992993344759177,-0.1681696435078608,-0.1678473839787849,-0.1694376803397677,-0.1699359757856212,-0.16893633241338268,-0.16965503624340506,-0.16896524597277862,-0.16864195494173698,-0.16817345804180162,-0.16723137822747777,-0.16785345205959618,-0.16938334707072644,-0.16704529365015905,-0.16864700713621048,-0.1685718608105719,-0.16821632693551541,-0.17005885229395773,-0.16971004049498653,-0.16804625507653498,-0.17020030218737686,-0.1715716500836994,-0.16899376519316656,-0.16773600041513942,-0.16908129313018663,-0.16864374369516205,-0.16989978293856633,-0.16850092928502136,-0.1683242131712428,-0.16932347042291404,-0.17130406245534652,-0.16986751123754928,-0.1695498861155799,-0.16752126403465672,-0.16908887219803048,-0.17087776340722866,-0.16909350242024476,-0.16867237773470203,-0.16941675756417304,-0.1682161041010121,-0.16779101657527348,-0.16713984471074728,-0.16916527044692875,-0.16900820598685157,-0.17063853354828773,-0.16850086030328032,-0.1686308271398967,-0.1701636494883551,-0.168939839587205,-0.16785669856180385,-0.16677671485799278,-0.16904708676867675,-0.1688886236996755,-0.16749998170025776,-0.16923130279775794,-0.16929656315869493,-0.17000093466803337,-0.16956550141172622,-0.1695432771703721,-0.16862770475667627,-0.1688849245870655,-0.17028240850783294,-0.167284741491594,-0.16865427723789025,-0.16902682438208028,-0.1686343978256108,-0.1690590549737312,-0.16930978205790526,-0.16671842526665365,1.3353721399327065'
p265
asg14
F0.0004608921768671312
sg15
g16
sg17
I45
sg18
g19
sg20
F0.26412324999999998
sg21
g264
sg22
g265
sg23
I9800
sa(dp266
g2
F4330135.0326458253
sg3
(lp267
S'RESULT:'
p268
aS'SVM'
p269
aS'47'
p270
aS'9610'
p271
aS'0.199879'
p272
aS'4330135.032645825'
p273
aS'1.940734665707449E-4'
p274
aS'4330135.032839899'
p275
aS'-0.017304289028482994,-0.016600227137107,-0.019018320117493798,-0.01974472966717135,-0.018757692855219013,-0.017435886278231685,-0.019616176834389362,-0.017737916123224756,-0.017508227500279805,-0.0162243448447479,-0.01584591490681307,-0.017768474435550963,-0.016651485053738133,-0.018325768227326844,-0.0188364795470672,-0.015826389610170105,-0.017023630974258616,-0.017558019307635522,-0.018570573057292247,-0.018152958172451314,-0.018488130019500712,-0.018789057512720614,-0.018541133288478576,-0.01888302527377729,-0.018483484482147483,-0.0166571362161603,-0.018541345004632268,-0.018751919239014744,-0.0171222326414589,-0.018940271719233362,-0.018853949509223394,-0.017073087887507124,-0.016805916451777772,-0.01833831575439214,-0.018863883816879007,-0.01782446412289415,-0.018568036875773977,-0.01789966736476084,-0.017518891194939296,-0.017082877686524223,-0.01609846417122003,-0.01672694667549114,-0.018223106002867723,-0.01591534747739759,-0.017563345720605736,-0.01746460890825431,-0.017088633416479412,-0.019006266634438718,-0.018688192431077805,-0.01693712551877799,-0.01912698684728642,-0.020552856313114973,-0.017904734892211907,-0.016629654476307695,-0.018031108659401246,-0.017568939084366075,-0.01877197022045929,-0.017403694521625684,-0.017261672829194635,-0.018201745170870517,-0.020229694003138954,-0.01878997141500789,-0.018485736570266073,-0.016400512941545015,-0.018053898511813132,-0.019883265752474677,-0.01799017147939161,-0.017579701078100973,-0.01838015925105045,-0.017140860259581128,-0.01662168476848816,-0.015983602877287728,-0.01816360259741702,-0.01793876824193151,-0.019577774757684588,-0.01739335234825308,-0.017536610127131216,-0.019113786702546598,-0.017870410600865264,-0.01676777174364287,-0.015584301392953678,-0.01792310213051662,-0.017773951475701974,-0.01643016912905154,-0.018164485866598024,-0.018179990068457372,-0.018955830574275523,-0.01854617187671627,-0.01849861666083155,-0.017527806221094927,-0.017777197336415765,-0.019206332127860826,-0.016185096361749515,-0.0175507683723007,-0.017975351089695446,-0.01756647987236716,-0.018013352372702088,-0.018248901687403313,-0.015566406747603956,1.3816941972222085'
p276
asg14
F0.00019407346657074491
sg15
g16
sg17
I47
sg18
g19
sg20
F0.199879
sg21
g275
sg22
g276
sg23
I9610
sa(dp277
g2
F48190119.485394791
sg3
(lp278
S'RESULT:'
p279
aS'SVM'
p280
aS'49'
p281
aS'10125'
p282
aS'0.28539875'
p283
aS'4.819011948539479E7'
p284
aS'7.138370205853543E-4'
p285
aS'4.819011948610863E7'
p286
aS'-0.23274664936877568,-0.23202729211430578,-0.23440011433283858,-0.23506309243927387,-0.2340343425513088,-0.23287656508930815,-0.2349948941041157,-0.23299968773598353,-0.23295129849570154,-0.23160024363050555,-0.23116213375681624,-0.2331113445522689,-0.23203188958632942,-0.23364664185444273,-0.23411652670496577,-0.2311530473354752,-0.23237340639731408,-0.23297144186472363,-0.2339450898934998,-0.23341357182226768,-0.23386866182962535,-0.23410147423067798,-0.2339134320850784,-0.23420324357546812,-0.23384435466053488,-0.23206917545121294,-0.2338365347114841,-0.23400606337093335,-0.23250811418236764,-0.2343000291700548,-0.23418702452595436,-0.23233782966733557,-0.2320980050393695,-0.23366410531046367,-0.23419306253863784,-0.23323722284421572,-0.23390723032749877,-0.23321457343528162,-0.23292531714025227,-0.23244904476432016,-0.23148696442022462,-0.23208736116787118,-0.2336299944642512,-0.23130495028284642,-0.23287229208821372,-0.23282174337009012,-0.232452270447709,-0.2343039211901859,-0.2339887009693996,-0.23226018011154861,-0.23442724929803724,-0.23588837126559323,-0.23318515916348875,-0.23195789804466532,-0.23328108929451122,-0.23285231827840572,-0.23420773609513512,-0.2326995368924964,-0.23259479506748446,-0.23354193152831743,-0.235616979426101,-0.23411378604463787,-0.23380226351589423,-0.23171996209235124,-0.23331746938208753,-0.23516609442522055,-0.23330327178975113,-0.23293208659370065,-0.2336327773961852,-0.2324910869349483,-0.23195726852152318,-0.23131454243395957,-0.23341176157285615,-0.2332545564614881,-0.23490552880308646,-0.23269878187739068,-0.2328977325649124,-0.23446669738361006,-0.23313493681300634,-0.23201539117835818,-0.23093161684279098,-0.23333628869695372,-0.233121762729871,-0.23171097224820703,-0.23344871909250559,-0.23352697644744055,-0.23429797474922898,-0.23381688858094332,-0.23378923470136617,-0.23290638191160884,-0.2331513070338094,-0.2345886135843325,-0.23150045416253923,-0.2329486850508697,-0.23323850587504186,-0.23286319607597983,-0.23324951267738486,-0.23359492006540242,-0.2308961851958045,1.3247924221418041'
p287
asg14
F0.00071383702058535432
sg15
g16
sg17
I49
sg18
g19
sg20
F0.28539874999999998
sg21
g286
sg22
g287
sg23
I10125
sa(dp288
g2
F4000000.0
sg3
(lp289
S'RESULT:'
p290
aS'SVMADMM'
p291
ag7
aS'12685'
p292
aS'1.0'
p293
aS'4000000.0'
p294
aS'0.0'
p295
aS'4000000.0'
p296
aS'0.0,0.0,0.0,0.0,0.0,0.0,0.0,0.0,0.0,0.0,0.0,0.0,0.0,0.0,0.0,0.0,0.0,0.0,0.0,0.0,0.0,0.0,0.0,0.0,0.0,0.0,0.0,0.0,0.0,0.0,0.0,0.0,0.0,0.0,0.0,0.0,0.0,0.0,0.0,0.0,0.0,0.0,0.0,0.0,0.0,0.0,0.0,0.0,0.0,0.0,0.0,0.0,0.0,0.0,0.0,0.0,0.0,0.0,0.0,0.0,0.0,0.0,0.0,0.0,0.0,0.0,0.0,0.0,0.0,0.0,0.0,0.0,0.0,0.0,0.0,0.0,0.0,0.0,0.0,0.0,0.0,0.0,0.0,0.0,0.0,0.0,0.0,0.0,0.0,0.0,0.0,0.0,0.0,0.0,0.0,0.0,0.0,0.0,0.0,0.0'
p297
asg14
F0.0
sg15
S'cd ~/spark; sbin/stop-all.sh; sleep 5; sbin/start-all.sh;./bin/spark-submit --class org.apache.spark.examples.mllib.research.SynchronousADMMTests examples/target/scala-*/spark-examples-*.jar --algorithm SVMADMM --regType L2 --regParam 0.000100 --format cloud --numPartitions 40 --sweepIterationStart 1 --sweepIterationEnd 50  --sweepIterationStep 2  --pointCloudPointsPerPartition 100000 --pointCloudPartitionSkew 0.010000 --pointCloudLabelNoise 0.200000 --pointCloudDimension 100   '
p298
sg17
I1
sg18
S'SVMADMM'
p299
sg20
F1.0
sg21
g296
sg22
g297
sg23
I12685
sa(dp300
g2
F2101835.8374127839
sg3
(lp301
S'RESULT:'
p302
aS'SVMADMM'
p303
ag28
aS'32732'
p304
aS'0.199879'
p305
aS'2101835.837412784'
p306
aS'3.5485505228601864E-5'
p307
aS'2101835.8374482696'
p308
aS'-0.0031095882982098166,-0.0031082959620425204,-0.0035875590886076257,-0.0034057866406893202,-0.003397413092666404,-0.0032014426142214342,-0.0032297511564665406,-0.00339522134826592,-0.0030051268032797525,-0.003020224795939363,-0.0025753766625036807,-0.003369706245767153,-0.0029795372801064406,-0.0034902486069480743,-0.003560080742428732,-0.002956660796234096,-0.002763990396168156,-0.0032537706665094366,-0.0036077923331406664,-0.0035916738453081374,-0.0031930773283810774,-0.0034486943106574403,-0.003818140236659663,-0.003606078228839029,-0.0033866065445221885,-0.00280156718730055,-0.0036375225172732097,-0.0035334546688391604,-0.0031010052434624633,-0.0036719365014962614,-0.003551606666336638,-0.0028325101084395836,-0.002819379571577857,-0.0033916617048887704,-0.0030629147071637797,-0.0032558527052454402,-0.003375231872609111,-0.003184075075183367,-0.0028205027163043135,-0.0029374295523546677,-0.002413081349549142,-0.002950201773875642,-0.003271971638696651,-0.0028497092725512257,-0.002998740983320097,-0.0030507388056356826,-0.0036451507958529046,-0.003433188449796525,-0.003477122183595147,-0.0030366729011221554,-0.0036973079168211576,-0.004317605943808906,-0.0034511407428478506,-0.0030159644759107577,-0.0034488597611874315,-0.003270441738666914,-0.0033473118834768433,-0.003196134258099628,-0.002863266693276871,-0.0037025833286929927,-0.003949924483137003,-0.0034310156451016313,-0.003343187997015502,-0.0029594380235617693,-0.003204737532991487,-0.003637488279283702,-0.003293754655239746,-0.00310538240692116,-0.003763315031519594,-0.002959586285547134,-0.0034824831439908854,-0.0028107298550698054,-0.003262686968513464,-0.0035446801180728134,-0.0037036649014489157,-0.003382769003641411,-0.002945916193702548,-0.0031878801260101716,-0.0032591085870086957,-0.0031009803980951945,-0.0033332532138563398,-0.0032157570704603195,-0.0032188996009370075,-0.0027632615364845156,-0.0037999398468117705,-0.0034394092369278454,-0.0037269367652671046,-0.0039374520511532935,-0.0035724627094150265,-0.002961036723599832,-0.0031326008169362783,-0.003532676671863874,-0.00225761568129925,-0.0033581319219676657,-0.003060548457500016,-0.0031461403258844283,-0.0035449868984193814,-0.0034741159744374832,-0.0026841406372555827,0.5947969075235665'
p309
asg14
F3.5485505228601864e-05
sg15
g298
sg17
I3
sg18
g299
sg20
F0.199879
sg21
g308
sg22
g309
sg23
I32732
sa(dp310
g2
F2727391.8748764121
sg3
(lp311
S'RESULT:'
p312
aS'SVMADMM'
p313
ag39
aS'50466'
p314
aS'0.199879'
p315
aS'2727391.874876412'
p316
aS'1.6102309105650787E-4'
p317
aS'2727391.875037435'
p318
aS'-0.00285709007188529,-0.00283659797559454,-0.0029067483294271507,-0.00294326680096967,-0.0029200564156187793,-0.0028776820058430707,-0.0028802581133552663,-0.002863776215499713,-0.0028236141334539414,-0.002822716528952046,-0.002726888208398289,-0.002837662817331915,-0.0028295022569945014,-0.002875794369004886,-0.00291079018680005,-0.0027844995394060057,-0.0028178718440287436,-0.00284770137184699,-0.0029070181757278636,-0.0028759504968053373,-0.002849471025835825,-0.0028746563117344917,-0.0029224186539621635,-0.002951283196962246,-0.0029120626117857037,-0.00283460928392292,-0.0029185650622254727,-0.0029039643231362983,-0.0028625643969667743,-0.002923833411868897,-0.0028594832324730047,-0.0027920312615645317,-0.0027949145840028586,-0.002876450290494045,-0.0028688775216804195,-0.0029089040654233437,-0.002890018517362616,-0.002858511634533433,-0.002827713719759502,-0.0028364166524348085,-0.002750789397500292,-0.0028105820456214197,-0.0028389331947233803,-0.0028245633283370446,-0.0028596993180674763,-0.002813106494249582,-0.0028705883843426904,-0.0029220507017034447,-0.0028706126102678023,-0.002814387411984302,-0.0029408666214722763,-0.0030001267119416026,-0.0029236798814879813,-0.00279373462823293,-0.0028698057401686473,-0.0028435209075138375,-0.0029233936278399513,-0.0028655684281351243,-0.0028365063008218942,-0.002900286267106911,-0.0029571818355057884,-0.0029078020254560194,-0.0028819378999955006,-0.0028580415043355516,-0.0028690518786713623,-0.002936998818071804,-0.002905564128510292,-0.002860168962362078,-0.0029090448902263128,-0.0028348019156356264,-0.0028618152551600053,-0.002743095802677184,-0.0028275606869822252,-0.0029247086893924197,-0.0030039648764451686,-0.0028682207955294087,-0.0028449175150674563,-0.0028828943657091964,-0.00285231678062243,-0.0028573072546696173,-0.0027980899619559053,-0.002910304861152636,-0.0028534550372269845,-0.002799897438919012,-0.002936915792278315,-0.0029331100489283063,-0.0029154428863885206,-0.0029028814805935484,-0.0028816744540336096,-0.0028317296294774093,-0.0028740344032669347,-0.0028710257849871817,-0.002706247409148806,-0.0028789035730709136,-0.002857001024118573,-0.0028233207862587606,-0.0028904278157130736,-0.002870419579032591,-0.002799362627541223,1.268628015286693'
p319
asg14
F0.00016102309105650787
sg15
g298
sg17
I5
sg18
g299
sg20
F0.199879
sg21
g318
sg22
g319
sg23
I50466
sa(dp320
g2
F1680765.2977286368
sg3
(lp321
S'RESULT:'
p322
aS'SVMADMM'
p323
ag50
aS'67504'
p324
aS'0.199879'
p325
aS'1680765.2977286368'
p326
aS'1.3190892492142452E-4'
p327
aS'1680765.2978605458'
p328
aS'-0.004580664663971294,-0.004460621964290757,-0.0045068784911036835,-0.0046915596450560326,-0.004451213449566931,-0.00457875337463524,-0.004389218512780235,-0.004236009920748628,-0.004475207354625045,-0.0045029783430132085,-0.004307990839449651,-0.004378088964037589,-0.004484394452054933,-0.004332331078192596,-0.004284095166665928,-0.0042675878041018665,-0.0045160437235232595,-0.0045850404285603516,-0.004333557412567707,-0.0040604866714119775,-0.004377712410126148,-0.004717419378554885,-0.004104730911894494,-0.004537378442260046,-0.0044091457461288034,-0.004506105588334069,-0.004224566347283648,-0.004245431036747467,-0.004471300772077292,-0.004457302290576527,-0.00424938223621916,-0.004245486312975522,-0.0045584099693382445,-0.004222521780146523,-0.004588269451938609,-0.004737478742440726,-0.004299093986925669,-0.00449211352956028,-0.004504204891952436,-0.004681302296762553,-0.004556944250921881,-0.004526904021390244,-0.0043232542762622365,-0.004362412808942278,-0.004454457363257891,-0.004555634443803416,-0.004319740035423006,-0.004414603813260356,-0.004390010994355197,-0.004420374976281267,-0.004078640384616988,-0.004401382631894411,-0.004377352515511237,-0.004329624706267089,-0.004043790431000623,-0.004450013907485985,-0.004605179646425563,-0.004475004954615203,-0.004695470820386803,-0.004267336981462694,-0.004641920962158028,-0.004441591184284554,-0.004434810274945666,-0.004241405332014842,-0.004477820931384792,-0.004520405842798212,-0.004462311596852459,-0.004615747552413234,-0.003963260302409045,-0.004636186393641921,-0.003998437031911551,-0.004278048260766791,-0.004404348487291815,-0.0043816999786719735,-0.004206979848639238,-0.004349733748281721,-0.004744164980913442,-0.004550375567736765,-0.004322952402517004,-0.004221048259092515,-0.004135290370111713,-0.004596669665994303,-0.004545541073020996,-0.004621720539930564,-0.004319998783078762,-0.004405977726079706,-0.004308893854635905,-0.004122131121567927,-0.004310066497258907,-0.004395786089685498,-0.004537219752006618,-0.004320691635337095,-0.004560476305942963,-0.004537862430431492,-0.004436954579518688,-0.004346964754767229,-0.004170759432181078,-0.004376721382716335,-0.004577008979261609,1.1476762822636501'
p329
asg14
F0.00013190892492142452
sg15
g298
sg17
I7
sg18
g299
sg20
F0.199879
sg21
g328
sg22
g329
sg23
I67504
sa(dp330
g2
F1644822.4102083999
sg3
(lp331
S'RESULT:'
p332
aS'SVMADMM'
p333
ag61
aS'80339'
p334
aS'0.199879'
p335
aS'1644822.4102083999'
p336
aS'1.024744275501108E-4'
p337
aS'1644822.4103108742'
p338
aS'-0.004096167164705388,-0.004084760679478755,-0.004113582565548073,-0.0042087343006400255,-0.00412420828711513,-0.004149018354534277,-0.0041100655622124905,-0.004057705098557336,-0.00406817880741748,-0.0040860883819056094,-0.003966014134036113,-0.004054332869106778,-0.004078718651549521,-0.004037777300005528,-0.004046328764875485,-0.004025315719556342,-0.004053638437304645,-0.004075982763168479,-0.00406687869041403,-0.004043809623772639,-0.004076526625015631,-0.004097885531953569,-0.004074169790886994,-0.00414795237123617,-0.0041000396401244844,-0.004130778238662196,-0.004060351114894544,-0.004100310109656309,-0.0040428663224324505,-0.004149078955970437,-0.004044036224379364,-0.004030047093346247,-0.004074918948034591,-0.00405679780923408,-0.004130409049482286,-0.004164035365060188,-0.004098081379417024,-0.004088709861871299,-0.004082611282861143,-0.004113396472951301,-0.00405084032505421,-0.0040933651447802605,-0.0040579567415973145,-0.004031181948372906,-0.004112860419123904,-0.004048720981054532,-0.004035598779896341,-0.004135792832027723,-0.004092893252790309,-0.004075142724812342,-0.00405454737692018,-0.004144289409233435,-0.004113253784143497,-0.004013839091946597,-0.004037026239809572,-0.004038970780811229,-0.00413859000929584,-0.0040949320684690186,-0.004117480477102648,-0.004034478347991774,-0.0041756223764370035,-0.004111168542071336,-0.0040918516169153,-0.004016843682946567,-0.004159487330038086,-0.004130676451451224,-0.004141288515563513,-0.004113616795251326,-0.0040146302135546895,-0.004114558105799536,-0.003959200528017973,-0.003939981141026499,-0.004088098236678088,-0.00410143362362035,-0.004104622401116647,-0.004064380062338769,-0.004133454902316157,-0.004121637552964083,-0.004045673011878941,-0.004045675501998597,-0.003991317294280517,-0.004076851440221974,-0.0041277443628433075,-0.004065865915109246,-0.004075955557041447,-0.00408655298541082,-0.004095060532044444,-0.004045006364131016,-0.004096331970013602,-0.004011586749746292,-0.004093393400115915,-0.004034771971204196,-0.00407529616373513,-0.004039871034635681,-0.004077141338241394,-0.004040007502281702,-0.004014935909999203,-0.0040794416582160984,-0.004071072642390428,1.0114825820835'
p339
asg14
F0.0001024744275501108
sg15
g298
sg17
I9
sg18
g299
sg20
F0.199879
sg21
g338
sg22
g339
sg23
I80339
sa(dp340
g2
F1654194.4075533522
sg3
(lp341
S'RESULT:'
p342
aS'SVMADMM'
p343
aS'11'
p344
aS'95002'
p345
aS'0.199879'
p346
aS'1654194.4075533522'
p347
aS'1.0072772772076493E-4'
p348
aS'1654194.4076540798'
p349
aS'-0.004037249807118872,-0.00396917254833004,-0.004055853006994806,-0.004142069335084114,-0.004063510543219375,-0.004031318825386832,-0.004036188737225444,-0.0040153285545369835,-0.0039839921546639435,-0.004007359942239196,-0.0038921284168241667,-0.004033207392924371,-0.003997778242650152,-0.004029049023318031,-0.004026251674570691,-0.003967993172964523,-0.003997571171532395,-0.004002245051968548,-0.004042013132781174,-0.004012816988137456,-0.003989952091831308,-0.004055141506144738,-0.00400639165656028,-0.004065811815382561,-0.004060228569363127,-0.0040275351104828135,-0.0040326141485057115,-0.00404179419741382,-0.004003142366407626,-0.004058078790901387,-0.004001204515710124,-0.003978693534634784,-0.003982461040242695,-0.004005224551252034,-0.004044970381624623,-0.004062088616674085,-0.004044441124002409,-0.004059382283326293,-0.004043804863757565,-0.004043281403309284,-0.003979218252110583,-0.003989845238345268,-0.003991099063405494,-0.003999065812268111,-0.00401799098349344,-0.003982011718140426,-0.0039933447512446605,-0.004083141713794248,-0.0040957868333988635,-0.003974823809401703,-0.00405177704626479,-0.004153469953710863,-0.004037016666726646,-0.003962026476646961,-0.004012610790601055,-0.004004153992762382,-0.004067964196878056,-0.004021956757047584,-0.00406163994712829,-0.003998042397113207,-0.004067155435375504,-0.004087913550962002,-0.00404261415279707,-0.003972787248956966,-0.004054685826324782,-0.004066029459235924,-0.00406820293490605,-0.0040374550269850085,-0.004018106753934041,-0.004051194704697585,-0.003951838500055132,-0.003919197740277761,-0.004061535851419078,-0.004065107359093582,-0.004083732627074319,-0.004046352026600018,-0.004016877016998158,-0.004065048218442071,-0.003988430891133454,-0.004017482805824768,-0.003934063530539683,-0.004038509185745403,-0.004031335512039889,-0.004004566608100904,-0.004058589394907978,-0.004050923895420821,-0.004067229831384116,-0.0040400486839892785,-0.004063274637574343,-0.003981156413886212,-0.0040367408583250036,-0.004036046961829639,-0.004008417723309456,-0.0040085027278830305,-0.0040372388910495565,-0.003989096861764857,-0.004014500772106424,-0.004002414970595034,-0.003993162544346281,1.0028324965052127'
p350
asg14
F0.00010072772772076493
sg15
g298
sg17
I11
sg18
g299
sg20
F0.199879
sg21
g349
sg22
g350
sg23
I95002
sa(dp351
g2
F1650473.3841155288
sg3
(lp352
S'RESULT:'
p353
aS'SVMADMM'
p354
aS'13'
p355
aS'109846'
p356
aS'0.199879'
p357
aS'1650473.3841155288'
p358
aS'1.0488424103275556E-4'
p359
aS'1650473.384220413'
p360
aS'-0.004036717621342449,-0.004039561952303534,-0.004109612181289492,-0.00417499760413484,-0.004133395395309043,-0.0040720506732847914,-0.0040744452676739285,-0.004051922686987639,-0.004033044049216194,-0.0040302031044896595,-0.003946861554274634,-0.004061671162876169,-0.0040332953488040795,-0.004042959611961751,-0.004050090045151164,-0.0040033792915436656,-0.00403872676933768,-0.0040635107756973226,-0.00407664650867995,-0.004055617030679586,-0.004035740511322055,-0.0041177520325632565,-0.004070103965736668,-0.00410552270521799,-0.004116894871556882,-0.004051348098729714,-0.0040688863611357436,-0.004111005646917386,-0.00404146014309137,-0.00413738876319175,-0.0040485514740158475,-0.004016697847878734,-0.004039505425077619,-0.004056887842176677,-0.004101663840856135,-0.0041182432642454135,-0.004089417585916444,-0.004089624349282026,-0.004071033580999044,-0.00405782596696653,-0.004035641597805765,-0.004032146375589073,-0.00403614545154618,-0.004019152875236453,-0.004082647361848651,-0.004053670426835733,-0.0040568421338554725,-0.0041310336825606244,-0.0041208957781865415,-0.004025512795549364,-0.004091378655184483,-0.004156026454961982,-0.004081209828335092,-0.0040119386773255356,-0.004009341872154306,-0.0040596978365915375,-0.004105113673787149,-0.004098467651753489,-0.004079751873480983,-0.0040085694198156545,-0.004130814604328039,-0.00411908739361768,-0.004106343342250054,-0.004032675422796476,-0.004064829016373505,-0.00412967213811444,-0.004117878700448933,-0.004098673320675964,-0.004065820409625377,-0.004094795103877465,-0.0039606041436079055,-0.003953623465737792,-0.004066126991224953,-0.004120881817096176,-0.004151121717151377,-0.004040867362738076,-0.004052183833727259,-0.004088835837321895,-0.00404140329019775,-0.004025975889870122,-0.003951244883573015,-0.004091115782542988,-0.004064822024857493,-0.004082159660699152,-0.00410175307319034,-0.004078940051376208,-0.004139574271279022,-0.0040866755910215135,-0.004064532658104016,-0.004028261408250406,-0.004075858659184216,-0.004101150191002775,-0.004028158179003578,-0.004030721002858199,-0.004086028719048844,-0.004056275594411632,-0.004045886149572775,-0.004074725163840821,-0.004040468381351109,1.0233301003458355'
p361
asg14
F0.00010488424103275556
sg15
g298
sg17
I13
sg18
g299
sg20
F0.199879
sg21
g360
sg22
g361
sg23
I109846
sa(dp362
g2
F1650046.4996581818
sg3
(lp363
S'RESULT:'
p364
aS'SVMADMM'
p365
aS'15'
p366
aS'124326'
p367
aS'0.199879'
p368
aS'1650046.4996581818'
p369
aS'1.0598664015838706E-4'
p370
aS'1650046.4997641684'
p371
aS'-0.004065492717670247,-0.0040446509448379105,-0.004115166713313447,-0.0042008896822223,-0.004134303373870722,-0.0041098901156070445,-0.004088461600321726,-0.004090849328401282,-0.004041793049441014,-0.004035737361613809,-0.003971451266334844,-0.0040609353468284365,-0.004052438857275827,-0.004092062213503939,-0.004074014918214204,-0.00402772265711785,-0.004052983429244226,-0.00405277404376071,-0.004097817013822416,-0.004060375592485416,-0.004068638271688129,-0.004141817100777371,-0.00406878500233956,-0.004129249335231912,-0.004140259377876382,-0.004046284367668429,-0.004131653097103679,-0.004123999790101282,-0.0040333692948902305,-0.004130700494234807,-0.004038741327949428,-0.004043418166572127,-0.004055067400166861,-0.004065066755187247,-0.004090116957110494,-0.0041383192550134545,-0.004106060991459934,-0.004093264277610668,-0.004089818359313884,-0.004057516418976975,-0.004022700933261004,-0.004032114454362543,-0.004030947598298025,-0.004027873583363458,-0.004071068036509494,-0.004031926680192495,-0.004046081024496713,-0.0041592855796921905,-0.004138008499096969,-0.004051802167002333,-0.004098238875783553,-0.0041991073166134174,-0.00410730071458858,-0.004014528280210128,-0.004035032950364319,-0.004087888702132353,-0.004095150793813783,-0.004112244835408371,-0.0041315072684885955,-0.004060514690521405,-0.004145118484709817,-0.004121286125208986,-0.004101061111487856,-0.004026903855510039,-0.004122405978593166,-0.004104930130899057,-0.004118275024607879,-0.004121725786738745,-0.004094967105990548,-0.004093566529144616,-0.003976160933792963,-0.003949348265265423,-0.004090298815226621,-0.004102610917085201,-0.00415054865957215,-0.0040657727238463635,-0.004054000705541316,-0.00409533888398546,-0.0040274362954076225,-0.004059769090163364,-0.003981313304605024,-0.004075114976509887,-0.004082256526227319,-0.004089419931651283,-0.004127137968629767,-0.004094463806454988,-0.004117828407920833,-0.00408015144175656,-0.004090599301405909,-0.00402884191423094,-0.00411259736060763,-0.004102843001526516,-0.004069642034826908,-0.004070190904486091,-0.004103931843391262,-0.004079990253301416,-0.004045276433282787,-0.004087352899850144,-0.004031403865404252,1.028697387234151'
p372
asg14
F0.00010598664015838706
sg15
g298
sg17
I15
sg18
g299
sg20
F0.199879
sg21
g371
sg22
g372
sg23
I124326
sa(dp373
g2
F1649136.7229426648
sg3
(lp374
S'RESULT:'
p375
aS'SVMADMM'
p376
aS'17'
p377
aS'138923'
p378
aS'0.199879'
p379
aS'1649136.7229426648'
p380
aS'1.0547876761364228E-4'
p381
aS'1649136.7230481436'
p382
aS'-0.004051656458152864,-0.004045212108068841,-0.004091704682084139,-0.004164877642021665,-0.004143027101302723,-0.004084639209579935,-0.004081313350871057,-0.004047951150661854,-0.004020704782136844,-0.004084598648954522,-0.003971555995166539,-0.004062103357532011,-0.004036750406330311,-0.004073521751213052,-0.0040924489343253136,-0.004014226196081416,-0.004051276412255448,-0.004060812577792813,-0.004101523611832223,-0.004088113168306639,-0.004051534011498589,-0.004128804474053133,-0.004108531666569453,-0.004131541420164164,-0.004129725221835727,-0.004064321204628009,-0.004101074301354705,-0.004136443539079772,-0.004056270996891444,-0.004116262744359814,-0.004052938866082633,-0.0040389602075320465,-0.004048855176011335,-0.004041139560387411,-0.004081619952487468,-0.0041046497087444825,-0.004103168040574509,-0.004088866599593463,-0.004078563624291349,-0.004069193007429022,-0.004044050766160411,-0.004040130691724141,-0.004073034832315662,-0.0040375127984166774,-0.00406539741926564,-0.004054637445651154,-0.004045859428780542,-0.004157184782661935,-0.004160778581366143,-0.004028973300623009,-0.004095362847118848,-0.004183933579800891,-0.004100354949694291,-0.004024412633527669,-0.004017144440579431,-0.004056791907228588,-0.004095464246533958,-0.004097840016814605,-0.004113390811221463,-0.0040483640914309995,-0.00414368767736591,-0.004147432880035416,-0.004121875105219146,-0.004043788683080494,-0.004107419498717758,-0.0041162644064921105,-0.004133907574178033,-0.004099354809541221,-0.004071994582664925,-0.004099575983765506,-0.003969788642250498,-0.003962542666925464,-0.004114823155176056,-0.004111373972593445,-0.004149333602763301,-0.004094662507340309,-0.004073645615158919,-0.004071522807231559,-0.004041981840742208,-0.00405990120154726,-0.003992052782581089,-0.004092868887004211,-0.004058443582963607,-0.004086909334356459,-0.004108107570968623,-0.004121677716456903,-0.004119663187024303,-0.004050314017674918,-0.0040932908209523455,-0.004049124661552105,-0.00407016902074581,-0.004102740485701245,-0.004067675595617232,-0.004029064865572482,-0.0040825450495030864,-0.004077337139424861,-0.00407399010452668,-0.004083072257963229,-0.004012799808937713,1.0262265391441647'
p383
asg14
F0.00010547876761364228
sg15
g298
sg17
I17
sg18
g299
sg20
F0.199879
sg21
g382
sg22
g383
sg23
I138923
sa(dp384
g2
F1648989.3257456745
sg3
(lp385
S'RESULT:'
p386
aS'SVMADMM'
p387
aS'19'
p388
aS'161638'
p389
aS'0.199879'
p390
aS'1648989.3257456745'
p391
aS'1.052068763883731E-4'
p392
aS'1648989.3258508814'
p393
aS'-0.004048669049916694,-0.0040456166366812235,-0.004099243513898008,-0.004181409757755136,-0.0041477701053267806,-0.004109132899709518,-0.004086762334337509,-0.004073920621620715,-0.004038458010637671,-0.004051837568794347,-0.003986443648316653,-0.004056722364008062,-0.004044954375009884,-0.004088580979823822,-0.004067741158107682,-0.004036052767525109,-0.00403162750338681,-0.00404294522619434,-0.0040800745939072285,-0.004076033716029136,-0.00405999153076138,-0.004126595484399537,-0.004088970125401166,-0.0041354646973578634,-0.004115830439000194,-0.004073675307019928,-0.0040793979493133434,-0.0041343882997452175,-0.004032058671371496,-0.004142132664853309,-0.004055172913377474,-0.0040459394251724625,-0.004069056165594757,-0.00401849046423749,-0.004056451341188874,-0.004127633605160175,-0.004099768804116763,-0.004094044695924459,-0.004067852156156997,-0.004063842471181101,-0.0039914071232542364,-0.004027115873984425,-0.004060157760472405,-0.004034658851008649,-0.004075445352677439,-0.004047442440496796,-0.00404479759986915,-0.0041487457163567635,-0.00412084785932581,-0.004055293836608627,-0.004098098107240999,-0.004184974342209429,-0.0040945082029650165,-0.004027148003121416,-0.004020470588541782,-0.004020797231558174,-0.004100159106935262,-0.004087729353153527,-0.00412700567376096,-0.004030390461632532,-0.004143559671155452,-0.004135536042318333,-0.004088136347091977,-0.0040476974993052875,-0.00408858727520273,-0.004094958381121105,-0.004123754680167088,-0.004097201895994112,-0.004073513050306511,-0.004093305591129214,-0.0039896099112757665,-0.003968106503594056,-0.004125287363018601,-0.004103176955303136,-0.004162415564155917,-0.0040777984716678225,-0.004072184342429964,-0.004097740658433016,-0.004051647564085324,-0.004061987557380568,-0.003980439409035489,-0.004096436816660122,-0.0040762858184200884,-0.004088123296216339,-0.0041272794554012456,-0.004081605802183824,-0.0041185861857496705,-0.004050022802810824,-0.004110406290459058,-0.004031350528896104,-0.004067094257154019,-0.004087536047944076,-0.004033650471498098,-0.004071665811627582,-0.004103093075949131,-0.00405378364141207,-0.00405215255711075,-0.004083116262220928,-0.00405577227881947,1.0249017868063182'
p394
asg14
F0.0001052068763883731
sg15
g298
sg17
I19
sg18
g299
sg20
F0.199879
sg21
g393
sg22
g394
sg23
I161638
sa(dp395
g2
F1648797.1786877522
sg3
(lp396
S'RESULT:'
p397
aS'SVMADMM'
p398
aS'21'
p399
aS'167993'
p400
aS'0.199879'
p401
aS'1648797.1786877522'
p402
aS'1.052448427796594E-4'
p403
aS'1648797.178792997'
p404
aS'-0.0040506650244720496,-0.004038098940046272,-0.004098898365006338,-0.004180577504404288,-0.004127183389103315,-0.004093434170151678,-0.004102807129450947,-0.004057258254461344,-0.004013670493559823,-0.004075011617109129,-0.0039614049479884846,-0.004070434419912411,-0.004055640049277396,-0.004074181168074916,-0.004074318496573718,-0.004016766558242785,-0.004018033593524294,-0.004067528082498232,-0.004074552669695655,-0.004077378302416461,-0.00407059190098439,-0.004112520122467624,-0.004098989245586838,-0.004125887408770602,-0.004110200220212142,-0.00406433483333618,-0.00409757820927733,-0.0041324261715431345,-0.004018161987930322,-0.004136357874262533,-0.004039661500342951,-0.004032067875807207,-0.004035610375020086,-0.004036279833540871,-0.004075058962382239,-0.0041017196097297565,-0.004096334359841046,-0.004093031361575841,-0.004104432476309697,-0.004082948708407489,-0.004020315908353032,-0.004063110812172477,-0.0040698907271943,-0.004045408505593078,-0.004065763562798259,-0.004058859786167789,-0.004043145267798156,-0.0041552739543091795,-0.004134908716378582,-0.004054711544418458,-0.004085175145495569,-0.004188411991047491,-0.004091368458869591,-0.0040128996019546045,-0.004017802978495376,-0.004051198777628551,-0.004124392959290329,-0.004110673004801488,-0.0041243812446648785,-0.00403454000586418,-0.004156604984751351,-0.004116698878152502,-0.0041066115021407695,-0.004020494178477175,-0.004114362049224087,-0.004111694063374522,-0.004126217847076777,-0.004115008359702182,-0.0040727250631814186,-0.004107988135149787,-0.003979657692283275,-0.00396187801891287,-0.00410890087550141,-0.004099255182203232,-0.00415341891092302,-0.004086316796524393,-0.004075808317000662,-0.004095868971059477,-0.004049575365120352,-0.0040496774071943405,-0.003995848562253066,-0.004072794443849646,-0.004070078396831432,-0.004095781830083913,-0.004132089976418651,-0.004114645321798108,-0.004136554938053248,-0.004067925700828962,-0.004107979685321238,-0.004031826377109103,-0.004050096835739524,-0.00408617698637407,-0.004057483020427513,-0.0040346787043925875,-0.004084831047608768,-0.004064178300412192,-0.004053377728773743,-0.004095404944142726,-0.004053035975538641,1.025086526674794'
p405
asg14
F0.0001052448427796594
sg15
g298
sg17
I21
sg18
g299
sg20
F0.199879
sg21
g404
sg22
g405
sg23
I167993
sa(dp406
g2
F1649468.6209535378
sg3
(lp407
S'RESULT:'
p408
aS'SVMADMM'
p409
aS'23'
p410
aS'181662'
p411
aS'0.199879'
p412
aS'1649468.6209535378'
p413
aS'1.0529637356058637E-4'
p414
aS'1649468.621058834'
p415
aS'-0.004038966522090915,-0.004053378405238699,-0.004088983050441959,-0.004176460228138353,-0.004149258018469988,-0.004079276527089609,-0.004097939498734594,-0.0040723075338307,-0.004011975386539707,-0.004036100472567434,-0.003964281736549126,-0.004075935648336572,-0.0040811271779511195,-0.004061353531176366,-0.004100393770331921,-0.004015244771394186,-0.0040443769986724595,-0.004044191492572906,-0.004062067105459078,-0.004052123038483901,-0.004056653818263557,-0.004115503262490693,-0.004079582781431147,-0.004120430118560058,-0.004111138836964016,-0.004043722675109339,-0.004087605344569797,-0.004140660165019284,-0.004026852951294756,-0.004112643183230501,-0.0040599616932485184,-0.004008510032389851,-0.004060987265911606,-0.004045327354070142,-0.004084518875144823,-0.004120861901634343,-0.004100810953774979,-0.00408496887420718,-0.004090997097148848,-0.004074766570422216,-0.004001692785732656,-0.004020582200114853,-0.004053012967400915,-0.004035568404983241,-0.004057969540244529,-0.00403816962451507,-0.0040479199324542515,-0.004140903664400945,-0.0041554330014762575,-0.004032142164366981,-0.004099116688513308,-0.00417521613146034,-0.004076552703632763,-0.004035720156217025,-0.00400685078339351,-0.004043092453217096,-0.004134478568148424,-0.004091001186429704,-0.004088968978380113,-0.004034584415877651,-0.004155798531246774,-0.004128194272925667,-0.004117680403120101,-0.0040312593871735984,-0.004118635038455363,-0.0041096331952648075,-0.004117578108305361,-0.0041110219421469025,-0.0040584642371784595,-0.004100613527266218,-0.003998268115297233,-0.003959048609004467,-0.004099491945964028,-0.004088261295711044,-0.004153453483327615,-0.004095435198597593,-0.004065395217408578,-0.004092003505522257,-0.0040604440551321435,-0.004043020026596528,-0.003993091153777165,-0.0041082711493585534,-0.0040837145976978274,-0.004064442704556236,-0.004125555625136271,-0.004103759720454434,-0.00411225110617142,-0.004066905242073597,-0.004099183489281568,-0.004018246929994906,-0.004076748170519132,-0.004074629932308092,-0.004040141627603398,-0.0040839482056008744,-0.004084632922435114,-0.004068462500847146,-0.004066488826928878,-0.004101085653180203,-0.004059985860365993,1.0253387256200093'
p416
asg14
F0.00010529637356058637
sg15
g298
sg17
I23
sg18
g299
sg20
F0.199879
sg21
g415
sg22
g416
sg23
I181662
sa(dp417
g2
F1648254.1200126559
sg3
(lp418
S'RESULT:'
p419
aS'SVMADMM'
p420
aS'25'
p421
aS'197616'
p422
aS'0.199879'
p423
aS'1648254.1200126559'
p424
aS'1.0530687736135055E-4'
p425
aS'1648254.1201179628'
p426
aS'-0.004069664310876216,-0.0040579049573710915,-0.004092224520018274,-0.0041663207223198535,-0.004116092100445354,-0.004109471645176916,-0.004115357967825945,-0.004063147428885956,-0.004039955905424515,-0.004062758404768515,-0.00399382712454146,-0.004071868879629586,-0.004067456438914283,-0.00408650423488478,-0.004063252116907553,-0.00403890534600792,-0.004033016646841215,-0.004061464152330375,-0.004080753788413758,-0.00407564686000604,-0.004068323679583328,-0.00412634295693196,-0.004094168487710034,-0.00412847374791575,-0.004114677202289859,-0.0040784597285510055,-0.004084266309501166,-0.00413250428305917,-0.00404399220201363,-0.004132739381275248,-0.004069538749813635,-0.004026308429737884,-0.004045852926291478,-0.004041609366317413,-0.004089155197338563,-0.004133842805067768,-0.004094006369717439,-0.004115061194739865,-0.0040784758738343285,-0.004085163110555654,-0.004034125642978913,-0.004049424355160463,-0.004039491754658173,-0.004035242173519716,-0.004064104854783621,-0.004055013325998078,-0.004027770717965634,-0.004148479681518336,-0.0041242153895459065,-0.004055834895261825,-0.004104871838799273,-0.004189198940608873,-0.004125445275246988,-0.0040039189110980915,-0.004032261487794213,-0.004054533723552065,-0.004128109897449761,-0.00409725483367859,-0.0040996576087688474,-0.004045511703078391,-0.0041638533555122155,-0.004126558595032165,-0.004083286413880671,-0.004032205448501786,-0.004084821126519171,-0.004117831919339826,-0.004104152236318187,-0.004105241405187516,-0.004082800772600739,-0.004103085022489323,-0.003989434102230101,-0.003937295198423066,-0.0040668444434524085,-0.004122324067662041,-0.004147878269010563,-0.004083313860884147,-0.004072774091021633,-0.004090871120213305,-0.004056854914512018,-0.004054387147667599,-0.0039900704231674265,-0.004098091429090509,-0.004075598946162726,-0.004086982084733306,-0.004109817976677994,-0.004135287503841589,-0.004141542442855339,-0.004077662640291304,-0.004110998688703276,-0.004055285285296433,-0.004107180312740434,-0.004063183744380986,-0.004054874530507914,-0.004073821580075851,-0.004118958092160892,-0.004058574573074055,-0.004077096363069089,-0.004078188798177631,-0.004044030470023097,1.0253879261881567'
p427
asg14
F0.00010530687736135055
sg15
g298
sg17
I25
sg18
g299
sg20
F0.199879
sg21
g426
sg22
g427
sg23
I197616
sa(dp428
g2
F1648558.9511557021
sg3
(lp429
S'RESULT:'
p430
aS'SVMADMM'
p431
aS'27'
p432
aS'211159'
p433
aS'0.199879'
p434
aS'1648558.9511557021'
p435
aS'1.0529827748970464E-4'
p436
aS'1648558.9512610005'
p437
aS'-0.004050481477058036,-0.004050094098822013,-0.004118351551916691,-0.004183928011541183,-0.004140868911359202,-0.004090303572182221,-0.0040908809512240785,-0.004065291716693701,-0.0040452105827079666,-0.004050388425757041,-0.003966705551058936,-0.004075564014992832,-0.004049719148577028,-0.004089412999574336,-0.004089192134736822,-0.004018635227376134,-0.004027808729069745,-0.004067361656343613,-0.00407421761572621,-0.004080113212986187,-0.004057954766540363,-0.004117831025659992,-0.004091650541878954,-0.004112710674363553,-0.004121901837406217,-0.004055245099474,-0.004089731857393366,-0.004140665228799327,-0.004032905726752534,-0.004138136261342922,-0.004040782790374667,-0.004011333844182341,-0.004051040400058349,-0.0040654674959167665,-0.004074179751569077,-0.004105585002377275,-0.0040950371378526765,-0.004090549878037135,-0.0041070451226630725,-0.004087698786073558,-0.004026720815695057,-0.004039563369271797,-0.004056458332357547,-0.004038943439585854,-0.004080246840664301,-0.004059412263814769,-0.0040270611333088815,-0.004131945881959907,-0.004127309200151616,-0.004068012444105465,-0.004090147820054513,-0.004164303959543552,-0.004100748973102347,-0.0040035254257130585,-0.004012194061630378,-0.004052174205775361,-0.00412433555709795,-0.004101179303549731,-0.004104953669734172,-0.00403297242895461,-0.004133309104166747,-0.004131502033012905,-0.004141665416217761,-0.004025734161729315,-0.004122960526785329,-0.004115255644043715,-0.004150931087633871,-0.004101544177482354,-0.00408914196018979,-0.0040924472205165156,-0.003985993167011485,-0.003940822045238074,-0.004094750541351524,-0.004113059284776857,-0.004145699337534153,-0.004069557825585566,-0.004074104176562365,-0.0040823748599342876,-0.00404472706807112,-0.004045195967762276,-0.003972179677998353,-0.0040935488136350255,-0.00412715201841107,-0.004070286988014437,-0.004109100185802977,-0.004123450029984754,-0.0041399715038657435,-0.004068347048242912,-0.004098435588598171,-0.004040855484940522,-0.004085958674101969,-0.004093557070170766,-0.004072495947124277,-0.004047317233254299,-0.004106275187899252,-0.004077650033566097,-0.004061753074342244,-0.004109731072939562,-0.004055515970050439,1.0253465282031866'
p438
asg14
F0.00010529827748970464
sg15
g298
sg17
I27
sg18
g299
sg20
F0.199879
sg21
g437
sg22
g438
sg23
I211159
sa(dp439
g2
F1647820.7003285179
sg3
(lp440
S'RESULT:'
p441
aS'SVMADMM'
p442
aS'29'
p443
aS'225128'
p444
aS'0.199879'
p445
aS'1647820.700328518'
p446
aS'1.0529437917649307E-4'
p447
aS'1647820.7004338123'
p448
aS'-0.004046205856443957,-0.004059175677059103,-0.004118828599150377,-0.004195702220480315,-0.004131108283380463,-0.0040869982995466675,-0.00409016361941869,-0.004068839429912823,-0.004038196710060356,-0.0040471528344516935,-0.003954615962725631,-0.004061643024151518,-0.004069921004360631,-0.004086088249352635,-0.004071827983999755,-0.004007783550266979,-0.004043214678619722,-0.004035610760088549,-0.004097982593214553,-0.004057421022942665,-0.004065103804594723,-0.004122817060664979,-0.004097189232582156,-0.004126924127871086,-0.00412589060777604,-0.004053706568902197,-0.004097076723405648,-0.004130941712380076,-0.004024773766885391,-0.004132448873525951,-0.0040704764726252575,-0.004026672909429744,-0.004039498989557222,-0.004074724794779361,-0.004098101450571896,-0.004110639689383998,-0.004100014391834041,-0.004104231474236694,-0.0040561747041119225,-0.004059489998180743,-0.00403098107001605,-0.004062625472781333,-0.004049081088963498,-0.004033931056625146,-0.004070108344242782,-0.004063782392334421,-0.004048665205833315,-0.004180385180220529,-0.004141578963529149,-0.004050532111107616,-0.004120723110202799,-0.004212006811603445,-0.004103076959702319,-0.004017770828656314,-0.004017439295858382,-0.0040714053725962075,-0.004114678225428453,-0.004107817240077338,-0.004095700299450618,-0.004072706817865963,-0.004164592064610434,-0.004109190004082198,-0.0041220259798518,-0.00405622215815314,-0.004117172554612257,-0.004124607484687469,-0.004127828997892233,-0.004106605917790348,-0.004066322191901075,-0.004099802066703109,-0.003978468119449465,-0.003948942199912605,-0.0041353399835666,-0.004098527043036515,-0.004183760632433506,-0.00408834992913802,-0.0040678313820264695,-0.004117007238227041,-0.004048555325601089,-0.004067202416695985,-0.003989224052488872,-0.00411438040101919,-0.004106932076576278,-0.004101205863506383,-0.004094769360457403,-0.0041260770327719715,-0.004124605502661881,-0.0040745282190903925,-0.004105632909192643,-0.004042055777010777,-0.004090419539626097,-0.004086393830598043,-0.004042482695447388,-0.00404645431102997,-0.0041004794408755285,-0.004081612701497176,-0.004067096754682989,-0.004087927201699328,-0.004061700431802654,1.0253262594722212'
p449
asg14
F0.00010529437917649307
sg15
g298
sg17
I29
sg18
g299
sg20
F0.199879
sg21
g448
sg22
g449
sg23
I225128
sa(dp450
g2
F1647842.309077038
sg3
(lp451
S'RESULT:'
p452
aS'SVMADMM'
p453
aS'31'
p454
aS'241042'
p455
aS'0.199879'
p456
aS'1647842.309077038'
p457
aS'1.0530440675435083E-4'
p458
aS'1647842.3091823424'
p459
aS'-0.0040744359479878344,-0.004045596291554136,-0.004107955383410381,-0.004198945925656335,-0.004132616039781715,-0.004102641960407389,-0.004103148113983399,-0.004084639140143108,-0.004033034812443132,-0.00404209862336622,-0.003964732829897813,-0.004072938283607825,-0.0040443028327306185,-0.004077473524607604,-0.0041198315632565066,-0.0040239248620358836,-0.0040189534491849345,-0.004078492888615046,-0.004100573456554848,-0.004072384922145496,-0.004040682048262375,-0.0041054449020744245,-0.004095900042653445,-0.004122863513993678,-0.00412811006554565,-0.004071082947991657,-0.004128166178844501,-0.004117095276765059,-0.004067509556564167,-0.004126288684417651,-0.0040706303292715835,-0.004049100014582686,-0.004062900939355109,-0.004051115306019381,-0.004103761915093468,-0.004138620985351951,-0.004086921665912425,-0.004108346005421944,-0.004089546513349161,-0.004085496221462439,-0.004027697493760227,-0.004022827693885747,-0.004050868716126836,-0.004031354091093075,-0.004068158355849646,-0.004072455433123502,-0.004049328934724264,-0.004138217081343588,-0.004139822396938124,-0.004023586727174566,-0.004131912380928246,-0.004185075955550411,-0.004105562441812204,-0.004012368245492419,-0.00403959583843822,-0.004036723254687225,-0.004099582955262525,-0.004096373292634913,-0.0041013003400877865,-0.004037130250162229,-0.0041494886620372625,-0.004131213458631182,-0.004119977778688861,-0.004033540662423847,-0.004108933556852854,-0.004118576144381533,-0.00412277255777025,-0.004121085664599843,-0.004057457300910391,-0.004110466264286772,-0.003997740167650121,-0.00395243849201681,-0.004094235613368086,-0.00409946684606939,-0.0041541707893808484,-0.004081816562707635,-0.004070650611347611,-0.0041118703180296695,-0.004063492956896526,-0.00404971405410411,-0.003989080005673325,-0.004119359857113724,-0.004108611174296708,-0.004070952077615136,-0.004135697960796015,-0.004112813110742941,-0.004130607340989918,-0.004041798621664022,-0.004104383866553451,-0.004062561325918586,-0.004079279312641786,-0.004104562664387036,-0.0040685095344618364,-0.004048589848589115,-0.004087771100830044,-0.004059488911995854,-0.004085456478638629,-0.004089969110676742,-0.004056006146639438,1.0253751670093834'
p460
asg14
F0.00010530440675435083
sg15
g298
sg17
I31
sg18
g299
sg20
F0.199879
sg21
g459
sg22
g460
sg23
I241042
sa(dp461
g2
F1647454.1347098039
sg3
(lp462
S'RESULT:'
p463
aS'SVMADMM'
p464
aS'33'
p465
aS'255589'
p466
aS'0.199879'
p467
aS'1647454.1347098039'
p468
aS'1.0530421700813551E-4'
p469
aS'1647454.134815108'
p470
aS'-0.004033714872365227,-0.004068748250230374,-0.004080654827275472,-0.004186119683306475,-0.004144335018157947,-0.0041139149330417304,-0.004098123802808701,-0.004086862084492738,-0.004048916723827767,-0.004077457761249621,-0.003975360553004635,-0.004069359400366476,-0.0040750636667208195,-0.004089076472325473,-0.004114853073008757,-0.004020220260580914,-0.004013166912305304,-0.0040652374399172365,-0.0040970891205072,-0.004074960141748821,-0.004060996995497094,-0.004122090458353185,-0.004080984991781997,-0.0041295223134691465,-0.004147641347176313,-0.004061969085615104,-0.004093814615787528,-0.0041257388728045685,-0.004033518986087355,-0.0041355879490124516,-0.0040444386769477834,-0.004046032562604832,-0.0040438672626412955,-0.004065224211597912,-0.004105060289186119,-0.004112735885428911,-0.004088739975455396,-0.004103802320764888,-0.004092976109652357,-0.004096790846394619,-0.0040309176126231685,-0.00407018753025276,-0.004055349805860884,-0.004057747884697757,-0.004100070687416841,-0.004045360868517625,-0.004032906923520074,-0.004152712953300392,-0.004137467704269642,-0.004052258076921191,-0.004116182879631851,-0.004197235316987703,-0.004112893470011526,-0.003993049054452129,-0.004036413567662403,-0.004060591312673253,-0.004109318768929253,-0.004090698642585565,-0.004119998052448072,-0.004053365936824642,-0.004144868540768742,-0.004133225368039313,-0.004128726099297098,-0.004052762018639056,-0.004089237159824917,-0.004108370214780783,-0.004122591927685276,-0.0041282880704895586,-0.004095714316660226,-0.004115393342496022,-0.003980389960716471,-0.003951273794510904,-0.004114493630107265,-0.0041256423336253735,-0.004161195433943896,-0.0040896141598290225,-0.004083441276984578,-0.004101955419562469,-0.004062670400594068,-0.004046308083462862,-0.003988078990253395,-0.004117551707781221,-0.004094983427317318,-0.004075970262700867,-0.004112958882506719,-0.004129601930826895,-0.0041285353252770865,-0.004076007154950162,-0.00407884498266487,-0.0040333230394883225,-0.0040690108911329,-0.004078943943300424,-0.004045033423339256,-0.00406133700190946,-0.004111019341340997,-0.004101740046702105,-0.004052084620396252,-0.004099379509486677,-0.004056725572129549,1.025373547968691'
p471
asg14
F0.00010530421700813551
sg15
g298
sg17
I33
sg18
g299
sg20
F0.199879
sg21
g470
sg22
g471
sg23
I255589
sa(dp472
g2
F1648225.1987282082
sg3
(lp473
S'RESULT:'
p474
aS'SVMADMM'
p475
aS'35'
p476
aS'269653'
p477
aS'0.199879'
p478
aS'1648225.1987282082'
p479
aS'1.0530659846376272E-4'
p480
aS'1648225.1988335147'
p481
aS'-0.004073666192647977,-0.004042436545481115,-0.0041165454683770135,-0.0041877382534094235,-0.00414832907240085,-0.004108498485815528,-0.004099464152273852,-0.004083356273737521,-0.004058306802093197,-0.004060284340375887,-0.003975262412942573,-0.004059243461035113,-0.004057360606068756,-0.004119052056706051,-0.004062071746709727,-0.004012459474233928,-0.004054065604719903,-0.004055690832596057,-0.004096062478589093,-0.004076602548505716,-0.004073443397530527,-0.004117352543678521,-0.004089149029159148,-0.0041296412736529006,-0.004129563661317697,-0.004072549483824123,-0.004124064546720753,-0.004148589610851302,-0.004034441963003752,-0.004121638478548663,-0.004047596990922095,-0.004036020581625968,-0.00405846408877198,-0.0040442675730751705,-0.004100732975591704,-0.00412962449710899,-0.004083224828640121,-0.004086112868762149,-0.0041138009375618284,-0.004075864814462731,-0.004025387066972331,-0.004038835920883687,-0.004033250096089253,-0.0040335577653731495,-0.004071898309507063,-0.0040512306811619665,-0.004033523648341214,-0.004153917829128286,-0.004108947991229986,-0.0040650285638986604,-0.004083967520994729,-0.004183238058376815,-0.004082981179049819,-0.004013337451402987,-0.004037125853670895,-0.00407149866036168,-0.004107236856573047,-0.004084644631828649,-0.004089989805327719,-0.004037725140544531,-0.004136243913849315,-0.004132600169599356,-0.004107964614837908,-0.004029426707644584,-0.004110680396898045,-0.004125458456907777,-0.004131378827177635,-0.004110662056924637,-0.004106783264312619,-0.004097476871070783,-0.003986109625280667,-0.0039371926536865345,-0.004112837719194864,-0.004112547614872827,-0.004139583250809537,-0.004063125256442088,-0.004074855325043815,-0.004097554362574676,-0.004045724058079022,-0.004047100379153078,-0.003999369938316185,-0.004094302177710452,-0.004086843943058877,-0.004100214920819731,-0.004096751489960149,-0.004104178740503584,-0.0041201194082885586,-0.004051385373385893,-0.004107962694001954,-0.004055732952178242,-0.0040949710535450184,-0.004087558882537195,-0.00406547240506009,-0.004072156764406707,-0.00408664180028507,-0.0040788504586721135,-0.004067740579033354,-0.004067136345630917,-0.004045609124467805,1.025386515000455'
p482
asg14
F0.00010530659846376272
sg15
g298
sg17
I35
sg18
g299
sg20
F0.199879
sg21
g481
sg22
g482
sg23
I269653
sa(dp483
g2
F1647775.327505369
sg3
(lp484
S'RESULT:'
p485
aS'SVMADMM'
p486
aS'37'
p487
aS'284622'
p488
aS'0.199879'
p489
aS'1647775.327505369'
p490
aS'1.0530447959171039E-4'
p491
aS'1647775.3276106734'
p492
aS'-0.004065921542512379,-0.004054573880687122,-0.004087799335028197,-0.004169650492513638,-0.0041429905152191625,-0.00407614104175937,-0.004106261471564776,-0.004096150385743075,-0.0040251095899635604,-0.0040344714289177455,-0.003972048133146244,-0.004091286645973089,-0.00406112788681707,-0.004089798434786838,-0.004100509973690459,-0.004034771235855452,-0.004052084347591281,-0.004052188227053338,-0.004087594354582351,-0.004075144013244489,-0.004070006929675322,-0.004127349730801109,-0.004093908216069135,-0.004131014084180942,-0.004120099934247427,-0.004059722975812447,-0.004081783066247034,-0.0041395756282156864,-0.0040531703947295755,-0.004148389409378906,-0.00406022854563336,-0.004025043391255449,-0.0040688437275278305,-0.00403574766695406,-0.004050774083313088,-0.004130977171360531,-0.004082510618007998,-0.004109732892752276,-0.00407901296061165,-0.004082072662180839,-0.0040244311262106,-0.004043837671061767,-0.004064078088918817,-0.004039640275284167,-0.00406037094196885,-0.0040515633897623814,-0.004045557134522672,-0.00414644185489036,-0.004122934399533114,-0.004048245571347199,-0.004084227645206162,-0.0041931183808555815,-0.0040887089020150745,-0.004029772460266266,-0.00404044687737706,-0.004027510209880604,-0.004112492904825263,-0.004092715964528043,-0.00411542443731513,-0.004035447849192013,-0.004153735993060707,-0.004133065210077926,-0.004110248205296506,-0.004044536286421523,-0.004120233690097784,-0.004106260928533203,-0.004141820062671292,-0.004101409436240973,-0.004096249253630791,-0.004104522208178193,-0.004003840427270419,-0.003970025773351441,-0.004099044152206353,-0.004121604088129233,-0.004161857594115644,-0.004084223021242159,-0.0040750992714722635,-0.00409656707802588,-0.004055215395218044,-0.004065668570993625,-0.00399790709480675,-0.004102418350300314,-0.004102886775652813,-0.00409825669819095,-0.004135671560814866,-0.004135946607384808,-0.004130370967418633,-0.004072405650432045,-0.0040939594390169975,-0.004044250334953566,-0.004119594694538,-0.004057805727946082,-0.0040333020192940515,-0.004067754289105163,-0.00409913397200197,-0.00408895914274357,-0.004086203633942613,-0.004087941590588327,-0.0040600881585036675,1.02537541086683'
p493
asg14
F0.00010530447959171039
sg15
g298
sg17
I37
sg18
g299
sg20
F0.199879
sg21
g492
sg22
g493
sg23
I284622
sa(dp494
g2
F1647502.0296957202
sg3
(lp495
S'RESULT:'
p496
aS'SVMADMM'
p497
aS'39'
p498
aS'298560'
p499
aS'0.199879'
p500
aS'1647502.0296957202'
p501
aS'1.0530537254743882E-4'
p502
aS'1647502.0298010255'
p503
aS'-0.004052598287582355,-0.00405538283851891,-0.004122234400554338,-0.004174481329291245,-0.004164115126695884,-0.004108251174365339,-0.004108255589637323,-0.0040737880328548465,-0.004022688693062493,-0.004068789380913703,-0.003973530708214374,-0.004065271722492606,-0.004064541924752944,-0.004086527658007192,-0.004081447651850686,-0.004019271659851869,-0.004051559739039951,-0.004070460418919393,-0.0040782721333770785,-0.0040701599112933935,-0.004063710482188121,-0.004135921628522183,-0.004074982134781636,-0.004151304397932794,-0.004107333128303312,-0.004068651998150086,-0.004097779483091033,-0.0041465918679740536,-0.004050016437678389,-0.004145695910295507,-0.004050407968201642,-0.00403024213349457,-0.004060401363955694,-0.004065572803006363,-0.0040718345619005685,-0.004122730703560691,-0.004101552101172651,-0.004103690719329263,-0.004076252003093467,-0.00409856728715134,-0.0040532902616927146,-0.004048004190720007,-0.004059403338163661,-0.004041448875578347,-0.004089204612632654,-0.004052835664271035,-0.004041601911836317,-0.004164289110813832,-0.004107911071542742,-0.004052026860584724,-0.004120671878732322,-0.004170999070522784,-0.004103450883394454,-0.004033344929808133,-0.004034063514881333,-0.004054814084806132,-0.004126726439611721,-0.004114498874128865,-0.004110611883236612,-0.004059445626155485,-0.004160865415678483,-0.004123973868080055,-0.0041107981431453165,-0.004026626735295869,-0.00409819370540385,-0.004116025112406366,-0.00411851249378494,-0.004111959037105598,-0.0040649441756440904,-0.004105112498207291,-0.0040006070608588655,-0.003960007006650929,-0.004093769603628584,-0.004128956496464974,-0.004177600782766729,-0.00408473100715468,-0.0040560102929428805,-0.004105932099813784,-0.004036825263921486,-0.004045329817128652,-0.004007502578841952,-0.004093909950999259,-0.004106127021220896,-0.004099783278471067,-0.004141084021091549,-0.004117313521890448,-0.0041118817583211675,-0.004052387178481593,-0.004102253046413509,-0.0040472533982591485,-0.004082164452221427,-0.004100977177141299,-0.004042999774723937,-0.0040639355903111605,-0.004099761549641184,-0.004083258109231111,-0.0040658824425333345,-0.004099990519710558,-0.004057395019378591,1.0253792716179437'
p504
asg14
F0.00010530537254743882
sg15
g298
sg17
I39
sg18
g299
sg20
F0.199879
sg21
g503
sg22
g504
sg23
I298560
sa(dp505
g2
F1647505.2590336704
sg3
(lp506
S'RESULT:'
p507
aS'SVMADMM'
p508
aS'41'
p509
aS'311623'
p510
aS'0.199879'
p511
aS'1647505.2590336704'
p512
aS'1.0530442035063144E-4'
p513
aS'1647505.2591389748'
p514
aS'-0.004052865249343748,-0.004037192134109317,-0.004080206393674978,-0.0041839066233896735,-0.004132170817646292,-0.004130484917539466,-0.004099601958720321,-0.004088726989356536,-0.004049399718399859,-0.004066802677397438,-0.003969108380759782,-0.004071863785679016,-0.004068465184339138,-0.004076727458742186,-0.004085794169867266,-0.004033940920749231,-0.004049359263270435,-0.00408391883179277,-0.004082845327363347,-0.004071017456357889,-0.004072403184079782,-0.0041111210041394316,-0.004057283414937479,-0.004132672013390109,-0.004139093234643348,-0.004075267291727555,-0.0041059007927816025,-0.004143671308664159,-0.00402936739571379,-0.004143073306612335,-0.004043485546225301,-0.004038814764039348,-0.004053211938046511,-0.004062200316865215,-0.0041018155626710035,-0.0041035327416321715,-0.004100257206378801,-0.004081127320577111,-0.004069752207116249,-0.004101031157077134,-0.004040553504315839,-0.004033530495264464,-0.004056691234364594,-0.004032488393987002,-0.004063709269458425,-0.004076248779477218,-0.004039877130728701,-0.0041718940118600336,-0.004152015762828514,-0.004050839386300917,-0.004075289797186295,-0.004169452439271755,-0.004089435617469191,-0.004020592542215784,-0.004038806375380501,-0.0040694531891451785,-0.00412319145450334,-0.004094625757150975,-0.004136777561840686,-0.004037880598317079,-0.004146556937528255,-0.0041522416736434154,-0.0041052159841800705,-0.004025108564483621,-0.004120214885062531,-0.004110184333490653,-0.004117939608254539,-0.004121851172135733,-0.004075103185354236,-0.004091327030515452,-0.004009170273806603,-0.003937331973385678,-0.004114199919444642,-0.004126360562191584,-0.00414836586669165,-0.004082311502946289,-0.004104385164039336,-0.00409496041331376,-0.004057112325952234,-0.004060988376316796,-0.004006341930920562,-0.004108997980164245,-0.004103432043570174,-0.004089689031185514,-0.004131889661065563,-0.004124716309189965,-0.004143802363257293,-0.0040686267242193595,-0.004106572323295355,-0.004040540527930499,-0.004080286893553646,-0.004089890410713515,-0.004047862327929068,-0.004064177271310615,-0.0040895092416512275,-0.00409762512065043,-0.004078237695140214,-0.004115483541231493,-0.004032344555396148,1.0253746344092611'
p515
asg14
F0.00010530442035063144
sg15
g298
sg17
I41
sg18
g299
sg20
F0.199879
sg21
g514
sg22
g515
sg23
I311623
sa(dp516
g2
F1646861.2868516569
sg3
(lp517
S'RESULT:'
p518
aS'SVMADMM'
p519
aS'43'
p520
aS'327482'
p521
aS'0.199879'
p522
aS'1646861.2868516569'
p523
aS'1.0531381536144276E-4'
p524
aS'1646861.2869569706'
p525
aS'-0.00406447195222713,-0.0040789842562929755,-0.004109227292216761,-0.004211419007988025,-0.004149142284393099,-0.004117842142963925,-0.004102325962989346,-0.004067004797364672,-0.004043512313832442,-0.0040598628844081205,-0.003991864401668303,-0.00407968406148182,-0.004068514276339465,-0.004108478793868517,-0.00409552515957973,-0.004066438478609173,-0.004041828640202463,-0.004070012703914023,-0.004085298686366634,-0.004069827500943894,-0.004069266766795867,-0.004114348997396228,-0.00410877995283272,-0.004135394641214359,-0.004127760173881671,-0.004094492374199101,-0.0041020549256414185,-0.004135998467906437,-0.004037918332531795,-0.004135081877734573,-0.004070462347183366,-0.004050013185465028,-0.004047343280247392,-0.004069823398493895,-0.004114266883143313,-0.00411450173461483,-0.004103064740311146,-0.004113099879130585,-0.004096488538517226,-0.004092047582927139,-0.0040130636068997,-0.004049587294412354,-0.0040648301833776735,-0.004053782852172896,-0.004058581831119619,-0.0040507464578901685,-0.00406291709101561,-0.004165475128745165,-0.004132134384465627,-0.004048448337443289,-0.004099286140628319,-0.004179232042961402,-0.00410906173152387,-0.004031096477796843,-0.004026632907621896,-0.004062790442502425,-0.004125558126767986,-0.004108278454123776,-0.004102977301391969,-0.004030560631742488,-0.004144904118893883,-0.004137792224373767,-0.004117783130875932,-0.004070168727479831,-0.004096994477726424,-0.004109023520538957,-0.0040982306328834475,-0.004090828340612978,-0.00407581267429941,-0.004098081525586858,-0.003973895321143143,-0.003980051636038108,-0.0041096015450651216,-0.004118068061766731,-0.004165328701105123,-0.004079103070424041,-0.004076587216568443,-0.004099371871992332,-0.004051860460380962,-0.00407261946145464,-0.003994779603695586,-0.004105080162247563,-0.004128686188244382,-0.004120136289900075,-0.004107151616455331,-0.004100061896596986,-0.004132126409683038,-0.004082475293259912,-0.004101482756970598,-0.0040456692339724465,-0.004092651484179189,-0.004097629179381244,-0.004064531165153516,-0.004073294776680144,-0.004084410788670077,-0.004095157693008621,-0.0040480292610297385,-0.004107644092167437,-0.0040472889899913125,1.0254192237661734'
p526
asg14
F0.00010531381536144276
sg15
g298
sg17
I43
sg18
g299
sg20
F0.199879
sg21
g525
sg22
g526
sg23
I327482
sa(dp527
g2
F1646747.5435011508
sg3
(lp528
S'RESULT:'
p529
aS'SVMADMM'
p530
aS'45'
p531
aS'342384'
p532
aS'0.199879'
p533
aS'1646747.5435011508'
p534
aS'1.0530923871456597E-4'
p535
aS'1646747.54360646'
p536
aS'-0.004070923320566239,-0.004050142977531893,-0.004116479203976872,-0.004199591034184148,-0.004154209130086039,-0.0041140403391375265,-0.004095455545263434,-0.004071113883988077,-0.004033345256970719,-0.004064745284866394,-0.003948129619157757,-0.004090487742881163,-0.0040566510739859386,-0.0040687670454438996,-0.004076718255685861,-0.004027993971373228,-0.004056669129177604,-0.004069247667941357,-0.004098955698131701,-0.004100866047219779,-0.0040958146639461825,-0.004135764860742439,-0.004104967859834733,-0.004155129305113907,-0.00411699381950646,-0.004068430554842133,-0.004099863083173319,-0.004151164797584395,-0.004015547622091836,-0.004125094512707658,-0.004052904284458952,-0.0040382697098008,-0.004034870471728581,-0.0040530938838670705,-0.004109833423472725,-0.004129460145497333,-0.004135849296396643,-0.004135602458790047,-0.004098650084610492,-0.004080055119585215,-0.004038823366766374,-0.004039321945633752,-0.004057160727305308,-0.00402634530974954,-0.004046267826141312,-0.004068571629339602,-0.00405942696890764,-0.004162402757233753,-0.004125395137346766,-0.00405644988374852,-0.004133415240272441,-0.0041846231619866656,-0.004097626765194673,-0.004012810847530829,-0.004039676510982909,-0.004065095529746989,-0.004141644215994589,-0.00410279340216439,-0.004086000998919753,-0.0040486650411204845,-0.00415590606790038,-0.0041362028044200265,-0.004103369393598989,-0.00405200252771288,-0.004111689175904877,-0.0041118926398313865,-0.00414084928907139,-0.004100271174020537,-0.0040855077762097375,-0.004132637804876866,-0.004010831566587975,-0.003936511399667143,-0.004096331861723928,-0.004116742675284777,-0.004160786657229997,-0.004082266772311829,-0.004076103185880962,-0.004126970854385101,-0.004041977894027597,-0.00406455252082115,-0.004000930545327005,-0.004108958522333153,-0.00410546074067011,-0.00409153537259213,-0.004137199581177546,-0.00411819833311697,-0.004126925576094776,-0.004081832698134532,-0.004119016347560906,-0.004076817513370095,-0.00406594794727198,-0.004091867785826837,-0.004068963156014877,-0.004093128556723451,-0.004089320714309952,-0.0040779117279179855,-0.004072583559842094,-0.004093410832610948,-0.004075447164837005,1.0253966888093253'
p537
asg14
F0.00010530923871456597
sg15
g298
sg17
I45
sg18
g299
sg20
F0.199879
sg21
g536
sg22
g537
sg23
I342384
sa(dp538
g2
F1646877.5049828656
sg3
(lp539
S'RESULT:'
p540
aS'SVMADMM'
p541
aS'47'
p542
aS'356412'
p543
aS'0.199879'
p544
aS'1646877.5049828656'
p545
aS'1.053138442054198E-4'
p546
aS'1646877.5050881796'
p547
aS'-0.004076901435080599,-0.004041790060661411,-0.0041107333853137975,-0.0042066424505080675,-0.0041686687002264735,-0.004132115694157369,-0.004094067954774317,-0.004066033605900108,-0.0040466545991016825,-0.004061007683268366,-0.00397170927098336,-0.004087463982670918,-0.00408020128468993,-0.0040753799926545094,-0.0040827539888829345,-0.004027835173846826,-0.004052286351235439,-0.004044288132603667,-0.004079628516897967,-0.004096943023096651,-0.004077183792636645,-0.004111669771017543,-0.004101783150226711,-0.004145191855771667,-0.0041030634416624814,-0.004073986194328275,-0.0041034075579421715,-0.004118613042012962,-0.004028826436030781,-0.00413356080911885,-0.004060717674848251,-0.004020128535664592,-0.004062656598164093,-0.004049164781754206,-0.004091456747081482,-0.004132217114655348,-0.004114631708485575,-0.004130741065533513,-0.00410079628201961,-0.004084745252194655,-0.004028164125921062,-0.00403397561138585,-0.004053518519994613,-0.004037505037792511,-0.004067714617727073,-0.004070053032761921,-0.004039441580372921,-0.004157827083262585,-0.004130219240477192,-0.004067361425283896,-0.004118155685770147,-0.004179718340158425,-0.004096368436646959,-0.004016304675392658,-0.004053642324925468,-0.004059166384889375,-0.0041221226640499285,-0.004086213183794055,-0.004134903165050869,-0.004044470045190328,-0.004139127961265384,-0.004146608390673977,-0.004102831768932317,-0.004041263372426164,-0.004125195777304367,-0.004097587319782668,-0.004125313504124959,-0.004106517075730296,-0.004080453063842613,-0.004137663679820811,-0.003973280193704901,-0.003956637544371225,-0.004101817811093906,-0.004122780256780785,-0.004159619791783022,-0.004078599285477727,-0.004072634963015182,-0.0041070692672252815,-0.004043487469537001,-0.004056452078405504,-0.003998368565992171,-0.004132003621916538,-0.004099276422727575,-0.004094288245970199,-0.004141228444790404,-0.004113879406107835,-0.00413498928584564,-0.004094918191927937,-0.004144786676700303,-0.004050144181486452,-0.004088825008687711,-0.004086749403975007,-0.004071183995182788,-0.00407522304915183,-0.004096795799473179,-0.004091858072740543,-0.004087077222244959,-0.0040996863829903946,-0.004054539115440044,1.0254193803428322'
p548
asg14
F0.0001053138442054198
sg15
g298
sg17
I47
sg18
g299
sg20
F0.199879
sg21
g547
sg22
g548
sg23
I356412
sa(dp549
g2
F1647125.4754892359
sg3
(lp550
S'RESULT:'
p551
aS'SVMADMM'
p552
aS'49'
p553
aS'370482'
p554
aS'0.199879'
p555
aS'1647125.475489236'
p556
aS'1.0531543343021712E-4'
p557
aS'1647125.4755945513'
p558
aS'-0.004055120220748127,-0.0040378987714479115,-0.004116217800498645,-0.00419273923009699,-0.004149746231131273,-0.004081612959275152,-0.004096454501160618,-0.004086783681818061,-0.004029567227678007,-0.004037289115986882,-0.003955721364009607,-0.004077269245593999,-0.004036782981239827,-0.004098607386526841,-0.004102289398762535,-0.00402760835810611,-0.004027886261988032,-0.004085613592341618,-0.004084131387291687,-0.004061013369206362,-0.004058808247827958,-0.004097277464340781,-0.004094873663271802,-0.004156684972891085,-0.0041408111604696015,-0.004081812148988797,-0.004102453521909475,-0.004129743254042409,-0.004048964009632868,-0.004142054240289194,-0.004062012956306723,-0.004004458886226689,-0.004043575283527215,-0.004055360463739463,-0.004083181738205779,-0.004113703847221678,-0.0040839963818426,-0.004099138482711632,-0.0040886211003898654,-0.004085473355767556,-0.004028754441197261,-0.004065106339103466,-0.004052878902910231,-0.004049576540920816,-0.004083478314843001,-0.004046518540211199,-0.004062649126659982,-0.004169982976252286,-0.00411612034796672,-0.004073225485682365,-0.0041216363598282416,-0.004204101273348854,-0.004096740523962252,-0.004031141947232637,-0.004027642130736511,-0.004043245567089633,-0.004145027355310107,-0.004111518386271251,-0.0040917498097704005,-0.0040651988900096,-0.0041738870991746765,-0.004167927005435877,-0.004111248209274107,-0.004042981171229686,-0.004112763970521989,-0.004125172894365265,-0.004123428044287051,-0.0041068985743252535,-0.004080411400687283,-0.004121049104237272,-0.004012743459848591,-0.003958099018346969,-0.004106634847449816,-0.004103787417353749,-0.0041531718682403474,-0.004072158773643259,-0.004072930367035325,-0.004094573771852322,-0.004059779131542426,-0.004060763213851331,-0.0039997777617396535,-0.004127829740991958,-0.00410614556475303,-0.004089659373215452,-0.004111733666642151,-0.004119993508491978,-0.0041158674483712625,-0.004081503297483538,-0.004113775890205146,-0.0040390324211949866,-0.004116839981759807,-0.004090191292351097,-0.004063143412156609,-0.0040811719662675805,-0.004101862297418726,-0.004078733996727647,-0.004090287070081305,-0.004121022351324194,-0.0040507954257095625,1.0254275896784857'
p559
asg14
F0.00010531543343021712
sg15
g298
sg17
I49
sg18
g299
sg20
F0.199879
sg21
g558
sg22
g559
sg23
I370482
sa(dp560
g2
F2585160.9881917154
sg3
(lp561
S'RESULT:'
p562
aS'SVMADMMAsync'
p563
ag7
aS'29040'
p564
aS'0.199879'
p565
aS'2585160.9881917154'
p566
aS'3.6671518534077557E-6'
p567
aS'2585160.9881953825'
p568
aS'-0.0024281895338372932,-0.0023818024440866122,-0.0024882696597315125,-0.002432605926439636,-0.002418721890191061,-0.002362595451836458,-0.0023618794462965612,-0.002407188686837885,-0.0023409035866636366,-0.0023474059583420597,-0.002227863789542976,-0.002427281764590635,-0.0022680445625183478,-0.0024550574700813337,-0.002475384926458064,-0.0023588126899416165,-0.002287859778733613,-0.0023746140224954267,-0.0024467435344132952,-0.002476708535733027,-0.0023976646416287903,-0.0024487490189078333,-0.0025531395206689284,-0.002486778190525204,-0.002475618578261089,-0.002324265623127331,-0.0025155490892661498,-0.0025262750330326614,-0.0024475171229280898,-0.0025322637398714144,-0.0024715348419657563,-0.0022899669268483538,-0.0022409336336091366,-0.002443715795949781,-0.002383144385106514,-0.002406595135047162,-0.0024629168467814105,-0.002365285677954582,-0.002290499005107803,-0.002303858983521082,-0.0021977672769066935,-0.0023640061392405202,-0.0023584418388420503,-0.0023020780954703065,-0.0023519488004190687,-0.0023291355402424497,-0.0025431003273678207,-0.0024928117042629684,-0.0024432166751278575,-0.0023946445155749356,-0.0025511395530956383,-0.002721933930402056,-0.002471908749962694,-0.0022982909593164246,-0.002434220072509013,-0.002421540799013754,-0.0024891980696120294,-0.002369035557425616,-0.0022591098342389653,-0.002565995003203595,-0.0025473493859164776,-0.002457524264031434,-0.0024174461848268836,-0.002315884752206605,-0.002424295707450248,-0.0025177863516559528,-0.002442722988046239,-0.0023687038077268028,-0.0024952920208374347,-0.002354907541740156,-0.002457179836382508,-0.002261005307650195,-0.002441666839473957,-0.0024924101091828767,-0.002557472332119931,-0.0025178377113971046,-0.002340371451356367,-0.0023110069607335647,-0.0022949644856241932,-0.002368986617099912,-0.002376776853083447,-0.0023772291618627686,-0.0024142518778735023,-0.0022307696317682485,-0.0025614120982811388,-0.0024825283238252825,-0.002508576741661596,-0.0025959310205108327,-0.0024798112708478426,-0.0023489095869182537,-0.00238671242262292,-0.002474362738671033,-0.0021000616940411955,-0.002396305631988158,-0.0023850177579354233,-0.0022948887080173983,-0.0024715743889892365,-0.0024624018383955096,-0.0022582939937479214,0.18998964192914328'
p569
asg14
F3.6671518534077557e-06
sg15
S'cd ~/spark; sbin/stop-all.sh; sleep 5; sbin/start-all.sh;./bin/spark-submit --class org.apache.spark.examples.mllib.research.SynchronousADMMTests examples/target/scala-*/spark-examples-*.jar --algorithm SVMADMMAsync --regType L2 --regParam 0.000100 --format cloud --numPartitions 40 --sweepIterationStart 1 --sweepIterationEnd 50  --sweepIterationStep 2  --pointCloudPointsPerPartition 100000 --pointCloudPartitionSkew 0.010000 --pointCloudLabelNoise 0.200000 --pointCloudDimension 100   '
p570
sg17
I1
sg18
S'SVMADMMAsync'
p571
sg20
F0.199879
sg21
g568
sg22
g569
sg23
I29040
sa(dp572
g2
F2652815.7182075684
sg3
(lp573
S'RESULT:'
p574
aS'SVMADMMAsync'
p575
ag28
aS'24185'
p576
aS'0.199879'
p577
aS'2652815.7182075684'
p578
aS'3.6807268624287266E-6'
p579
aS'2652815.718211249'
p580
aS'-0.0022175132849600516,-0.0022107409913317807,-0.0023634178790162583,-0.002379882874013296,-0.0022889832632180295,-0.0022302229905616228,-0.002279342928872213,-0.0023047143151833033,-0.002134202639012336,-0.0022395425417859106,-0.002089776276269521,-0.0022793874864719173,-0.0021274042941941853,-0.00229661564737313,-0.0023514664577304477,-0.0021441443255573035,-0.002165720299796515,-0.0022524022762125534,-0.002327768638707503,-0.0023098665708760065,-0.0022730178721981965,-0.0022861049936251385,-0.0024134912588419303,-0.002385049121504841,-0.002307694162581333,-0.0021164654389757716,-0.0023442017359243967,-0.002333328886206187,-0.0022935220952171875,-0.0023658665246487198,-0.0023041388616712563,-0.002173732738643193,-0.0020837895231704305,-0.0022685969453993334,-0.0022373035487018673,-0.0023165190330725017,-0.0022966880806334017,-0.002212250670949536,-0.0021711183018987786,-0.0021521284105708548,-0.002027764411318718,-0.0022285416024177647,-0.002239103665218426,-0.002141547095718968,-0.002238926658746998,-0.002236762467926069,-0.0023692390029128635,-0.0022975077674571684,-0.002284104145231379,-0.0022501410279669397,-0.002392181079859379,-0.0025863577985987484,-0.002303430416682528,-0.0021379161239531773,-0.0023382318351247563,-0.0022831147006769892,-0.0023142750709117376,-0.002231664901735242,-0.002117984681882343,-0.0024470662692515147,-0.0024275552148045674,-0.002304191629241317,-0.00231140943957694,-0.002163649724466154,-0.0022499496313604012,-0.002336118120226745,-0.0023178277008894153,-0.0022486383039629315,-0.0024374139135516257,-0.002188147933236326,-0.0022987853859713367,-0.002151831397427296,-0.0022505186241009558,-0.002404129068324511,-0.0024468665323828455,-0.0023133571977417416,-0.002208489449725573,-0.002178054817295947,-0.0022152961438961917,-0.0022203373172953204,-0.0022195199833371674,-0.0022530449785392944,-0.002260789114994599,-0.0021012522189960687,-0.002479789323862673,-0.0023502427016645054,-0.0023627103806924967,-0.0024143322558047332,-0.002377563221436,-0.002180209811474587,-0.00225551035403593,-0.002303053836113452,-0.0018963698812384992,-0.002302585894700914,-0.0022189578551738837,-0.002184706560316348,-0.0023028398076739252,-0.0023317206412577143,-0.00207759178150206,0.1905198978429398'
p581
asg14
F3.6807268624287266e-06
sg15
g570
sg17
I3
sg18
g571
sg20
F0.199879
sg21
g580
sg22
g581
sg23
I24185
sa(dp582
g2
F2584761.9968360164
sg3
(lp583
S'RESULT:'
p584
aS'SVMADMMAsync'
p585
ag39
aS'23544'
p586
aS'0.199879'
p587
aS'2584761.9968360164'
p588
aS'3.684763346041499E-6'
p589
aS'2584761.996839701'
p590
aS'-0.0024152976258759655,-0.0023262592015178335,-0.0025011302189074207,-0.0024381063387180035,-0.002407963258231846,-0.0023819569147225444,-0.0023747476527016193,-0.002444114551194008,-0.0023411702901789608,-0.002349452692643457,-0.0021914961883098697,-0.002427957567597986,-0.0022615854477530937,-0.0024757835675810287,-0.0024776711558375216,-0.0023370609788734968,-0.0023288088483908826,-0.002357851259870732,-0.002464179814575458,-0.0024509855611881716,-0.0023899348642083826,-0.002499275097215569,-0.002557763669292025,-0.0025142508123818896,-0.0024818288256142585,-0.0023170151561007885,-0.002473654684901595,-0.002484206439342398,-0.0024397643088061726,-0.002576382379641958,-0.0024523830797624833,-0.0023186865430943867,-0.002244795837251882,-0.0024015788963812137,-0.0023936591912736955,-0.0024104343713785463,-0.002431610853083478,-0.002350994318719139,-0.002301313434658566,-0.0023220851788703445,-0.002151974511111347,-0.0023334136890721963,-0.002412765361190726,-0.0023058837558706273,-0.002337624414486722,-0.0023443872291432433,-0.002484226313206897,-0.0024531444110914833,-0.0024400172933175418,-0.0023650672355982846,-0.002552138794462375,-0.0026933109476771832,-0.002468104388760964,-0.0022947672497325112,-0.002476785347790642,-0.0023909449215913058,-0.002473320563634422,-0.00237971976986214,-0.002278179481646159,-0.00253795594288612,-0.0025867031597286614,-0.002500636351825452,-0.0024156003770364324,-0.002314716832206159,-0.002419851718361103,-0.002525364496444995,-0.0024018815378346607,-0.002371129097662079,-0.0025592455826796007,-0.002361093901380724,-0.002436894234343626,-0.002299001396777849,-0.0024540179193059636,-0.0025155682203270723,-0.002548731875195588,-0.002463596066309919,-0.0023727153788435057,-0.002340836572654458,-0.0023741533554909396,-0.0023802200732512178,-0.0024184813580514666,-0.00240571293778329,-0.002397413945393596,-0.0022048720468304476,-0.0025887452016950486,-0.0024951590296222745,-0.0025617734533420647,-0.002558523866900662,-0.0024924172575038085,-0.0023128720848522074,-0.0023450285855131803,-0.0024842589912281196,-0.002081413494632826,-0.002391781476071333,-0.002349441876865737,-0.0023384437625356366,-0.0024127329890047643,-0.0024650766657743715,-0.0022507453047835068,0.19045247973282803'
p591
asg14
F3.6847633460414992e-06
sg15
g570
sg17
I5
sg18
g571
sg20
F0.199879
sg21
g590
sg22
g591
sg23
I23544
sa(dp592
g2
F2541027.2176011628
sg3
(lp593
S'RESULT:'
p594
aS'SVMADMMAsync'
p595
ag50
aS'24709'
p596
aS'0.199879'
p597
aS'2541027.217601163'
p598
aS'5.175378506291402E-6'
p599
aS'2541027.217606338'
p600
aS'-0.0024790701195229036,-0.002464005723745126,-0.002621014136443297,-0.00254243944293907,-0.0025145720023677606,-0.002498811595478609,-0.0024472178858035527,-0.0025072922690093347,-0.002473507211413536,-0.0024568963225529866,-0.0022699998376792723,-0.0025397726340881427,-0.0023798500963204687,-0.0024949101522623385,-0.0025295746740207135,-0.0023999201154867164,-0.0024253071738687035,-0.0024812393339515774,-0.002500848122486602,-0.002531043673572301,-0.0024626998253367443,-0.002526166956960564,-0.002600787442471448,-0.0025980577062913296,-0.0025600357229646816,-0.002385061662086835,-0.0026003103523971126,-0.002597093952440935,-0.0025383120795589953,-0.0025609172389067752,-0.0025354136672598618,-0.0023733121093551923,-0.0023452733436382335,-0.002520171343959171,-0.002407286947399868,-0.0025254895095619396,-0.0025496879826066264,-0.0024581778412383825,-0.0023980270176042246,-0.0023810503372554757,-0.002290431961948717,-0.0024431115096307963,-0.002497039687974901,-0.0023596076242794243,-0.002456961997568995,-0.002432787977942296,-0.002568477159900615,-0.002537490596068087,-0.0025129261718651605,-0.0024814374873681354,-0.002600030866252249,-0.0027436375719610577,-0.0025409851386992695,-0.002368937501689921,-0.002522000933517453,-0.002466314143281587,-0.002541104989623112,-0.0024971183298864133,-0.00237305210239218,-0.002596447044721447,-0.0026528526184889365,-0.0025262465846260865,-0.002547188461078903,-0.002397160623648847,-0.0024652884625661086,-0.0025483813425971158,-0.0025529630802358125,-0.0024944858567885553,-0.002599963404003854,-0.0024464974665116637,-0.0025199101211031724,-0.002375375931095597,-0.002481348299872104,-0.002592145962890281,-0.002629250468163842,-0.002535127310990023,-0.0024640422508880066,-0.0024495677920064523,-0.002421761117548767,-0.0024472012206332807,-0.002491793989635981,-0.002519999533462429,-0.0024830085791272337,-0.002309217447688963,-0.0026362439664361277,-0.0025325783047616714,-0.0026401923174725174,-0.002651000441355063,-0.0025578495123239286,-0.002428162535078738,-0.0024148863921915386,-0.002498184847347547,-0.0022234172918318565,-0.00247997950418479,-0.002450091040127596,-0.0024587284509357227,-0.002532321241734196,-0.0025005533372845588,-0.002372169744336264,0.22613838996054936'
p601
asg14
F5.1753785062914024e-06
sg15
g570
sg17
I7
sg18
g571
sg20
F0.199879
sg21
g600
sg22
g601
sg23
I24709
sa(dp602
g2
F2515552.9560336783
sg3
(lp603
S'RESULT:'
p604
aS'SVMADMMAsync'
p605
ag61
aS'24482'
p606
aS'0.199879'
p607
aS'2515552.9560336783'
p608
aS'6.246143637428189E-6'
p609
aS'2515552.956039924'
p610
aS'-0.002565363821463192,-0.002565506827603963,-0.0027055868047735766,-0.002636239387479432,-0.002654531670395875,-0.002553566181210621,-0.002540534718249326,-0.002585929601239907,-0.0024867779806412864,-0.002554291592551047,-0.0023815771285145065,-0.002614227110620301,-0.0024448751653806367,-0.0026313723537608916,-0.002681949988519132,-0.0025192955884630274,-0.0025008809400438505,-0.0025736857446562334,-0.0026554840606401063,-0.0026764266071700638,-0.0025449700579517815,-0.0026071696101583907,-0.0026920506731517905,-0.002680298623276028,-0.002633285751740126,-0.0025417403174373392,-0.0026595393392565433,-0.0027037564405175203,-0.002594305649267207,-0.002675353874277925,-0.0026360907350319374,-0.002487446422320002,-0.0024468290067109788,-0.0025719948105382582,-0.0025800697966418137,-0.002636081435614172,-0.00263650922634844,-0.002578463451714002,-0.0025067634552319424,-0.0025056766002821006,-0.0023797607709083353,-0.002542735194400536,-0.002565782426840227,-0.002493830019684097,-0.002564400036214821,-0.0024955698360142496,-0.0026708619535063156,-0.002673584163697987,-0.002619026681075537,-0.0025945498806277064,-0.002691504457858247,-0.0028042976984201675,-0.002609320643273941,-0.0024812532092475447,-0.002651044228433297,-0.002563694271905083,-0.0026772583283086317,-0.0025869329446428628,-0.00245771140338381,-0.002664753008347918,-0.00274478026310932,-0.0026088519442145266,-0.0025853294025048766,-0.0025553977731130315,-0.0025773566920634103,-0.002658573107890688,-0.002611183660273439,-0.0025987060418790828,-0.002666734436531168,-0.002534781787469926,-0.0026188006626655814,-0.002512031894300424,-0.002577508954058299,-0.00266978088621904,-0.0027044866189927185,-0.0026433168540107286,-0.002535756109829481,-0.0026007924425184886,-0.0025477758895204776,-0.0025222038059712934,-0.002554727566306844,-0.0026141972120447333,-0.0025928944165540518,-0.0024590647928569285,-0.0027305035175872743,-0.002619305351454701,-0.002666308059356018,-0.0027047200034236796,-0.0026615526773783307,-0.0025277318796361713,-0.002526022012319627,-0.0026484246936430015,-0.0023373494555306027,-0.0025874063346495568,-0.0025545196274295873,-0.0025182572388525288,-0.0026347047138003074,-0.0026068612558887982,-0.0024402978049364917,0.2485905612832292'
p611
asg14
F6.2461436374281887e-06
sg15
g570
sg17
I9
sg18
g571
sg20
F0.199879
sg21
g610
sg22
g611
sg23
I24482
sa(dp612
g2
F2601222.3798636189
sg3
(lp613
S'RESULT:'
p614
aS'SVMADMMAsync'
p615
aS'11'
p616
aS'33443'
p617
aS'0.199879'
p618
aS'2601222.379863619'
p619
aS'6.940986695119471E-6'
p620
aS'2601222.37987056'
p621
aS'-0.0023449889785279207,-0.0022769076484662355,-0.00247180878271626,-0.0023533216478633908,-0.002411287043645591,-0.0023537647714844162,-0.0023517506323066746,-0.0023441872427655934,-0.0022931914963784826,-0.0023228615389891114,-0.002144590156057298,-0.002381401563972261,-0.0021949145425857295,-0.0024042836660621426,-0.0024427672758595936,-0.0022893845650388614,-0.002233666844170741,-0.0023062544073110445,-0.002373770458096401,-0.0024382112166808165,-0.002329343237518042,-0.002379520232235177,-0.0024675649723802204,-0.002443329600659828,-0.002439455439173275,-0.0022998815562976557,-0.0024212139091795777,-0.0024010643167241812,-0.0023845125210584326,-0.0024509418503140244,-0.002361823843655307,-0.0022573628827695412,-0.0022187153609030366,-0.0023408479888773082,-0.002302007939516017,-0.002375182021979364,-0.002354830517174959,-0.002330842140861769,-0.0022782843981159445,-0.002292361043032664,-0.0021290264233827655,-0.002335037492840239,-0.0023481660663696594,-0.002239332734087452,-0.0023126150476243156,-0.0022664600332939905,-0.002468967810209581,-0.00245924174223463,-0.002404812638503518,-0.0023147871145288183,-0.00249515782394054,-0.0026052115461224186,-0.0023895108761217213,-0.0022271553421948924,-0.0024091260573741767,-0.0023096189846543726,-0.0024453655689679727,-0.002366179466833715,-0.0022562771196915207,-0.002483973719685516,-0.00254937580214601,-0.002369001831548918,-0.002329783842766202,-0.0023132657113134913,-0.0023385951960594588,-0.0023924329995871577,-0.002400079879574166,-0.002281375177298849,-0.002409480439920282,-0.0023151089566369586,-0.002383805439709831,-0.002230898412413678,-0.0023243065797385986,-0.002453047975578709,-0.0024641807699779927,-0.0023859255223389816,-0.0022590090128449362,-0.0023182669499345046,-0.0023007471949638117,-0.0023400944498257973,-0.002314144126624381,-0.002387768234810149,-0.0023379383899260913,-0.002168202357395639,-0.0025134301665475354,-0.0023922058886681184,-0.0024919377124917198,-0.0025322194736374383,-0.002440262923532134,-0.0023012767268492337,-0.002307471644576244,-0.00237546023155917,-0.002088411472052944,-0.002347665768580095,-0.0022663473684358,-0.002322145493151238,-0.0024275333787096335,-0.002414431797555463,-0.002233136705737262,0.2624136513197857'
p622
asg14
F6.9409866951194713e-06
sg15
g570
sg17
I11
sg18
g571
sg20
F0.199879
sg21
g621
sg22
g622
sg23
I33443
sa(dp623
g2
F2453382.7007251251
sg3
(lp624
S'RESULT:'
p625
aS'SVMADMMAsync'
p626
aS'13'
p627
aS'35461'
p628
aS'0.199879'
p629
aS'2453382.700725125'
p630
aS'1.0813417218379877E-5'
p631
aS'2453382.7007359387'
p632
aS'-0.0025381533950930026,-0.0025529342198505433,-0.0027138456293338514,-0.0026813843734594125,-0.0026212406692740385,-0.0026300780870067274,-0.002593615423346678,-0.0025878030523004275,-0.002519303654672008,-0.002568514209695853,-0.0023293054876109415,-0.002654997082876569,-0.00248264750778531,-0.002664625681406424,-0.0026564775564028448,-0.0024926601036991945,-0.00252799950194757,-0.0026018025891325026,-0.0026455763633969676,-0.0026751078472195106,-0.00261837185922609,-0.002600527537395052,-0.002736603893827624,-0.002697472329307393,-0.002673736784243258,-0.00256072358674204,-0.0026247791717115194,-0.002676577524575612,-0.0026230129424152948,-0.002730767918773684,-0.0025964247848325296,-0.002480560572342634,-0.0024834208410254455,-0.002590557515711352,-0.00257903578162868,-0.0025973381448376747,-0.0026193739214034296,-0.002594342688812145,-0.002503502701178768,-0.002491549708812676,-0.002353925781314061,-0.00256804841564782,-0.0025822428186111227,-0.0025147758746842924,-0.0025853525444835762,-0.0025559566001885506,-0.0027143617747311085,-0.002710964497303107,-0.0025909205870483843,-0.0025247124142330508,-0.0027383489987276503,-0.0028785759155258604,-0.0026923210665529564,-0.0024325884325123487,-0.0026532963605280955,-0.0025900402060323653,-0.002618360077154679,-0.0026547681701953934,-0.002535071042774827,-0.0027141289736069317,-0.002843193369654546,-0.00264793467160338,-0.0026303120984161616,-0.0025863035581961784,-0.0026045498297782976,-0.0026722032238747926,-0.002680573227535508,-0.002615479688471221,-0.002704632086973697,-0.0025221885339001137,-0.0026192834161445494,-0.0024300196254825102,-0.00257852395883658,-0.002674441676782931,-0.002745824318999159,-0.0025910825364752654,-0.00248404238252862,-0.0026009244563572668,-0.0025887121679161137,-0.002544987552113942,-0.0026094968994697797,-0.0025978371491745754,-0.0026286922337946305,-0.0024414847916909023,-0.0027539994019958416,-0.002697582195067483,-0.0027188291315369097,-0.002710194911175613,-0.0026972445733281004,-0.0025208000302603065,-0.0025757145021039827,-0.0026239690883308347,-0.002323691290540476,-0.002611575497921282,-0.0025138313058307073,-0.0025806852501157784,-0.002668234869422786,-0.0026619315518112757,-0.0024566057506731423,0.3278140237330022'
p633
asg14
F1.0813417218379877e-05
sg15
g570
sg17
I13
sg18
g571
sg20
F0.199879
sg21
g632
sg22
g633
sg23
I35461
sa(dp634
g2
F2397285.9970479128
sg3
(lp635
S'RESULT:'
p636
aS'SVMADMMAsync'
p637
aS'15'
p638
aS'35559'
p639
aS'0.199879'
p640
aS'2397285.997047913'
p641
aS'1.261331693295159E-5'
p642
aS'2397285.997060526'
p643
aS'-0.0026726979310994986,-0.0027063873909708067,-0.002744882734113008,-0.002797863872986837,-0.002738869312456449,-0.002721250353612556,-0.0026823397246397884,-0.0026509932966882832,-0.002638991113987403,-0.0026588789656185902,-0.0024727971469657556,-0.0027405138200072517,-0.002601571779867535,-0.002814558128381818,-0.0027299229967043944,-0.0026355542660194196,-0.0025767769355340055,-0.002740965505683716,-0.002752409443193219,-0.002826448712133617,-0.0027769199256900334,-0.0027014463829362575,-0.0028256652082254315,-0.0028251716071231,-0.002742924405814442,-0.0026996711663209486,-0.002741987377123755,-0.0027850002237370815,-0.0027194545352623653,-0.0028264555852059036,-0.0027128606244123995,-0.002578455226374975,-0.002560028313068201,-0.0026820059902735206,-0.0026847398190146888,-0.0027431789961761513,-0.002764749909817621,-0.002727076075968887,-0.002562742753219484,-0.0026656098470645103,-0.0024827909120041748,-0.0026555356079821196,-0.0026822834983026783,-0.0025791029306307146,-0.002680696087560854,-0.002690772843250417,-0.00284460587317199,-0.002827051724928076,-0.0027031380472174325,-0.002616884492070853,-0.00281052884466692,-0.002932659694455511,-0.0027992713334190266,-0.0025658424581649453,-0.002720907520375378,-0.0026972836963655893,-0.0027320900845588564,-0.0027388249550930575,-0.0026238780458171414,-0.002807685963620741,-0.002934451288626449,-0.00272203348906086,-0.002810604116154057,-0.002655894865318855,-0.002671077416356576,-0.002810746993926326,-0.00277068325829913,-0.00270158183670573,-0.0027795423221286665,-0.00268579636555291,-0.002703330069987782,-0.0025957699980520546,-0.002689671596371366,-0.0027331341547121263,-0.0028305819397033724,-0.002700763152898852,-0.002587733073263988,-0.002735708913067868,-0.0026923480440109093,-0.00263930408991706,-0.0026821085215853243,-0.002735106995697456,-0.0027360797309761704,-0.0025556546648308844,-0.002896028500634437,-0.0028577676108132543,-0.002768975144659214,-0.0028098525408395397,-0.002832500704464194,-0.0026262352887224264,-0.002702662833451512,-0.0027578472949572937,-0.0024893544188045714,-0.0027314094746455505,-0.0026517719852846714,-0.0027013164279449443,-0.002754150290394899,-0.002806179752851751,-0.0025474863342402035,0.3541243402797269'
p644
asg14
F1.2613316932951591e-05
sg15
g570
sg17
I15
sg18
g571
sg20
F0.199879
sg21
g643
sg22
g644
sg23
I35559
sa(dp645
g2
F2405523.3759717569
sg3
(lp646
S'RESULT:'
p647
aS'SVMADMMAsync'
p648
aS'17'
p649
aS'36090'
p650
aS'0.199879'
p651
aS'2405523.375971757'
p652
aS'1.2612146974295419E-5'
p653
aS'2405523.375984369'
p654
aS'-0.002629864057315118,-0.00267016293644281,-0.0027711177129047344,-0.0027585789717296167,-0.002752907751658865,-0.0026852591254023263,-0.002670043490858433,-0.0026957705010415985,-0.00262959902298519,-0.0026010660496432456,-0.002434907019920389,-0.002690641745313252,-0.0026110049673945994,-0.002786399597504929,-0.0027833296185989,-0.0025789135708582,-0.002605331553152388,-0.0027094541715192216,-0.0027644461535549663,-0.0027467799364266003,-0.0027083568997045906,-0.002754606018029486,-0.0028315395055365715,-0.00281112552763421,-0.002734030377235078,-0.0026515942444569397,-0.002721265296612355,-0.0027267743865341566,-0.002680993550735687,-0.0027478568443254467,-0.002678411162597059,-0.0025292581822875513,-0.002581680459647307,-0.0027300672572378045,-0.0026527780061354873,-0.0026620542156607133,-0.002760610977245491,-0.002682424493092324,-0.0026047821627374146,-0.0025788421409838076,-0.0024567118250657023,-0.0026793413056616414,-0.002735052759355678,-0.00257383723694022,-0.002701518092390823,-0.0025690615449184854,-0.002775140105571061,-0.002794616040351911,-0.0026526409998159314,-0.002556981925696753,-0.002783288882981758,-0.002982448950737784,-0.0027441993047297116,-0.002553839961719476,-0.0027274930071552075,-0.0027116033025123935,-0.002725336788871293,-0.0027401461198455126,-0.0025998439356171832,-0.0027442033102120737,-0.002861762496732788,-0.002756090033267302,-0.0027411708845423064,-0.0025776572136940582,-0.002644133807003984,-0.0027996464794011813,-0.0027778010807112054,-0.002691391930427564,-0.0027731905032881777,-0.002652550422900096,-0.002751800052934644,-0.00249799582695907,-0.00269566126767518,-0.0027484065014711074,-0.0028264336469491958,-0.00268766096037148,-0.002564529482779848,-0.0026752487510306186,-0.002595229937827373,-0.0026369444932127454,-0.002702161256729089,-0.0027104303969196558,-0.0026699298147503867,-0.002598702116604211,-0.0028645789954244018,-0.0028207607138292993,-0.002772706248257061,-0.002824289309231315,-0.0027530880299688615,-0.002630558902174534,-0.0027249487658810045,-0.0026697428061286596,-0.0024397741934817393,-0.002685625223836554,-0.0026130950603658297,-0.0026691372493256493,-0.0027805053505467444,-0.0026966219744407887,-0.0025707815635441565,0.3541241749718605'
p655
asg14
F1.2612146974295419e-05
sg15
g570
sg17
I17
sg18
g571
sg20
F0.199879
sg21
g654
sg22
g655
sg23
I36090
sa(dp656
g2
F2387159.9344716314
sg3
(lp657
S'RESULT:'
p658
aS'SVMADMMAsync'
p659
aS'19'
p660
aS'36146'
p661
aS'0.199879'
p662
aS'2387159.9344716314'
p663
aS'1.2790946773983786E-5'
p664
aS'2387159.934484422'
p665
aS'-0.0026707167391789677,-0.002766981105753904,-0.0028276233899010186,-0.002791400032604103,-0.002736807615993085,-0.0028245514514616136,-0.002714164847158661,-0.0027778790317942417,-0.0027772540432167508,-0.0027121619095513325,-0.002536167283949448,-0.0027247642241485107,-0.002747786989309702,-0.002751187874954237,-0.002766215749665171,-0.0027062000236535216,-0.0027546259172548243,-0.0027031902003330733,-0.002735085668222829,-0.0028653125261451735,-0.0027756891008895554,-0.0027847538873260187,-0.0028262043271006262,-0.00290050736420668,-0.0027825547888865585,-0.0027086039088282674,-0.002709720083041743,-0.0028570366242036144,-0.0026827115593126534,-0.0028781314155418834,-0.0027067640742766902,-0.0026331732371611405,-0.00257392774699554,-0.002638210846381277,-0.0026720669316487654,-0.00279320633043542,-0.002929315197196747,-0.002732517768183487,-0.00261247450525072,-0.0026952056061564375,-0.0025247574154855265,-0.0026474483549496345,-0.002756854247143164,-0.002597411528718638,-0.002702745830043158,-0.002781097644899145,-0.0028328227066899856,-0.002849597584822829,-0.0027797728746786284,-0.002627586610256732,-0.002863034756131769,-0.0029975648301201214,-0.0028066750240351326,-0.002657284774766223,-0.00277937730229431,-0.0026796745525330713,-0.002789882931162096,-0.0027091328508410594,-0.0027115402308283275,-0.002805906280989365,-0.0030145182717223684,-0.0027698323610724504,-0.002731846269041387,-0.0026015697702098926,-0.0027697658896924464,-0.002881799967740315,-0.002857185273203476,-0.002778940428683794,-0.002892580724339083,-0.0027527792760333476,-0.002841364243753065,-0.0025016968239008433,-0.002793362989129826,-0.0027158228064870457,-0.0027844521035565338,-0.0028368545148159956,-0.0025792399454072933,-0.002833110732256689,-0.002624926009415048,-0.0027217090117776003,-0.002672468083633284,-0.0027959488285934646,-0.0027102428429210458,-0.002627468303834278,-0.002889481546084548,-0.0028235994918115155,-0.002827023266720734,-0.002842764481811634,-0.0028630374179129275,-0.002558408271736022,-0.002759267016193643,-0.0028129906992628282,-0.0024939281665967146,-0.002742747320298829,-0.0026820640661972452,-0.0027838683621816745,-0.0026828236605846664,-0.0027280531155041807,-0.002719772143162025,0.35659680732947036'
p666
asg14
F1.2790946773983786e-05
sg15
g570
sg17
I19
sg18
g571
sg20
F0.199879
sg21
g665
sg22
g666
sg23
I36146
sa(dp667
g2
F2334787.2987472084
sg3
(lp668
S'RESULT:'
p669
aS'SVMADMMAsync'
p670
aS'21'
p671
aS'35735'
p672
aS'0.199879'
p673
aS'2334787.2987472084'
p674
aS'1.6177179830958163E-5'
p675
aS'2334787.2987633855'
p676
aS'-0.002799324368855744,-0.0028227369892703906,-0.0029934913207919425,-0.0028834778538253136,-0.0028589584948417496,-0.0028450826040471366,-0.0028084527048348237,-0.0027587637264975292,-0.0026933486000481747,-0.00275887223407245,-0.0026083919965870944,-0.002848516015720063,-0.0027109701870115855,-0.002890450113497012,-0.0028911114108782616,-0.002721864211443076,-0.0027423027776688085,-0.0028261617546180076,-0.002903727977981358,-0.002904420356673986,-0.0028531128772134795,-0.002793945719291304,-0.003007120563370257,-0.0029261492980758195,-0.002889978993099503,-0.0028364482569779867,-0.0028177480106937095,-0.0029050963355240016,-0.002864903586199424,-0.0029242514571597303,-0.0027940724867681096,-0.0027419003204730867,-0.002691408168341943,-0.0028918166606894335,-0.002837120533552074,-0.0028484447122566546,-0.002888376158166907,-0.0028928042084517998,-0.0026873309294202833,-0.002794038126139674,-0.0026636486262320066,-0.0028463317836505764,-0.0028319247325890302,-0.002704038986831024,-0.0028494691317239125,-0.0026907428898621773,-0.002902617506136423,-0.002981461389252747,-0.002848318612565856,-0.002764332721188605,-0.00291363547153266,-0.003108654479309216,-0.002905288528337071,-0.0027677860210973916,-0.002823487314413692,-0.0027801970429477034,-0.0029036097836977904,-0.0029087062825637385,-0.002734985512625965,-0.0029883835701079876,-0.0030658994384825744,-0.002914640792489651,-0.002835799242022892,-0.002812724673864738,-0.0028207159516709652,-0.0028751506561543083,-0.0027987239833650807,-0.0028416004917033925,-0.0029131364470180625,-0.002776091589915364,-0.0027482239049103933,-0.0026934005018107924,-0.002839160412402707,-0.002877847967325392,-0.0028780065605466584,-0.002865332199552801,-0.002706510089489319,-0.0029169010936535623,-0.002765338340460337,-0.002789135302980982,-0.0028007452200118845,-0.002788586805945056,-0.002929941100231715,-0.0027464970191676606,-0.002965169357271869,-0.002924886413700112,-0.002897836279818796,-0.002888427027330132,-0.0029603654291348795,-0.0027046201934385044,-0.0028485793652480683,-0.002777318679290876,-0.002620742195287824,-0.002799157863531741,-0.0027868878242830134,-0.0027997469974583543,-0.0028861669314326076,-0.002890393794430709,-0.0027314231353608737,0.40121804211114875'
p677
asg14
F1.6177179830958163e-05
sg15
g570
sg17
I21
sg18
g571
sg20
F0.199879
sg21
g676
sg22
g677
sg23
I35735
sa(dp678
g2
F2251242.930914572
sg3
(lp679
S'RESULT:'
p680
aS'SVMADMMAsync'
p681
aS'23'
p682
aS'46442'
p683
aS'0.199879'
p684
aS'2251242.930914572'
p685
aS'2.2450243519186194E-5'
p686
aS'2251242.9309370224'
p687
aS'-0.0028996179507121324,-0.0029265416269629854,-0.0030226914001109297,-0.0030269283973793012,-0.0030558998378311542,-0.0030114675090925254,-0.0029361531663120123,-0.0029538332285161248,-0.002866899190477213,-0.0028718752266258156,-0.00274709372088073,-0.0030202868977313984,-0.002868939339612741,-0.003013355715951289,-0.0030237792302670085,-0.0029150212475776514,-0.002900833001819634,-0.0030237215276278403,-0.0029927998206986687,-0.0030067973769769153,-0.002879426379057384,-0.0029964291028432093,-0.00310545268551469,-0.0030420333221072493,-0.002987982600989338,-0.0028905019761614045,-0.0029812354698701277,-0.003063379058105195,-0.002975756780444834,-0.003098114177865468,-0.0029333492299297007,-0.002867174221228772,-0.0027882967068418776,-0.002989650443188111,-0.0029588795966255005,-0.003021800277740519,-0.0029388378535570837,-0.002970092573879607,-0.002875250962669338,-0.0029032529087561275,-0.0027916105924325777,-0.002946151995363102,-0.002977536653760907,-0.002888199463576749,-0.0029610109548243134,-0.002924794382965876,-0.0029677947845304707,-0.0031011609365983912,-0.0030040419172714995,-0.002865393134229883,-0.0030796802800863135,-0.0032250647829710865,-0.0031057060432546383,-0.0029076616629268017,-0.002975119099772992,-0.0029357680837356222,-0.003051129470012408,-0.0029929376175544136,-0.00291126799725896,-0.003040443635137588,-0.003137000351545983,-0.003041795733592245,-0.0030182957782777437,-0.002913726045229405,-0.003010238641517167,-0.0030638172748074337,-0.0030611209918475395,-0.0029453767565251485,-0.0030534325116239633,-0.0029069083580252233,-0.0030027815189462774,-0.0027968702569923258,-0.002966105896773821,-0.0030078605117311217,-0.0031339501243703017,-0.002919556489864878,-0.0028492967762135096,-0.0030039457945953024,-0.0029739673316668443,-0.002965910676722085,-0.0029299258315974453,-0.0029537850337383728,-0.0030115311663850247,-0.0028030086959145795,-0.0031217365339416435,-0.003069826607432997,-0.003051114298725578,-0.0030859938829062737,-0.00299365034598392,-0.002875455823717863,-0.002959786051717463,-0.003000524665280004,-0.0027207719498761438,-0.002961967139636688,-0.0029695848519109207,-0.002928134050147688,-0.002999505289930522,-0.0030355246452468737,-0.002878934457853991,0.4728930494851883'
p688
asg14
F2.2450243519186194e-05
sg15
g570
sg17
I23
sg18
g571
sg20
F0.199879
sg21
g687
sg22
g688
sg23
I46442
sa(dp689
g2
F2237104.2322625024
sg3
(lp690
S'RESULT:'
p691
aS'SVMADMMAsync'
p692
aS'25'
p693
aS'46852'
p694
aS'0.199879'
p695
aS'2237104.2322625024'
p696
aS'2.333005998991955E-5'
p697
aS'2237104.2322858325'
p698
aS'-0.002504547628273368,-0.0033126511298081696,-0.0030962797587086406,-0.0032860395475699973,-0.002721384129978808,-0.003205868044650621,-0.00315906573690738,-0.0031997691209904766,-0.0027571444603548133,-0.0033317877917968773,-0.002610620206288966,-0.0030427307560587443,-0.0028381188258622845,-0.0027210451917592813,-0.003394548703584071,-0.0029073303341197406,-0.002903528080493314,-0.0033703856662335788,-0.003064198721106542,-0.00325302866316613,-0.0029991190840794463,-0.003338990073549491,-0.00318835014160081,-0.003165093426135768,-0.0029900450859694297,-0.0029841568354418346,-0.0029267174161143965,-0.003320772402114498,-0.0031950663321063505,-0.0032302356218990593,-0.0032324003400498232,-0.002906551630664127,-0.0029804894411325908,-0.0030835162859120207,-0.0031380549022189423,-0.0030974324725745756,-0.003117624032638197,-0.0031398018801375295,-0.002806201068326736,-0.0030331107417282993,-0.0029559819827966968,-0.002715309505894133,-0.0032635572670398237,-0.0031096330614288894,-0.0029740289039176817,-0.00304668805372252,-0.0030306968647606713,-0.003183279573403447,-0.0028016486605847045,-0.0031567512772977513,-0.0034559365097619576,-0.0030941507855238777,-0.003115184870953978,-0.0029853024042636104,-0.002996846527754953,-0.0030189104974411244,-0.0034297177582674663,-0.0030195062181483756,-0.0033828354582699327,-0.003168905418316947,-0.003501044970944454,-0.0029995478575868383,-0.002743812189004891,-0.0026682616648801695,-0.0030025232541731764,-0.0030927503198005172,-0.003254947417710178,-0.0031657806633501955,-0.003001680817236278,-0.003041347255883172,-0.0029924695365086905,-0.002995379909969056,-0.003069282151626759,-0.0029660129592933124,-0.0029811122223622213,-0.0029397070509813135,-0.0029382082133026038,-0.003203931059071398,-0.0029283373905770976,-0.0030559706725258482,-0.00304108191542848,-0.003130744865620459,-0.002860285877650439,-0.00303932440515819,-0.0032389121530901643,-0.0033513393111932696,-0.0031167104005207225,-0.0029769609059129886,-0.0032547343191349776,-0.0030164025036542317,-0.0029821492087625445,-0.002949392447753701,-0.00281032253283081,-0.003080731874808715,-0.003112580514315497,-0.0031852134124501917,-0.002986505355307826,-0.003073898407200074,-0.002840070658580673,0.48204716067566783'
p699
asg14
F2.3330059989919548e-05
sg15
g570
sg17
I25
sg18
g571
sg20
F0.199879
sg21
g698
sg22
g699
sg23
I46852
sa(dp700
g2
F2251136.7567293057
sg3
(lp701
S'RESULT:'
p702
aS'SVMADMMAsync'
p703
aS'27'
p704
aS'46632'
p705
aS'0.199879'
p706
aS'2251136.7567293057'
p707
aS'2.532077797968101E-5'
p708
aS'2251136.7567546265'
p709
aS'-0.0028906547742898942,-0.002958719042498566,-0.0029732265508068166,-0.003039438216798267,-0.003015544690604332,-0.0029474767642044424,-0.0030128694157349548,-0.0029431098770910905,-0.002822243841249042,-0.0028973087434049057,-0.0027120572385913675,-0.00299198979990047,-0.002898734788670662,-0.0030056173925970056,-0.003003449935074108,-0.0027976750178245855,-0.002869293202043823,-0.0030059773857209885,-0.0029684392597917938,-0.002994801622882521,-0.002900678436701488,-0.0029777121185947863,-0.0031044858739214644,-0.0030470758362434055,-0.0030387179737682716,-0.002853517932624657,-0.00298163180557305,-0.0030088515336231816,-0.002948165128352493,-0.003100654503036616,-0.0029707519316702156,-0.0028251535131604026,-0.0028085346039938655,-0.0029724031504655976,-0.0029183752120876512,-0.002975888064275916,-0.0029838070578240166,-0.0029201369383149937,-0.002848178764581035,-0.002867392076144865,-0.0027451492432728334,-0.0029012704082030435,-0.0029451304760119176,-0.0028514364390389408,-0.0029399243340351234,-0.0028470744015467384,-0.0029427568413797358,-0.0030213425738432297,-0.0029075073234630373,-0.002836697581135248,-0.003013229515963917,-0.0032005762716621066,-0.003064314317601755,-0.002834007877972172,-0.0029978497928948803,-0.0029191004910314716,-0.003047030379368017,-0.002964365649882286,-0.0028959169876597644,-0.0030059449724242934,-0.003131778606066438,-0.002998861081042405,-0.002986846962837164,-0.002897958366673147,-0.002924824426374267,-0.003019244461700167,-0.002977661143053364,-0.0029249373379740093,-0.0030550336968958626,-0.002901160960925391,-0.0029507818591745353,-0.0027789049757702073,-0.0029168617554919014,-0.0029842409048673898,-0.003110985278099422,-0.0028969747777036763,-0.0028405648971754566,-0.0030007546932008713,-0.002884488333921425,-0.002932527371773945,-0.0029309673072557144,-0.0029814964799601755,-0.0029724159733561795,-0.002814989146903547,-0.0030839623866245874,-0.003024986885888487,-0.0030008476653864457,-0.003037047691673194,-0.00299436554071233,-0.002864309804326881,-0.002889648129197008,-0.00295483493301745,-0.0026626276176219747,-0.002894160311132205,-0.0029257008986793734,-0.0028981285737496036,-0.0029837980346029184,-0.0029797435249365022,-0.002829354599429359,0.5023430801702043'
p710
asg14
F2.5320777979681011e-05
sg15
g570
sg17
I27
sg18
g571
sg20
F0.199879
sg21
g709
sg22
g710
sg23
I46632
sa(dp711
g2
F2194062.0987381348
sg3
(lp712
S'RESULT:'
p713
aS'SVMADMMAsync'
p714
aS'29'
p715
aS'47093'
p716
aS'0.199879'
p717
aS'2194062.098738135'
p718
aS'2.7740122244981355E-5'
p719
aS'2194062.0987658747'
p720
aS'-0.0029841316095746114,-0.0030221639585216622,-0.0031204048047635486,-0.0031550422259536675,-0.003088805884950288,-0.003081720889164145,-0.003112981576788003,-0.003033219096408793,-0.0029473059532488625,-0.0029802330244664043,-0.002855447710675887,-0.0031068363690037967,-0.0029659574662740528,-0.0031282472720106113,-0.003123802405856437,-0.0028963777358146565,-0.0029913576450134346,-0.003124227313543287,-0.003081085957625073,-0.0031134338010389514,-0.0030254800545389407,-0.003077655589550528,-0.003192024431608093,-0.00313714644749318,-0.0031359564821343347,-0.002988025306610764,-0.0030738986065961373,-0.003142932518778597,-0.003057920700705941,-0.0032125695345349573,-0.0030782287915059573,-0.002971946737995849,-0.002885637323832241,-0.003109060046181041,-0.003018753361888527,-0.0031013366114082696,-0.003080973488452411,-0.0030348246920519524,-0.0029159360322942997,-0.002999792125783781,-0.0028623418018170277,-0.002988906038075792,-0.0030364792782767774,-0.0029353390641567805,-0.0030308035709360848,-0.0030102499050880184,-0.0031197906997085297,-0.003162901073914144,-0.003033233228831209,-0.0029199898799715405,-0.0031730726529244644,-0.0032996603741848023,-0.0031628452307442033,-0.0029731532378665143,-0.0031121501198740882,-0.003027758429727117,-0.003164064357018434,-0.003055851330393973,-0.0029916046436118046,-0.0031319703683097898,-0.0032483550917163386,-0.003113260928234236,-0.003113520960083558,-0.0030200452171268715,-0.0030544917467215677,-0.0031245129076804103,-0.0031100368266878805,-0.003056711972250014,-0.003161279488891323,-0.002969358070333043,-0.003104720758341124,-0.002861761036038424,-0.002996358709914898,-0.0030927062064416456,-0.0032660592777553205,-0.003057786226509018,-0.0029472029921773,-0.003119434763942603,-0.0030084879896336383,-0.002973732039082222,-0.0030263431357483404,-0.003070064130510793,-0.0030462419777388815,-0.0029378196588608473,-0.0032470288082259787,-0.0031379272752344255,-0.0031212749951985233,-0.003170864978331766,-0.0031048285788185274,-0.0029772005044845563,-0.003028634733368649,-0.003030230644724674,-0.0027748049751495545,-0.0030115371822003996,-0.0030350249438295097,-0.002974054079339405,-0.003143570068815023,-0.0031183087430748193,-0.002937541596582299,0.5258090886805559'
p721
asg14
F2.7740122244981355e-05
sg15
g570
sg17
I29
sg18
g571
sg20
F0.199879
sg21
g720
sg22
g721
sg23
I47093
sa(dp722
g2
F2797750.8467417625
sg3
(lp723
S'RESULT:'
p724
aS'SVMADMMAsync'
p725
aS'31'
p726
aS'47102'
p727
aS'0.199879'
p728
aS'2797750.8467417625'
p729
aS'2.742286614576558E-5'
p730
aS'2797750.8467691853'
p731
aS'-0.0018689704141357166,-0.001596291658521631,-0.0019895020359518545,-0.0016365540601233327,-0.0021708642037285126,-0.0022508871771148376,-0.002189843869458598,-0.0019422488464512489,-0.0020845386931083437,-0.0022235101308529016,-0.001533075341888749,-0.0020791816047960932,-0.002054449604380232,-0.00205455759898371,-0.0021928819963563987,-0.0019467189317309117,-0.0020035160262178112,-0.0019630762907710407,-0.0018120679322146172,-0.0022045693020248617,-0.002143214964862334,-0.0019157254572909977,-0.0020416297993994543,-0.002173802312977729,-0.0023220818421103547,-0.002154469707174153,-0.0022618166946964755,-0.001830006192675451,-0.0021023645335819805,-0.0020680455136155673,-0.002050741271565128,-0.0018137159485794034,-0.0018447951803410518,-0.0021476679043515245,-0.0019399302070984756,-0.002382205865578921,-0.0019804349288180924,-0.0018342031270914788,-0.0016930030938966407,-0.002182904933365793,-0.0016458408202640832,-0.0019176562127479646,-0.0018402328893936332,-0.0019510973374625158,-0.002000144258895613,-0.0019344430259501922,-0.0021967036637292616,-0.002200063763897061,-0.0020803688282139583,-0.001878993126022116,-0.002389457941418949,-0.0023768135508481264,-0.0020606122073216996,-0.0016515033038195022,-0.0018390736501742,-0.0018581594747125224,-0.002204150189518672,-0.00207110346295663,-0.001940400748307735,-0.0023963050741678564,-0.00197299002784311,-0.0020882700496121878,-0.0019243794113425693,-0.001980873447499417,-0.00206345238045681,-0.00227288622144168,-0.0021824426795023074,-0.001967877537202838,-0.002186841346217372,-0.0021953403604009418,-0.001894422225142559,-0.0016948241625615098,-0.001722855861190622,-0.002023476229945071,-0.002318200698784821,-0.002030981514893372,-0.001938823178212211,-0.002261318320395399,-0.0020695907401476078,-0.001995732754588526,-0.001704592623776146,-0.0021720573401210713,-0.002230846590508907,-0.0016538904729818242,-0.0021998023554412683,-0.002145203209914741,-0.002266452671407842,-0.002071818424189443,-0.0019683069428954553,-0.0020298172070973286,-0.0018891539610459945,-0.0022338639764935783,-0.0015944015517042904,-0.002058404031580493,-0.002452104328613194,-0.0019034488207952456,-0.001986187216821923,-0.002036563642963409,-0.0018141896374791978,0.523277624924692'
p732
asg14
F2.742286614576558e-05
sg15
g570
sg17
I31
sg18
g571
sg20
F0.199879
sg21
g731
sg22
g732
sg23
I47102
sa(dp733
g2
F2296873.5079928278
sg3
(lp734
S'RESULT:'
p735
aS'SVMADMMAsync'
p736
aS'33'
p737
aS'55553'
p738
aS'0.199879'
p739
aS'2296873.507992828'
p740
aS'3.0183454306195374E-5'
p741
aS'2296873.508023011'
p742
aS'-0.002821743395698856,-0.0028872151217049905,-0.0029614585035421357,-0.0029448336730343977,-0.002911910765866402,-0.0028850531526480702,-0.002907374390704367,-0.0028070531125856295,-0.00272173335735938,-0.0027820356400444653,-0.0026314154583529244,-0.0028483210316241473,-0.002784144808136926,-0.0029179692982606053,-0.0029181585694547977,-0.0027516476529634874,-0.002772901533836691,-0.002878608511748709,-0.002896785005343003,-0.002906812811768899,-0.002815186761373591,-0.002918332418565726,-0.0030050204508272334,-0.002943918323824508,-0.002910438794712155,-0.002803513583016156,-0.002874709810244124,-0.002946438494556637,-0.0028544786572992182,-0.0030202898019237247,-0.0028485500673963594,-0.0027869565765097433,-0.0026766850801991236,-0.0029107194026419553,-0.0028916475553440422,-0.0029415553674584493,-0.002909429435384998,-0.0028574512078447184,-0.0027908656530706267,-0.002775098026353241,-0.0026683176396529312,-0.002800530438686768,-0.0028615342711570684,-0.0027447961704147044,-0.002866851774305955,-0.002798872460365932,-0.0029178431964066113,-0.002989183442234572,-0.0028600218593671043,-0.0027814461107959453,-0.002978126675665514,-0.00317439851920213,-0.002994092983345771,-0.00272997850554174,-0.0028475087141915877,-0.0028115339475101556,-0.003013324045932554,-0.0028668809100682435,-0.0028036496621068664,-0.0029685132868453334,-0.0030907551809371157,-0.002954389845797519,-0.002899483835467635,-0.00283990622029454,-0.0028583870312153597,-0.002980421033701737,-0.002908268221972701,-0.0028652516742452526,-0.002980648677991563,-0.0027229317467276316,-0.002922015479935886,-0.0026841047373715333,-0.002822630749485659,-0.0028813805258070878,-0.0030532985804020796,-0.0028764800171441657,-0.0027648377621191426,-0.0028998366968673974,-0.0027984750972132426,-0.0028258816268593636,-0.0028484907492837366,-0.0029183921977862155,-0.002853489044325691,-0.0027469198001173474,-0.0030783623473121797,-0.002946602312274376,-0.0028834378441559287,-0.002981822764029087,-0.0029168789604127263,-0.0028088800513439683,-0.0027868229742609644,-0.0028970161620307114,-0.002527874448784297,-0.002800395587375659,-0.0028125427311237673,-0.002806366854724055,-0.0028788578436016953,-0.0029393282859431955,-0.0027475095572452673,0.5486533855870168'
p743
asg14
F3.0183454306195374e-05
sg15
g570
sg17
I33
sg18
g571
sg20
F0.199879
sg21
g742
sg22
g743
sg23
I55553
sa(dp744
g2
F2050305.4160113737
sg3
(lp745
S'RESULT:'
p746
aS'SVMADMMAsync'
p747
aS'35'
p748
aS'58411'
p749
aS'0.199879'
p750
aS'2050305.4160113737'
p751
aS'4.092390217005174E-5'
p752
aS'2050305.4160522977'
p753
aS'-0.0032937820965941245,-0.00325983516443894,-0.003388450013859742,-0.003412497283111064,-0.0034161654718142414,-0.003333345635356372,-0.0033357099541936022,-0.003378751473588929,-0.0031875061072131937,-0.003291768174249979,-0.003122548112430056,-0.003310086443206271,-0.0032629450023342046,-0.0033396545076401505,-0.003401624399989592,-0.003212006701680244,-0.0032689682357918146,-0.003350739213477392,-0.0033684080530036273,-0.0033554044651814704,-0.0033106124085782833,-0.0033936810116429947,-0.0034977088637962207,-0.0034416052472891925,-0.0034002008024056536,-0.0032683572461727046,-0.003441858496779568,-0.003370217888980954,-0.003340244658550252,-0.0034758992556934948,-0.0033148599853912554,-0.003253337294941536,-0.0032280122256357143,-0.0033393872331370185,-0.003343713069206795,-0.003352182134911605,-0.0033880718635913945,-0.003334508803607346,-0.0032329891339553988,-0.0032573360788768035,-0.0031529495774270887,-0.0032410136571105275,-0.0033054100089963843,-0.0032035187497657302,-0.0033095907789713903,-0.0032423905827003714,-0.003402702743484247,-0.0033792466988069015,-0.0034040821412108443,-0.0032019226141778703,-0.0034608821296083438,-0.0035764373026231197,-0.0034109181626809843,-0.0032043126699671065,-0.0033053365581729695,-0.0033136739695813437,-0.003468034104552852,-0.0033226078980424165,-0.0032471573706012178,-0.0033864338246732883,-0.0035208760321053826,-0.0033707445595513377,-0.0033539924512415286,-0.003355169605450654,-0.0033756233160639557,-0.003429854332921247,-0.0033879074034666805,-0.003307935202674246,-0.0034220098950171036,-0.0032978931559927756,-0.003391452678350579,-0.00315968391932146,-0.0032067134404071673,-0.0033670095237957696,-0.0035295900778901574,-0.003367977366953612,-0.003245579475269445,-0.0033441030641825605,-0.0033088541515364006,-0.0033201542515734397,-0.0032607321040735316,-0.0033172077163229233,-0.003338066870481426,-0.0032167901512982875,-0.0035293888004977814,-0.003439250578558864,-0.0033824937076428903,-0.003452189250171575,-0.003352422814381587,-0.003251899715236233,-0.003329766776916798,-0.0033418306022360727,-0.003044182641760405,-0.003305007787084637,-0.0032647088892357517,-0.003251234045722973,-0.0033517830739105965,-0.003396830288596288,-0.0032071008326464735,0.6388574058090303'
p754
asg14
F4.0923902170051739e-05
sg15
g570
sg17
I35
sg18
g571
sg20
F0.199879
sg21
g753
sg22
g754
sg23
I58411
sa(dp755
g2
F2033653.7715526978
sg3
(lp756
S'RESULT:'
p757
aS'SVMADMMAsync'
p758
aS'37'
p759
aS'58292'
p760
aS'0.199879'
p761
aS'2033653.7715526978'
p762
aS'4.2651359628831166E-5'
p763
aS'2033653.771595349'
p764
aS'-0.0033425381288886215,-0.003344920955413775,-0.003435997367096842,-0.0034785383363835393,-0.0033942964120819543,-0.003370735563370533,-0.0033520628167345327,-0.003380720095433467,-0.0032518791405817156,-0.0033168468661341896,-0.0031712292781902163,-0.003371587153844255,-0.0033093361950433386,-0.0033987005343415256,-0.0034492959897671257,-0.0032269757400275783,-0.003262958725468665,-0.0033709265019512026,-0.003402180337215618,-0.003422064691770009,-0.0033292360697528387,-0.00340523456873909,-0.003500743193970226,-0.0034885893774757298,-0.003433838873464229,-0.003286977437048603,-0.0034683243971666655,-0.0033772114718819313,-0.0033962142143646426,-0.0035149711651718428,-0.0033693764604516125,-0.003328477531047161,-0.003274082355046747,-0.0034080383775466913,-0.0033727540085895557,-0.003416805764196187,-0.0034049708506891847,-0.0033541574537202493,-0.0032815073395492484,-0.003272451030613269,-0.0031933380690370634,-0.0032761895740432926,-0.0033680122951726867,-0.00325006555914489,-0.003350161784554434,-0.003300688270425236,-0.0033921700547633526,-0.003439018956085721,-0.0033914509190881353,-0.0032381875202604597,-0.0034883436923628126,-0.003594616316033537,-0.003497187529724571,-0.0032768319285963582,-0.003365329014970963,-0.0033387797615495192,-0.003526378908111388,-0.0033563367727495663,-0.0032713787720090727,-0.0034668041984484295,-0.0035556669236848793,-0.0034651681283019175,-0.0034027808201067917,-0.003387501043505945,-0.003435538377199564,-0.003434530157596032,-0.003398251395465034,-0.003311920819352252,-0.0034582338810944155,-0.0033208578814324023,-0.0034184236263501257,-0.003208069320021282,-0.003238724813941461,-0.003401419634053473,-0.0035686160365650003,-0.003377273837338102,-0.0032847764492395467,-0.0034317412298700556,-0.003337406314106206,-0.003376129620813116,-0.003324700261183668,-0.0033891415034398432,-0.0033711321435477637,-0.0032511941762054467,-0.0035510909657091986,-0.0034744551250932747,-0.0034261714654472935,-0.003466197022442369,-0.0033748115992187815,-0.0032521049590002967,-0.0033719870683574966,-0.0033803092586604804,-0.0031235734053851848,-0.0033708583743108055,-0.00332022410311732,-0.0032750362499583364,-0.0034040176639829095,-0.00339695812479241,-0.0032691223762303626,0.6522176300266193'
p765
asg14
F4.2651359628831166e-05
sg15
g570
sg17
I37
sg18
g571
sg20
F0.199879
sg21
g764
sg22
g765
sg23
I58292
sa(dp766
g2
F2032167.8833793276
sg3
(lp767
S'RESULT:'
p768
aS'SVMADMMAsync'
p769
aS'39'
p770
aS'57894'
p771
aS'0.199879'
p772
aS'2032167.8833793276'
p773
aS'4.295154779276433E-5'
p774
aS'2032167.883422279'
p775
aS'-0.0033619017280819676,-0.0032908397268875673,-0.0034430128780798324,-0.0034851031072763534,-0.0033688828388198774,-0.003384878634517843,-0.003345843568358877,-0.0034436830272427735,-0.0032132244902167762,-0.0033263531818873648,-0.0031591872877787235,-0.003403819455124123,-0.0033126940625792523,-0.0033671768391928996,-0.003386487312931987,-0.0032017198263545018,-0.0033199429638747693,-0.003391596843978402,-0.0034145458604611157,-0.0033961035905186563,-0.0033728858369151266,-0.003405260509200569,-0.0034914330720033915,-0.003501318260720464,-0.003451918959817983,-0.003296809455216706,-0.0034691496916594376,-0.0034012012777032657,-0.00340131799265224,-0.003447776881738646,-0.0033363243016455504,-0.003263363133740505,-0.0032110885054373955,-0.003348809873613426,-0.003368750577417921,-0.003334041266971199,-0.0034167805452493746,-0.0033305249247486167,-0.0032884565348124425,-0.003257352409724739,-0.0031710955594200273,-0.0033263989616497203,-0.003325425337873526,-0.0032275275845157843,-0.003359229768347912,-0.0033209485866130986,-0.003387633641214235,-0.0033853832614883046,-0.003489714830660041,-0.003236957604447288,-0.003494463520764362,-0.003582442123562374,-0.00346184511030489,-0.0032471289396243104,-0.0033261617949709404,-0.0032522151619139936,-0.003463061007619354,-0.0033190895037034586,-0.0033315254211297098,-0.0034530702711377407,-0.003492362090023026,-0.003461619951782685,-0.003324982123807528,-0.003372148885404967,-0.003394206599853776,-0.0034471973651121718,-0.0034207759520156265,-0.003365052902169634,-0.0035193204930344564,-0.0032940225641602565,-0.003401943444090274,-0.0031860311070139222,-0.0032613820146525094,-0.0033773868951114065,-0.0035188800130353365,-0.003354869403385524,-0.0032277521616131647,-0.003371708116911235,-0.003313943350384182,-0.003334697380938768,-0.0033424671785704015,-0.003356996647960725,-0.003447586351083109,-0.003265149078509839,-0.0035022265740572507,-0.003472579138780991,-0.0033751716733409613,-0.003441092414186015,-0.0034138302376938386,-0.003224967772451699,-0.0034071595008775923,-0.0033979065045696534,-0.0031989243702590345,-0.0033042604828042287,-0.003330563951658581,-0.0032471567057025985,-0.003356232382340573,-0.0033014848264762272,-0.003201915008765833,0.6545206495183341'
p776
asg14
F4.2951547792764331e-05
sg15
g570
sg17
I39
sg18
g571
sg20
F0.199879
sg21
g775
sg22
g776
sg23
I57894
sa(dp777
g2
F2051745.0038800829
sg3
(lp778
S'RESULT:'
p779
aS'SVMADMMAsync'
p780
aS'41'
p781
aS'58785'
p782
aS'0.199879'
p783
aS'2051745.0038800829'
p784
aS'4.76659276196678E-5'
p785
aS'2051745.0039277489'
p786
aS'-0.003205465415179337,-0.0032566505394158955,-0.0033346841115375523,-0.0033201641687768024,-0.003338854831914363,-0.003263024010483586,-0.003335234036273321,-0.0032743376710205577,-0.003171151771018122,-0.003249804523883585,-0.003023196509142449,-0.003285915300526169,-0.0032378035160782388,-0.003310872040098221,-0.0033657875134224953,-0.0031343782782351838,-0.0031959894508773266,-0.0033101487949881753,-0.0033009057476740267,-0.0033103920333235584,-0.003304965206364438,-0.003322190487682957,-0.0034089645657538054,-0.003399592768765898,-0.003347573355382672,-0.0031884391320530316,-0.0033744663483128443,-0.003304404959326762,-0.003250436994224777,-0.0033825308312561047,-0.003309939640261578,-0.003190084777459147,-0.0031557175777360384,-0.0032837864739439153,-0.0032824250578417473,-0.0033118839001670505,-0.0033105265473792594,-0.003283071266509996,-0.0031697438211486075,-0.0032260516957785313,-0.003074858409897405,-0.0032000575539870286,-0.0032763607381075597,-0.0031310951210322758,-0.0032518617036879464,-0.003244462778252868,-0.0032978698791189813,-0.003392634296481145,-0.0033055337116757234,-0.00315673686469925,-0.0034353694353558405,-0.003502757867420974,-0.0034163290298701494,-0.0031616769314403623,-0.0032703217909274616,-0.0032345830918420236,-0.003405505120511597,-0.003275396344451744,-0.003166047873449554,-0.00337811844506233,-0.0034959090539192707,-0.0033663753040194962,-0.0032914409997501426,-0.0032917978162245805,-0.0032917388688674843,-0.003350989917399373,-0.0033728429539072,-0.003247296813816381,-0.003410005063501457,-0.003249353346595001,-0.0033182853504723957,-0.00314266450138786,-0.003155831770137439,-0.003312412451239603,-0.003485374522127129,-0.003279775827866711,-0.0031616596902644387,-0.0032772970271914355,-0.003239452923417006,-0.003244120217771388,-0.0032379746646602507,-0.0033305291896463954,-0.003270228629576365,-0.003148189220257314,-0.003501373753855207,-0.0034044025239442144,-0.0033866773865570752,-0.003422917874520024,-0.0032726888376955576,-0.0031831786384362445,-0.0032840615042640875,-0.0032851665638761064,-0.002983122247111603,-0.00322657654988651,-0.0032028277384601295,-0.0031778787366154217,-0.003294704634722142,-0.003272354761619032,-0.003145497440498936,0.6896331585422041'
p787
asg14
F4.7665927619667797e-05
sg15
g570
sg17
I41
sg18
g571
sg20
F0.199879
sg21
g786
sg22
g787
sg23
I58785
sa(dp788
g2
F1964472.0656722821
sg3
(lp789
S'RESULT:'
p790
aS'SVMADMMAsync'
p791
aS'43'
p792
aS'59641'
p793
aS'0.199879'
p794
aS'1964472.0656722821'
p795
aS'5.084659911858916E-5'
p796
aS'1964472.0657231286'
p797
aS'-0.0034265106045755288,-0.003443007371204216,-0.003542734453934619,-0.0035641582196222934,-0.0035107621940681753,-0.00345285731541628,-0.003504031557532731,-0.0034736260580666392,-0.0033665040854573146,-0.003416040738271966,-0.0032108261019495846,-0.0034388073522285192,-0.003397545794597799,-0.0034763653446600994,-0.0035574209711042542,-0.003317593535821843,-0.0034124063158248617,-0.003473811013984485,-0.003501875736921419,-0.003513930534261885,-0.0034547603919554298,-0.0035324822677217597,-0.003594915816830887,-0.003617656223337846,-0.0035393436409973922,-0.0033586125138144606,-0.003582435360890208,-0.003541562957482826,-0.003463192959118204,-0.0036053631063174465,-0.0034638515735817684,-0.0033977754003666834,-0.0033308975709669185,-0.003493234710358177,-0.0034648840265582175,-0.003498736521729317,-0.0035011515117094605,-0.003425946326497307,-0.0033408427903139516,-0.00337622869211418,-0.00328884283327975,-0.0033692246965517625,-0.0034482981173001286,-0.0033540981887960307,-0.003443710146637818,-0.0033959797101717915,-0.003485040921647969,-0.0035889737962884376,-0.003466813794919668,-0.003348084485463189,-0.0035855747049677884,-0.0037229886092963994,-0.00359918457721533,-0.003382640411241544,-0.003502628412415107,-0.003413024839474822,-0.0035749737408980486,-0.0034800246687870687,-0.003335769287587095,-0.003566200301984132,-0.0036585896257227118,-0.0035515078297787264,-0.003438917166688211,-0.0034747479234699874,-0.003513575628393145,-0.003577675243214132,-0.0035362733745054023,-0.003430549217697463,-0.0035484658138004305,-0.0034116592877072847,-0.0035041028882885662,-0.003347837153000258,-0.0033611517389738736,-0.0035281525918767365,-0.0036734365327661177,-0.0035068998307564363,-0.0033726474859692734,-0.0034986230063094982,-0.0034431132594058044,-0.003467869019259162,-0.003409433046757216,-0.003485429002480348,-0.0034739451406474186,-0.0033129625265483896,-0.003684035137088046,-0.0035977530582531115,-0.0035442714659478084,-0.0035857371004985278,-0.0035034325171890584,-0.0033680890993715985,-0.003476795057587861,-0.003509790215959753,-0.0032010368001258497,-0.0034421804763522523,-0.0034108514250270235,-0.003343943799936477,-0.003528738090171692,-0.0035078527252120754,-0.0033527672996564945,0.7122310573866489'
p798
asg14
F5.0846599118589159e-05
sg15
g570
sg17
I43
sg18
g571
sg20
F0.199879
sg21
g797
sg22
g798
sg23
I59641
sa(dp799
g2
F1944896.3108943349
sg3
(lp800
S'RESULT:'
p801
aS'SVMADMMAsync'
p802
aS'45'
p803
aS'67739'
p804
aS'0.199879'
p805
aS'1944896.310894335'
p806
aS'5.3191354704400596E-5'
p807
aS'1944896.3109475262'
p808
aS'-0.003485745612011742,-0.003478041756811846,-0.0035169822994743066,-0.0036475131839904034,-0.003494427254523977,-0.0034841346922808185,-0.0034952290830928645,-0.0034916664045147204,-0.003386456650525738,-0.0034369592102766206,-0.0032499289643034336,-0.003557720178196006,-0.0034479769553167035,-0.003508420008117862,-0.0035792954634478345,-0.003300394283916227,-0.0034332137122594086,-0.003515453387276028,-0.0035607844703521257,-0.0035234889212883186,-0.003442668786828352,-0.0035170638311537157,-0.0036159139024820202,-0.003661206096685964,-0.003595664012136718,-0.0034018907542412444,-0.0036062899073437565,-0.0035347238781176845,-0.003489357526821536,-0.003615545914943211,-0.003559797114229519,-0.003409194830716433,-0.0033841047635050706,-0.0035280602395737926,-0.003542941882823523,-0.003543885366658995,-0.003562878113141461,-0.003487572057393428,-0.0033849663745343967,-0.003451643358321432,-0.0032971248512140205,-0.003491694796747066,-0.003477595663116777,-0.0033851852628588204,-0.003441097886114179,-0.0034278714724915414,-0.003577555411931473,-0.003601003683500236,-0.003549749766887338,-0.0034005120704414128,-0.0036681991584232173,-0.003739460142880647,-0.003609174762905216,-0.003403109899094464,-0.0035217632977107578,-0.003444957909561496,-0.0036416656413201767,-0.0034997737950604596,-0.0034171355100218767,-0.0036308722976593297,-0.0036794026222550643,-0.0036041753060224602,-0.003538135104776584,-0.003526932970522287,-0.003554691890738302,-0.003628918969990517,-0.0035485943377573464,-0.0034806084490555914,-0.0035675433993710244,-0.0034061387782804127,-0.003538861336806748,-0.0033501971033021547,-0.0033813326465330475,-0.0035549929167037237,-0.0037118240296041146,-0.003534933318046804,-0.0033940404898611803,-0.0035162150672946317,-0.003517399013581457,-0.0034982955272044427,-0.00342389657238645,-0.0035753158357684526,-0.003509226433401796,-0.0033364653222078457,-0.0036788823753504504,-0.003566509576491365,-0.003577020671801462,-0.0036077839914324286,-0.0035651359496181208,-0.00337325774092458,-0.003546238797784212,-0.0035351185221255527,-0.0032084209081361093,-0.0035095567308817944,-0.00344903235291342,-0.0033918462946114615,-0.003518568097443641,-0.003530411767732159,-0.0033820442012240035,0.7284892108559534'
p809
asg14
F5.3191354704400596e-05
sg15
g570
sg17
I45
sg18
g571
sg20
F0.199879
sg21
g808
sg22
g809
sg23
I67739
sa(dp810
g2
F1858341.3402845478
sg3
(lp811
S'RESULT:'
p812
aS'SVMADMMAsync'
p813
aS'47'
p814
aS'69859'
p815
aS'0.199879'
p816
aS'1858341.3402845478'
p817
aS'6.427554258909781E-5'
p818
aS'1858341.3403488232'
p819
aS'-0.003603235768731409,-0.0036160206033707645,-0.003728917630296819,-0.0037598394563653874,-0.0036773472007951436,-0.003665611412169222,-0.003665986898905674,-0.0036737529604727206,-0.003532464938234095,-0.003589192132901242,-0.003379458558664907,-0.0036799652365037657,-0.003566821834433889,-0.0037029129877399897,-0.003776678967497274,-0.0035023700499766225,-0.0035915778267222942,-0.0036378132646402057,-0.0037154168863983957,-0.0036721748806081626,-0.0036648875070613793,-0.003649188446619912,-0.003754427876213569,-0.0037978723204929073,-0.0037442010720810594,-0.0035679757112950924,-0.0037668389771379042,-0.0036851809166031646,-0.0036064872001249876,-0.003740951448613803,-0.003700510861751512,-0.0035615763545605843,-0.003537341917843604,-0.0036841143451800534,-0.003642668529759726,-0.003696779917301175,-0.0037236859510257603,-0.0036110862153556837,-0.0035110667100187233,-0.00360189405084676,-0.003439146497875019,-0.003614050500361374,-0.0036122168922575115,-0.0035743955271235078,-0.0036311815386497956,-0.0035922598220011585,-0.0036918702562264718,-0.003738619781046102,-0.003652875374095119,-0.003576680265762895,-0.003776566376741266,-0.0038598726711567824,-0.0038098936859767437,-0.0035647507269519706,-0.003692759136384244,-0.0036428126674788544,-0.003766545155595619,-0.0037034891891932612,-0.0035525360852151845,-0.0037077485688132143,-0.003844743419712631,-0.003742576967871414,-0.003686096558452836,-0.003616394678883399,-0.00368863203234127,-0.003757961546588282,-0.0037284800433803073,-0.003661716580459054,-0.003734386654046202,-0.003632071647329834,-0.003706469254396901,-0.0034797134157509386,-0.0035638969584514822,-0.003685630704460039,-0.0038755318073442385,-0.003664842886573269,-0.0035822236476227417,-0.0036719300940967654,-0.003578656190192021,-0.0036169411785421735,-0.003563936236596884,-0.003662171066526827,-0.00366128404480108,-0.003527260568018794,-0.003796658995517301,-0.0037550211363143546,-0.003722526234927507,-0.0037594556597767043,-0.0037190229015332354,-0.0035724155077874473,-0.0036539107047933567,-0.003652437370649977,-0.0033960156389264405,-0.0036703753311673848,-0.0036031020579353843,-0.003592876587741075,-0.003704410744299233,-0.0036884209129577146,-0.0035300542966332075,0.800894105232187'
p820
asg14
F6.4275542589097815e-05
sg15
g570
sg17
I47
sg18
g571
sg20
F0.199879
sg21
g819
sg22
g820
sg23
I69859
sa(dp821
g2
F1909657.7835219707
sg3
(lp822
S'RESULT:'
p823
aS'SVMADMMAsync'
p824
aS'49'
p825
aS'69323'
p826
aS'0.199879'
p827
aS'1909657.7835219707'
p828
aS'6.614732305411065E-5'
p829
aS'1909657.7835881182'
p830
aS'-0.0034805871375162543,-0.003459723330999217,-0.0035804014745717625,-0.003632428889743396,-0.0035252047282360284,-0.003499693757924538,-0.0035322934192481992,-0.003505300005652251,-0.003416401278756718,-0.0034611029761159352,-0.00330750853029466,-0.0035380649249655656,-0.003429895687305572,-0.0035527063519164848,-0.003625959218676181,-0.0034006291252044636,-0.003414884509190747,-0.003464584132085958,-0.0035615984448108965,-0.0035533974453823766,-0.0035100255338268,-0.0035239999821991518,-0.003611807166322469,-0.0036465291865385844,-0.0035754153521768916,-0.003439020884334872,-0.0035891401095141666,-0.0035937246640484577,-0.0034848053201107575,-0.0036305256361564542,-0.0035830646500231594,-0.003444433557721253,-0.0034211551909722688,-0.003549662927995294,-0.003507784489541497,-0.0035629888552534306,-0.0035593553568350794,-0.0034806224111567767,-0.003389557203156092,-0.0034624039939035187,-0.003330642627779298,-0.0034627040417978625,-0.003502073898919482,-0.0034803928594592808,-0.003524361938290297,-0.0034814025077048267,-0.0035491304328065824,-0.003583811606159624,-0.0035669040932703607,-0.0033951116831029606,-0.00361284968882195,-0.0037399228600606266,-0.003623026570612,-0.0033995069054921848,-0.0035309030132885874,-0.0034712108516178402,-0.0036405064143811435,-0.0035174589439200335,-0.0034204500319626268,-0.0035604654609240442,-0.0036841137484107467,-0.0036104260690890478,-0.003557597539773177,-0.0034734153532141507,-0.0035351475374565985,-0.003610279209973493,-0.0035998847531421557,-0.0035210149920004,-0.0035649870357838923,-0.0034951478319526887,-0.00356587310433756,-0.00338585854133,-0.0034314711176896494,-0.0035672177902924826,-0.0037235565156681196,-0.003506841997840614,-0.0034733698390975293,-0.0035381724629949558,-0.0034590713224674076,-0.0035004302025577394,-0.0034156283809247717,-0.003526682350116597,-0.003511648753725708,-0.003394116497181784,-0.003677874878978258,-0.0036305570810685997,-0.0035893938282089053,-0.003598257714613462,-0.0036144644816482555,-0.0034539484687207906,-0.0035149944494222264,-0.0035279873458305545,-0.0032565293253315883,-0.0034876681127419904,-0.003456935499061778,-0.003470474483915476,-0.0035472133549812727,-0.0035441754435792104,-0.0034006326611872905,0.8125558127056838'
p831
asg14
F6.6147323054110646e-05
sg15
g570
sg17
I49
sg18
g571
sg20
F0.199879
sg21
g830
sg22
g831
sg23
I69323
sa.