(lp0
(dp1
VnDim
p2
I54
sVpr
p3
F0.79029697164205703
sS'pyConfig'
p4
(dp5
S'ADMMlocalEpsilon'
p6
F0.001
sS'broadcastDelay'
p7
I10
sS'pointCloudDim'
p8
I-1
sS'algorithm'
p9
S'PORKCHOP'
p10
sS'regParam'
p11
I10
sS'numPartitions'
p12
I128
sS'wikipediaTargetWordToken'
p13
I4690
sS'dblpSplitYear'
p14
I2007
sS'localTimeout'
p15
I-1
sS'dataset'
p16
S'bismarck'
p17
sS'ADMMmaxLocalIterations'
p18
I100000
sS'datasetConfigStr'
p19
S' --input /user/root/bismarck_data/forest* '
p20
sS'command'
p21
S'cd /mnt/spark; sbin/stop-all.sh; sleep 5; sbin/start-all.sh; sleep 3;./bin/spark-submit --driver-memory 52g --class org.apache.spark.examples.mllib.research.SynchronousADMMTests examples/target/scala-*/spark-examples-*.jar --algorithm PORKCHOP --regType L2 --regParam 10 --format bismarck --numPartitions 128 --runtimeMS 1000 --ADMMmaxLocalIterations 100000 --ADMMepsilon 0.0 --ADMMLocalepsilon 0.001 --ADMMrho 10 --ADMMLagrangianrho 10 --broadcastDelayMs 10 --dblpSplitYear 2007 --wikipediaTargetWordToken 4690 --inputTokenHashKernelDimension 100 --localTimeout -1  --input /user/root/bismarck_data/forest*   '
p22
sS'ADMMrho'
p23
I10
sS'ADMMepsilon'
p24
F0.0
sS'inputTokenHashKernelDimension'
p25
I100
sS'regType'
p26
S'L2'
p27
sS'line'
p28
S'RESULT: {"trainingLoss": 344346.7635799128, "stats": {"dualAvgNorm": 3.4028735501749585, "stats": {"avgDualUpdates": [1.0, 6.3359375, 17.0], "primalAvg": [-1.5469136142657387, -0.023851165911763613, 0.07798983215434381, 0.26576828236762595, 0.018763539292924573, 0.18970245646350511, 0.10472554675303714, 0.3212716793877223, 0.012755465395914862, -0.02065233471166545, 0.24414498644691246, 0.19072465358369434, 0.17183762884354004, -1.019188947166466, -0.17564157187429072, -0.44472079409283666, -0.21532743313636563, -0.49360885163269996, -0.13012196984833851, -0.038509434736807395, 0.22032156096042574, 0.09680945057463944, 0.04614135424761487, -0.09905107981526358, 0.01067234006696794, 0.11686685563465796, 0.11875748706051627, -0.19155504381903646, -0.09950552549072096, -0.016477325877980578, -0.18296039648988924, -0.0010027609252553898, -0.026258018757524544, -0.038307317137955134, -0.08262071555191375, -0.11459210652340121, -0.09710043587239534, 0.03580066408221295, 0.12013575733547444, 0.06530980814809087, 2.3769058322692984E-4, 0.2752366075796563, 0.17837786713322173, 0.07463762771820784, 0.09949608489388258, 0.2445885277962987, 0.13182446545807291, 0.13017973087116302, -0.043533102082227326, -0.0035015716611163645, -0.144024827553285, -0.045978505412213225, -0.06169342350648022, -0.0235473674736273], "dualAvg": [-2.342272191451104, -0.15993306383247638, 0.09332501429721, 0.3632947065183538, -0.026753132762883974, 0.3277613969691179, 0.24315291955072946, 0.48448564180229714, -0.060583729490378026, -0.07718941188555374, 0.35141238560305554, 0.24447110877553002, 0.282096485695568, -1.5103852185147164, -0.1327708563873842, -0.730032210814356, -0.20257000983162582, -0.8708584718884, -0.2330229048580346, -0.127308020921868, 0.4844455837161264, 0.3019384730735913, -0.07178028540693897, -0.24783233611463382, 0.02046398934272386, 0.2691152465649772, 0.17250937143251063, -0.010245598072734521, 0.0066762880995754744, -0.2396837026191538, -0.38463420566571926, -0.1788967605928342, -0.07746538502670575, 0.016136317026980797, -0.06566256664675493, -0.1702155847186293, -0.15895177561922771, 0.07423171668021494, -0.1788663038569922, 0.09997450562282992, 0.3167834433657866, 0.30001809977750876, 0.26989528012288605, 0.22496460620104422, 0.13290493318439034, 0.39112432357737076, 0.31821442933303834, 0.0998728952468664, 0.05252563420408887, -0.2144748642010629, -0.09376713783835594, -0.1234352149761213, -0.16738863675477517, -0.09707820370775967], "avgResidual": [0.0, 0.0, 0.0], "avgMsgsSent": [0.0, 0.0, 0.0], "avgMsgsRcvd": [20.0, 38.015625, 55.0], "avgLocalIters": [1.0, 6.3359375, 17.0], "avgSGDIters": [100.0, 5611.046875, 27900.0]}, "iterInterval": [1.0, 6.3359375, 17.0], "avgMsgsSent": [0.0, 0.0, 0.0], "dualUpdates": [1.0, 6.3359375, 17.0], "avgMsgsRcvd": [20.0, 38.015625, 55.0], "primalAvgNorm": 2.190561879882925, "avgSGDIters": [100.0, 5611.046875, 27900.0], "iterations": 6.3359375, "runtime": 1214, "consensusNorm": 2.50155171542376}, "params": {"format": "bismarck", "algParams": {"usePorkChop": true, "lagrangianRho": 10.0, "rho0": 10.0, "maxWorkerIterations": 100000, "useLBFGS": false, "maxIterations": 1000, "eta0": 1.0, "runtimeMS": 1000, "adaptiveRho": false, "broadcastDelayMS": 10, "regParam": 10.0, "tol": 0.0, "displayIncrementalStats": false, "localTimeout": -1, "useLineSearch": false, "workerTol": 0.001, "miniBatchSize": 10}, "wikipediaTargetWordToken": 4690, "dblpSplitYear": 2007, "regType": "L2", "algorithm": "PORKCHOP", "inputTokenHashKernelDimension": 100, "useLR": false, "pointCloudPoints": 10000, "pointCloudDim": 10, "pointCloudSize": 1.0, "pointCloudSkew": 0.0, "input": "/user/root/bismarck_data/forest*", "numPartitions": 128, "pointCloudNoise": 0.2}, "nDim": 54, "algorithm": "PORKCHOP", "pr": 0.790296971642057, "totalLoss": 344378.0523848375, "nExamples": 581012, "runtimeMS": 1214, "regPenalty": 31.28880492469778, "trainingError": 0.23793656585406153, "maxW": 0.3668541951682004, "minW": -1.7673335401285946, "iterations": 6.3359375, "roc": 0.8230700842674004}\n'
p29
sS'ADMMlagrangianRho'
p30
I10
sS'pointCloudSkew'
p31
I-1
ssVstats
p32
(dp33
Vstats
p34
(dp35
VavgMsgsRcvd
p36
(lp37
F20.0
aF38.015625
aF55.0
asVavgMsgsSent
p38
(lp39
F0.0
aF0.0
aF0.0
asVavgDualUpdates
p40
(lp41
F1.0
aF6.3359375
aF17.0
asVavgLocalIters
p42
(lp43
F1.0
aF6.3359375
aF17.0
asVavgResidual
p44
(lp45
F0.0
aF0.0
aF0.0
asVprimalAvg
p46
(lp47
F-1.5469136142657387
aF-0.023851165911763613
aF0.077989832154343811
aF0.26576828236762595
aF0.018763539292924573
aF0.18970245646350511
aF0.10472554675303714
aF0.32127167938772228
aF0.012755465395914862
aF-0.02065233471166545
aF0.24414498644691246
aF0.19072465358369434
aF0.17183762884354004
aF-1.0191889471664659
aF-0.17564157187429072
aF-0.44472079409283666
aF-0.21532743313636563
aF-0.49360885163269996
aF-0.13012196984833851
aF-0.038509434736807395
aF0.22032156096042574
aF0.096809450574639438
aF0.046141354247614869
aF-0.099051079815263579
aF0.010672340066967941
aF0.11686685563465796
aF0.11875748706051627
aF-0.19155504381903646
aF-0.099505525490720961
aF-0.016477325877980578
aF-0.18296039648988924
aF-0.0010027609252553898
aF-0.026258018757524544
aF-0.038307317137955134
aF-0.082620715551913748
aF-0.11459210652340121
aF-0.097100435872395335
aF0.035800664082212948
aF0.12013575733547444
aF0.06530980814809087
aF0.00023769058322692984
aF0.27523660757965629
aF0.17837786713322173
aF0.074637627718207838
aF0.099496084893882578
aF0.24458852779629869
aF0.13182446545807291
aF0.13017973087116302
aF-0.043533102082227326
aF-0.0035015716611163645
aF-0.144024827553285
aF-0.045978505412213225
aF-0.061693423506480223
aF-0.0235473674736273
asVdualAvg
p48
(lp49
F-2.3422721914511042
aF-0.15993306383247638
aF0.093325014297210004
aF0.36329470651835383
aF-0.026753132762883974
aF0.32776139696911788
aF0.24315291955072946
aF0.48448564180229714
aF-0.060583729490378026
aF-0.077189411885553741
aF0.35141238560305554
aF0.24447110877553002
aF0.282096485695568
aF-1.5103852185147164
aF-0.1327708563873842
aF-0.73003221081435599
aF-0.20257000983162582
aF-0.87085847188840004
aF-0.23302290485803459
aF-0.12730802092186799
aF0.48444558371612639
aF0.30193847307359128
aF-0.071780285406938968
aF-0.24783233611463382
aF0.020463989342723862
aF0.26911524656497721
aF0.17250937143251063
aF-0.010245598072734521
aF0.0066762880995754744
aF-0.23968370261915381
aF-0.38463420566571926
aF-0.17889676059283419
aF-0.077465385026705746
aF0.016136317026980797
aF-0.065662566646754933
aF-0.1702155847186293
aF-0.15895177561922771
aF0.074231716680214943
aF-0.1788663038569922
aF0.099974505622829918
aF0.31678344336578662
aF0.30001809977750876
aF0.26989528012288605
aF0.22496460620104422
aF0.13290493318439034
aF0.39112432357737076
aF0.31821442933303834
aF0.099872895246866406
aF0.052525634204088872
aF-0.2144748642010629
aF-0.093767137838355941
aF-0.1234352149761213
aF-0.16738863675477517
aF-0.097078203707759672
asVavgSGDIters
p50
(lp51
F100.0
aF5611.046875
aF27900.0
assVconsensusNorm
p52
F2.5015517154237599
sVavgMsgsRcvd
p53
(lp54
F20.0
aF38.015625
aF55.0
asVavgMsgsSent
p55
(lp56
F0.0
aF0.0
aF0.0
asVdualUpdates
p57
(lp58
F1.0
aF6.3359375
aF17.0
asVdualAvgNorm
p59
F3.4028735501749585
sVprimalAvgNorm
p60
F2.1905618798829249
sViterInterval
p61
(lp62
F1.0
aF6.3359375
aF17.0
asViterations
p63
F6.3359375
sVruntime
p64
I1214
sVavgSGDIters
p65
(lp66
F100.0
aF5611.046875
aF27900.0
assVtotalLoss
p67
F344378.05238483747
sValgorithm
p68
VPORKCHOP
p69
sVregPenalty
p70
F31.288804924697779
sVroc
p71
F0.82307008426740036
sVmaxW
p72
F0.36685419516820039
sVnExamples
p73
I581012
sVruntimeMS
p74
I1214
sVparams
p75
(dp76
VpointCloudDim
p77
I10
sVinput
p78
V/user/root/bismarck_data/forest*
p79
sValgorithm
p80
VPORKCHOP
p81
sVformat
p82
Vbismarck
p83
sVpointCloudSize
p84
F1.0
sVwikipediaTargetWordToken
p85
I4690
sVdblpSplitYear
p86
I2007
sVnumPartitions
p87
I128
sValgParams
p88
(dp89
VregParam
p90
F10.0
sVmaxIterations
p91
I1000
sVusePorkChop
p92
I01
sVtol
p93
F0.0
sVworkerTol
p94
F0.001
sVadaptiveRho
p95
I00
sVuseLBFGS
p96
I00
sVrho0
p97
F10.0
sVdisplayIncrementalStats
p98
I00
sVminiBatchSize
p99
I10
sVlocalTimeout
p100
I-1
sVmaxWorkerIterations
p101
I100000
sVruntimeMS
p102
I1000
sVbroadcastDelayMS
p103
I10
sVeta0
p104
F1.0
sVlagrangianRho
p105
F10.0
sVuseLineSearch
p106
I00
ssVinputTokenHashKernelDimension
p107
I100
sVpointCloudPoints
p108
I10000
sVregType
p109
VL2
p110
sVuseLR
p111
I00
sVpointCloudNoise
p112
F0.20000000000000001
sVpointCloudSkew
p113
F0.0
ssViterations
p114
F6.3359375
sVtrainingLoss
p115
F344346.76357991277
sVminW
p116
F-1.7673335401285946
sVtrainingError
p117
F0.23793656585406153
sa(dp118
VnDim
p119
I54
sVpr
p120
F0.79475022818232743
sg4
(dp121
g6
F1.0000000000000001e-05
sg7
I10
sg8
I-1
sg9
S'HOGWILD'
p122
sg11
I10
sg12
I128
sg13
I4690
sg14
I2007
sg15
I-1
sg16
g17
sg18
I10
sg19
g20
sg21
S'cd /mnt/spark; sbin/stop-all.sh; sleep 5; sbin/start-all.sh; sleep 3;./bin/spark-submit --driver-memory 52g --class org.apache.spark.examples.mllib.research.SynchronousADMMTests examples/target/scala-*/spark-examples-*.jar --algorithm HOGWILD --regType L2 --regParam 10 --format bismarck --numPartitions 128 --runtimeMS 1000 --ADMMmaxLocalIterations 10 --ADMMepsilon 0.0 --ADMMLocalepsilon 1e-05 --ADMMrho 10 --ADMMLagrangianrho 10 --broadcastDelayMs 10 --dblpSplitYear 2007 --wikipediaTargetWordToken 4690 --inputTokenHashKernelDimension 100 --localTimeout -1  --input /user/root/bismarck_data/forest*   '
p123
sg23
I10
sg24
F0.0
sg25
I100
sg26
g27
sg28
S'RESULT: {"trainingLoss": 375888.6162487923, "stats": {"stats": {"avgDualUpdates": [0.0, 0.0, 0.0], "primalAvg": [-2.2002110184978223, -0.051161650302915376, 0.17193032776216505, 0.42596769290659364, 0.0270076907356563, 0.1899205734255121, 0.19057106105234126, 0.5793838197259958, 0.04879503653104151, 0.01918349755604477, 0.26409642886391976, 0.28547661310047956, 0.34612348968088363, -1.498599580569677, -0.4248160262268351, -0.6552979972144651, -0.34838073398979186, -0.703472461670923, -0.41440296979300967, -0.10550390354786862, 0.807599368419382, 0.16028223863447696, 0.21585800623707546, -0.24349129416865667, 0.04957903647011338, 0.49399130829076227, 0.23533553745532557, -0.837901257256663, -0.5341376381458257, 0.027751574408970567, -0.28021848091810286, 0.18286851489426262, -0.03553981691714814, -0.019426894236236426, -0.6327062711026205, -0.14984247661624828, -0.10625254887036419, 0.07399277338064975, 0.29723931883537563, 0.2401440182765356, 0.0047291808957186515, 0.9883205241271824, 0.2955814509495813, 0.16461567396702437, 0.15569754421002388, 0.33932356061363794, 0.16992173222908122, 0.5022127438332255, -0.299173176076914, -0.041129813196331674, -1.2962886980648547, -0.24766904317487365, -0.29448442548223097, -0.1846336053275042], "dualAvg": [0.0, 0.0, 0.0, 0.0, 0.0, 0.0, 0.0, 0.0, 0.0, 0.0, 0.0, 0.0, 0.0, 0.0, 0.0, 0.0, 0.0, 0.0, 0.0, 0.0, 0.0, 0.0, 0.0, 0.0, 0.0, 0.0, 0.0, 0.0, 0.0, 0.0, 0.0, 0.0, 0.0, 0.0, 0.0, 0.0, 0.0, 0.0, 0.0, 0.0, 0.0, 0.0, 0.0, 0.0, 0.0, 0.0, 0.0, 0.0, 0.0, 0.0, 0.0, 0.0, 0.0, 0.0], "avgResidual": [0.0, 0.0, 0.0], "avgMsgsSent": [79.0, 85.59375, 90.0], "avgMsgsRcvd": [572.0, 599.15625, 622.0], "avgLocalIters": [1002.0, 1456.59375, 2050.0], "avgSGDIters": [0.0, 0.0, 0.0]}, "avgMsgsSent": [79.0, 85.59375, 90.0], "avgMsgsRcvd": [572.0, 599.15625, 622.0], "iterations": 1456.59375, "runtime": 1555}, "params": {"format": "bismarck", "algParams": {"usePorkChop": false, "lagrangianRho": 10.0, "rho0": 10.0, "maxWorkerIterations": 10, "useLBFGS": false, "maxIterations": 1000, "eta0": 1.0, "runtimeMS": 1000, "adaptiveRho": false, "broadcastDelayMS": 10, "regParam": 10.0, "tol": 0.0, "displayIncrementalStats": false, "localTimeout": -1, "useLineSearch": false, "workerTol": 1.0E-5, "miniBatchSize": 10}, "wikipediaTargetWordToken": 4690, "dblpSplitYear": 2007, "regType": "L2", "algorithm": "HOGWILD", "inputTokenHashKernelDimension": 100, "useLR": false, "pointCloudPoints": 10000, "pointCloudDim": 10, "pointCloudSize": 1.0, "pointCloudSkew": 0.0, "input": "/user/root/bismarck_data/forest*", "numPartitions": 128, "pointCloudNoise": 0.2}, "nDim": 54, "algorithm": "HOGWILD", "pr": 0.7947502281823274, "totalLoss": 375966.76804300345, "nExamples": 581012, "runtimeMS": 1555, "regPenalty": 78.15179421109521, "trainingError": 0.24036336598899852, "maxW": 0.9883205241271824, "minW": -2.2002110184978223, "iterations": 1456.59375, "roc": 0.8263035860110248}\n'
p124
sg30
I10
sg31
I-1
ssVstats
p125
(dp126
Vruntime
p127
I1555
sVstats
p128
(dp129
VavgMsgsRcvd
p130
(lp131
F572.0
aF599.15625
aF622.0
asVavgMsgsSent
p132
(lp133
F79.0
aF85.59375
aF90.0
asVavgDualUpdates
p134
(lp135
F0.0
aF0.0
aF0.0
asVavgLocalIters
p136
(lp137
F1002.0
aF1456.59375
aF2050.0
asVavgResidual
p138
(lp139
F0.0
aF0.0
aF0.0
asVprimalAvg
p140
(lp141
F-2.2002110184978223
aF-0.051161650302915376
aF0.17193032776216505
aF0.42596769290659364
aF0.027007690735656301
aF0.18992057342551211
aF0.19057106105234126
aF0.57938381972599584
aF0.048795036531041509
aF0.01918349755604477
aF0.26409642886391976
aF0.28547661310047956
aF0.34612348968088363
aF-1.498599580569677
aF-0.42481602622683512
aF-0.65529799721446513
aF-0.34838073398979186
aF-0.70347246167092303
aF-0.41440296979300967
aF-0.10550390354786862
aF0.80759936841938196
aF0.16028223863447696
aF0.21585800623707546
aF-0.24349129416865667
aF0.049579036470113379
aF0.49399130829076227
aF0.23533553745532557
aF-0.83790125725666298
aF-0.53413763814582571
aF0.027751574408970567
aF-0.28021848091810286
aF0.18286851489426262
aF-0.035539816917148137
aF-0.019426894236236426
aF-0.63270627110262045
aF-0.14984247661624828
aF-0.10625254887036419
aF0.073992773380649746
aF0.29723931883537563
aF0.24014401827653559
aF0.0047291808957186515
aF0.98832052412718241
aF0.29558145094958133
aF0.16461567396702437
aF0.15569754421002388
aF0.33932356061363794
aF0.16992173222908122
aF0.50221274383322545
aF-0.29917317607691402
aF-0.041129813196331674
aF-1.2962886980648547
aF-0.24766904317487365
aF-0.29448442548223097
aF-0.1846336053275042
asVdualAvg
p142
(lp143
F0.0
aF0.0
aF0.0
aF0.0
aF0.0
aF0.0
aF0.0
aF0.0
aF0.0
aF0.0
aF0.0
aF0.0
aF0.0
aF0.0
aF0.0
aF0.0
aF0.0
aF0.0
aF0.0
aF0.0
aF0.0
aF0.0
aF0.0
aF0.0
aF0.0
aF0.0
aF0.0
aF0.0
aF0.0
aF0.0
aF0.0
aF0.0
aF0.0
aF0.0
aF0.0
aF0.0
aF0.0
aF0.0
aF0.0
aF0.0
aF0.0
aF0.0
aF0.0
aF0.0
aF0.0
aF0.0
aF0.0
aF0.0
aF0.0
aF0.0
aF0.0
aF0.0
aF0.0
aF0.0
asVavgSGDIters
p144
(lp145
F0.0
aF0.0
aF0.0
assViterations
p146
F1456.59375
sVavgMsgsRcvd
p147
(lp148
F572.0
aF599.15625
aF622.0
asVavgMsgsSent
p149
(lp150
F79.0
aF85.59375
aF90.0
assVtotalLoss
p151
F375966.76804300345
sValgorithm
p152
VHOGWILD
p153
sVregPenalty
p154
F78.151794211095208
sVroc
p155
F0.82630358601102483
sVmaxW
p156
F0.98832052412718241
sVnExamples
p157
I581012
sVruntimeMS
p158
I1555
sVparams
p159
(dp160
VpointCloudDim
p161
I10
sVinput
p162
V/user/root/bismarck_data/forest*
p163
sValgorithm
p164
VHOGWILD
p165
sVformat
p166
Vbismarck
p167
sVpointCloudSize
p168
F1.0
sVwikipediaTargetWordToken
p169
I4690
sVdblpSplitYear
p170
I2007
sVnumPartitions
p171
I128
sValgParams
p172
(dp173
VregParam
p174
F10.0
sVmaxIterations
p175
I1000
sVusePorkChop
p176
I00
sVtol
p177
F0.0
sVworkerTol
p178
F1.0000000000000001e-05
sVadaptiveRho
p179
I00
sVuseLBFGS
p180
I00
sVrho0
p181
F10.0
sVdisplayIncrementalStats
p182
I00
sVminiBatchSize
p183
I10
sVlocalTimeout
p184
I-1
sVmaxWorkerIterations
p185
I10
sVruntimeMS
p186
I1000
sVbroadcastDelayMS
p187
I10
sVeta0
p188
F1.0
sVlagrangianRho
p189
F10.0
sVuseLineSearch
p190
I00
ssVinputTokenHashKernelDimension
p191
I100
sVpointCloudPoints
p192
I10000
sVregType
p193
VL2
p194
sVuseLR
p195
I00
sVpointCloudNoise
p196
F0.20000000000000001
sVpointCloudSkew
p197
F0.0
ssViterations
p198
F1456.59375
sVtrainingLoss
p199
F375888.61624879233
sVminW
p200
F-2.2002110184978223
sVtrainingError
p201
F0.24036336598899852
sa(dp202
VnDim
p203
I54
sVpr
p204
F0.78783727401459791
sg4
(dp205
g6
F1.0000000000000001e-05
sg7
I-1
sg8
I-1
sg9
S'ADMM'
p206
sg11
I10
sg12
I128
sg13
I4690
sg14
I2007
sg15
I100000000
sg16
g17
sg18
I100000
sg19
g20
sg21
S'cd /mnt/spark; sbin/stop-all.sh; sleep 5; sbin/start-all.sh; sleep 3;./bin/spark-submit --driver-memory 52g --class org.apache.spark.examples.mllib.research.SynchronousADMMTests examples/target/scala-*/spark-examples-*.jar --algorithm ADMM --regType L2 --regParam 10 --format bismarck --numPartitions 128 --runtimeMS 1000 --ADMMmaxLocalIterations 100000 --ADMMepsilon 0.0 --ADMMLocalepsilon 1e-05 --ADMMrho 10 --ADMMLagrangianrho 10 --broadcastDelayMs -1 --dblpSplitYear 2007 --wikipediaTargetWordToken 4690 --inputTokenHashKernelDimension 100 --localTimeout 100000000  --input /user/root/bismarck_data/forest*   '
p207
sg23
I10
sg24
F0.0
sg25
I100
sg26
g27
sg28
S'RESULT: {"trainingLoss": 339894.61812928674, "stats": {"dualAvgNorm": 0.0, "stats": {"avgDualUpdates": [1.0, 1.0, 1.0], "primalAvg": [-1.4426337842335286, -0.014785751446438285, 0.06909738966925516, 0.2482846010860465, 0.019417692714566247, 0.18654442818946865, 0.10798094627376492, 0.2780532252223573, 0.02071835472569651, -0.01376533345988396, 0.2257511723916468, 0.16552841567171347, 0.16593121264959063, -0.9469128882689567, -0.13205989550870956, -0.4064488775725019, -0.19272518604043024, -0.46794637948455786, -0.09089684876226871, -0.03242417697980401, 0.12620127429436734, 0.11363105363356313, 0.07524749167222668, -0.09699969978207204, 0.017794016989929457, 0.09998311546889344, 0.10223253005149277, -0.1387134174101696, -0.017401229917569358, -0.013949772173081002, -0.1780793136078535, 0.00303423178220323, -0.03149987409487066, -0.03153096457232283, -0.06322626003258415, -0.12285279410599899, -0.0980970647680216, 0.02133646326819725, 0.1207224695286608, 0.04511053759452734, 0.003211988666076236, 0.20704372067110702, 0.167151537414389, 0.07156559952063789, 0.08539138061598171, 0.22767660238476492, 0.1314030130275058, 0.1476968264098505, -0.0029568905725511573, 0.021493222595287235, -0.04923359775828536, -0.04412419351348729, -0.061208978364319766, -0.017071356502556274], "dualAvg": [0.0, 0.0, 0.0, 0.0, 0.0, 0.0, 0.0, 0.0, 0.0, 0.0, 0.0, 0.0, 0.0, 0.0, 0.0, 0.0, 0.0, 0.0, 0.0, 0.0, 0.0, 0.0, 0.0, 0.0, 0.0, 0.0, 0.0, 0.0, 0.0, 0.0, 0.0, 0.0, 0.0, 0.0, 0.0, 0.0, 0.0, 0.0, 0.0, 0.0, 0.0, 0.0, 0.0, 0.0, 0.0, 0.0, 0.0, 0.0, 0.0, 0.0, 0.0, 0.0, 0.0, 0.0], "avgResidual": [0.001862202629964051, 0.006196967141992051, 0.012730622369606526], "avgMsgsSent": [0.0, 0.0, 0.0], "avgMsgsRcvd": [0.0, 0.0, 0.0], "avgLocalIters": [0.0, 0.0, 0.0], "avgSGDIters": [37900.0, 49029.6875, 67200.0]}, "dualUpdates": [1.0, 1.0, 1.0], "primalAvgNorm": 2.0174579304580758, "avgSGDIters": [37900.0, 49029.6875, 67200.0], "iterations": 1, "runtime": 1229, "consensusNorm": 2.0018187216948347}, "params": {"format": "bismarck", "algParams": {"usePorkChop": false, "lagrangianRho": 10.0, "rho0": 10.0, "maxWorkerIterations": 100000, "useLBFGS": false, "maxIterations": 1000, "eta0": 1.0, "runtimeMS": 1000, "adaptiveRho": false, "broadcastDelayMS": -1, "regParam": 10.0, "tol": 0.0, "displayIncrementalStats": false, "localTimeout": 100000000, "useLineSearch": false, "workerTol": 1.0E-5, "miniBatchSize": 10}, "wikipediaTargetWordToken": 4690, "dblpSplitYear": 2007, "regType": "L2", "algorithm": "ADMM", "inputTokenHashKernelDimension": 100, "useLR": false, "pointCloudPoints": 10000, "pointCloudDim": 10, "pointCloudSize": 1.0, "pointCloudSkew": 0.0, "input": "/user/root/bismarck_data/forest*", "numPartitions": 128, "pointCloudNoise": 0.2}, "nDim": 54, "algorithm": "ADMM", "pr": 0.7878372740145979, "totalLoss": 339914.65452025936, "nExamples": 581012, "runtimeMS": 1229, "regPenalty": 20.03639097263971, "trainingError": 0.23796238287677363, "maxW": 0.27589777386404446, "minW": -1.4314505766038113, "iterations": 1, "roc": 0.8219078735238048}\n'
p208
sg30
I10
sg31
I-1
ssVstats
p209
(dp210
Vstats
p211
(dp212
VavgMsgsRcvd
p213
(lp214
F0.0
aF0.0
aF0.0
asVavgMsgsSent
p215
(lp216
F0.0
aF0.0
aF0.0
asVavgDualUpdates
p217
(lp218
F1.0
aF1.0
aF1.0
asVavgLocalIters
p219
(lp220
F0.0
aF0.0
aF0.0
asVavgResidual
p221
(lp222
F0.0018622026299640511
aF0.0061969671419920512
aF0.012730622369606526
asVprimalAvg
p223
(lp224
F-1.4426337842335286
aF-0.014785751446438285
aF0.06909738966925516
aF0.2482846010860465
aF0.019417692714566247
aF0.18654442818946865
aF0.10798094627376492
aF0.27805322522235731
aF0.020718354725696511
aF-0.01376533345988396
aF0.2257511723916468
aF0.16552841567171347
aF0.16593121264959063
aF-0.9469128882689567
aF-0.13205989550870956
aF-0.40644887757250192
aF-0.19272518604043024
aF-0.46794637948455786
aF-0.090896848762268709
aF-0.032424176979804008
aF0.12620127429436734
aF0.11363105363356313
aF0.075247491672226677
aF-0.096999699782072041
aF0.017794016989929457
aF0.099983115468893435
aF0.10223253005149277
aF-0.1387134174101696
aF-0.017401229917569358
aF-0.013949772173081002
aF-0.17807931360785351
aF0.0030342317822032298
aF-0.031499874094870657
aF-0.03153096457232283
aF-0.06322626003258415
aF-0.12285279410599899
aF-0.098097064768021602
aF0.021336463268197249
aF0.12072246952866079
aF0.045110537594527343
aF0.0032119886660762361
aF0.20704372067110702
aF0.16715153741438901
aF0.071565599520637888
aF0.085391380615981713
aF0.22767660238476492
aF0.13140301302750579
aF0.14769682640985049
aF-0.0029568905725511573
aF0.021493222595287235
aF-0.049233597758285362
aF-0.044124193513487293
aF-0.061208978364319766
aF-0.017071356502556274
asVdualAvg
p225
(lp226
F0.0
aF0.0
aF0.0
aF0.0
aF0.0
aF0.0
aF0.0
aF0.0
aF0.0
aF0.0
aF0.0
aF0.0
aF0.0
aF0.0
aF0.0
aF0.0
aF0.0
aF0.0
aF0.0
aF0.0
aF0.0
aF0.0
aF0.0
aF0.0
aF0.0
aF0.0
aF0.0
aF0.0
aF0.0
aF0.0
aF0.0
aF0.0
aF0.0
aF0.0
aF0.0
aF0.0
aF0.0
aF0.0
aF0.0
aF0.0
aF0.0
aF0.0
aF0.0
aF0.0
aF0.0
aF0.0
aF0.0
aF0.0
aF0.0
aF0.0
aF0.0
aF0.0
aF0.0
aF0.0
asVavgSGDIters
p227
(lp228
F37900.0
aF49029.6875
aF67200.0
assVconsensusNorm
p229
F2.0018187216948347
sVdualUpdates
p230
(lp231
F1.0
aF1.0
aF1.0
asVdualAvgNorm
p232
F0.0
sVprimalAvgNorm
p233
F2.0174579304580758
sViterations
p234
I1
sVruntime
p235
I1229
sVavgSGDIters
p236
(lp237
F37900.0
aF49029.6875
aF67200.0
assVtotalLoss
p238
F339914.65452025936
sValgorithm
p239
VADMM
p240
sVregPenalty
p241
F20.036390972639708
sVroc
p242
F0.82190787352380479
sVmaxW
p243
F0.27589777386404446
sVnExamples
p244
I581012
sVruntimeMS
p245
I1229
sVparams
p246
(dp247
VpointCloudDim
p248
I10
sVinput
p249
V/user/root/bismarck_data/forest*
p250
sValgorithm
p251
VADMM
p252
sVformat
p253
Vbismarck
p254
sVpointCloudSize
p255
F1.0
sVwikipediaTargetWordToken
p256
I4690
sVdblpSplitYear
p257
I2007
sVnumPartitions
p258
I128
sValgParams
p259
(dp260
VregParam
p261
F10.0
sVmaxIterations
p262
I1000
sVusePorkChop
p263
I00
sVtol
p264
F0.0
sVworkerTol
p265
F1.0000000000000001e-05
sVadaptiveRho
p266
I00
sVuseLBFGS
p267
I00
sVrho0
p268
F10.0
sVdisplayIncrementalStats
p269
I00
sVminiBatchSize
p270
I10
sVlocalTimeout
p271
I100000000
sVmaxWorkerIterations
p272
I100000
sVruntimeMS
p273
I1000
sVbroadcastDelayMS
p274
I-1
sVeta0
p275
F1.0
sVlagrangianRho
p276
F10.0
sVuseLineSearch
p277
I00
ssVinputTokenHashKernelDimension
p278
I100
sVpointCloudPoints
p279
I10000
sVregType
p280
VL2
p281
sVuseLR
p282
I00
sVpointCloudNoise
p283
F0.20000000000000001
sVpointCloudSkew
p284
F0.0
ssViterations
p285
I1
sVtrainingLoss
p286
F339894.61812928674
sVminW
p287
F-1.4314505766038113
sVtrainingError
p288
F0.23796238287677363
sa(dp289
VnDim
p290
I54
sVpr
p291
F0.79096481260571883
sg4
(dp292
g6
F0.001
sg7
I-1
sg8
I-1
sg9
S'MiniBatchADMM'
p293
sg11
I10
sg12
I128
sg13
I4690
sg14
I2007
sg15
I500
sg16
g17
sg18
I100000000
sg19
g20
sg21
S'cd /mnt/spark; sbin/stop-all.sh; sleep 5; sbin/start-all.sh; sleep 3;./bin/spark-submit --driver-memory 52g --class org.apache.spark.examples.mllib.research.SynchronousADMMTests examples/target/scala-*/spark-examples-*.jar --algorithm MiniBatchADMM --regType L2 --regParam 10 --format bismarck --numPartitions 128 --runtimeMS 1000 --ADMMmaxLocalIterations 100000000 --ADMMepsilon 0.0 --ADMMLocalepsilon 0.001 --ADMMrho 10 --ADMMLagrangianrho 10 --broadcastDelayMs -1 --dblpSplitYear 2007 --wikipediaTargetWordToken 4690 --inputTokenHashKernelDimension 100 --localTimeout 500  --input /user/root/bismarck_data/forest*   '
p294
sg23
I10
sg24
F0.0
sg25
I100
sg26
g27
sg28
S'RESULT: {"trainingLoss": 340596.7720267447, "stats": {"dualAvgNorm": 0.0, "stats": {"avgDualUpdates": [2.0, 2.0, 2.0], "primalAvg": [-1.5534509549847548, -0.022232438344610462, 0.08862560339612978, 0.2798099745115038, 0.03194266269365955, 0.1884681775217654, 0.1209206853826981, 0.31297753468719536, 0.01943677240385175, -0.010544544622789536, 0.24710965819144529, 0.18510711598643087, 0.17180635548329254, -1.0200896071072032, -0.19598172946677417, -0.4467972422669595, -0.21892934141248516, -0.4924353359654833, -0.13552654172651263, -0.04557564001863446, 0.2621689205686448, 0.050265292601666414, 0.06985091548894835, -0.1013115101187315, 0.016493583077063022, 0.1323396210635588, 0.11333120587947448, -0.18243162078519898, -0.07851439079748186, -0.004081496295259868, -0.20816104329927035, -0.004219628523493826, -0.03302423685566515, -0.03032575112828459, -0.09915699903571719, -0.11062364494988236, -0.09764136960303886, 0.02692020610103581, 0.11240894173798045, 0.07442341539609322, -0.027773469171183975, 0.27280572972210454, 0.18325969583083682, 0.08276830882923715, 0.09660784419310459, 0.2314428632470849, 0.14413420413305494, 0.15536955296751528, -0.04586705288033746, 0.020303840933578905, -0.16460400745832654, -0.05439534823709741, -0.061454520342710525, -0.025460921925699622], "dualAvg": [0.0, 0.0, 0.0, 0.0, 0.0, 0.0, 0.0, 0.0, 0.0, 0.0, 0.0, 0.0, 0.0, 0.0, 0.0, 0.0, 0.0, 0.0, 0.0, 0.0, 0.0, 0.0, 0.0, 0.0, 0.0, 0.0, 0.0, 0.0, 0.0, 0.0, 0.0, 0.0, 0.0, 0.0, 0.0, 0.0, 0.0, 0.0, 0.0, 0.0, 0.0, 0.0, 0.0, 0.0, 0.0, 0.0, 0.0, 0.0, 0.0, 0.0, 0.0, 0.0, 0.0, 0.0], "avgResidual": [9.643521630332642E-6, 6.902271253212195E-5, 9.203826892629062E-4], "avgMsgsSent": [0.0, 0.0, 0.0], "avgMsgsRcvd": [0.0, 0.0, 0.0], "avgLocalIters": [0.0, 0.0, 0.0], "avgSGDIters": [18.0, 3650.25, 14659.0]}, "dualUpdates": [2.0, 2.0, 2.0], "primalAvgNorm": 2.208298779802042, "avgSGDIters": [18.0, 3650.25, 14659.0], "iterations": 2, "runtime": 1028, "consensusNorm": 2.191180184609779}, "params": {"format": "bismarck", "algParams": {"usePorkChop": false, "lagrangianRho": 10.0, "rho0": 10.0, "maxWorkerIterations": 100000000, "useLBFGS": false, "maxIterations": 1000, "eta0": 1.0, "runtimeMS": 1000, "adaptiveRho": false, "broadcastDelayMS": -1, "regParam": 10.0, "tol": 0.0, "displayIncrementalStats": false, "localTimeout": 500, "useLineSearch": false, "workerTol": 0.001, "miniBatchSize": 10}, "wikipediaTargetWordToken": 4690, "dblpSplitYear": 2007, "regType": "L2", "algorithm": "MiniBatchADMM", "inputTokenHashKernelDimension": 100, "useLR": false, "pointCloudPoints": 10000, "pointCloudDim": 10, "pointCloudSize": 1.0, "pointCloudSkew": 0.0, "input": "/user/root/bismarck_data/forest*", "numPartitions": 128, "pointCloudNoise": 0.2}, "nDim": 54, "algorithm": "MiniBatchADMM", "pr": 0.7909648126057188, "totalLoss": 340620.7783797518, "nExamples": 581012, "runtimeMS": 1028, "regPenalty": 24.006353007132727, "trainingError": 0.2385768280173215, "maxW": 0.31055135224775976, "minW": -1.5414086995197567, "iterations": 2, "roc": 0.8229438614932929}\n'
p295
sg30
I10
sg31
I-1
ssVstats
p296
(dp297
Vstats
p298
(dp299
VavgMsgsRcvd
p300
(lp301
F0.0
aF0.0
aF0.0
asVavgMsgsSent
p302
(lp303
F0.0
aF0.0
aF0.0
asVavgDualUpdates
p304
(lp305
F2.0
aF2.0
aF2.0
asVavgLocalIters
p306
(lp307
F0.0
aF0.0
aF0.0
asVavgResidual
p308
(lp309
F9.6435216303326417e-06
aF6.9022712532121946e-05
aF0.00092038268926290616
asVprimalAvg
p310
(lp311
F-1.5534509549847548
aF-0.022232438344610462
aF0.088625603396129779
aF0.2798099745115038
aF0.03194266269365955
aF0.1884681775217654
aF0.1209206853826981
aF0.31297753468719536
aF0.019436772403851749
aF-0.010544544622789536
aF0.24710965819144529
aF0.18510711598643087
aF0.17180635548329254
aF-1.0200896071072032
aF-0.19598172946677417
aF-0.44679724226695949
aF-0.21892934141248516
aF-0.49243533596548328
aF-0.13552654172651263
aF-0.045575640018634463
aF0.26216892056864483
aF0.050265292601666414
aF0.069850915488948354
aF-0.1013115101187315
aF0.016493583077063022
aF0.13233962106355879
aF0.11333120587947448
aF-0.18243162078519898
aF-0.078514390797481862
aF-0.0040814962952598682
aF-0.20816104329927035
aF-0.004219628523493826
aF-0.033024236855665148
aF-0.030325751128284589
aF-0.099156999035717189
aF-0.11062364494988236
aF-0.097641369603038861
aF0.02692020610103581
aF0.11240894173798045
aF0.07442341539609322
aF-0.027773469171183975
aF0.27280572972210454
aF0.18325969583083682
aF0.08276830882923715
aF0.096607844193104586
aF0.23144286324708491
aF0.14413420413305494
aF0.15536955296751528
aF-0.045867052880337461
aF0.020303840933578905
aF-0.16460400745832654
aF-0.054395348237097407
aF-0.061454520342710525
aF-0.025460921925699622
asVdualAvg
p312
(lp313
F0.0
aF0.0
aF0.0
aF0.0
aF0.0
aF0.0
aF0.0
aF0.0
aF0.0
aF0.0
aF0.0
aF0.0
aF0.0
aF0.0
aF0.0
aF0.0
aF0.0
aF0.0
aF0.0
aF0.0
aF0.0
aF0.0
aF0.0
aF0.0
aF0.0
aF0.0
aF0.0
aF0.0
aF0.0
aF0.0
aF0.0
aF0.0
aF0.0
aF0.0
aF0.0
aF0.0
aF0.0
aF0.0
aF0.0
aF0.0
aF0.0
aF0.0
aF0.0
aF0.0
aF0.0
aF0.0
aF0.0
aF0.0
aF0.0
aF0.0
aF0.0
aF0.0
aF0.0
aF0.0
asVavgSGDIters
p314
(lp315
F18.0
aF3650.25
aF14659.0
assVconsensusNorm
p316
F2.1911801846097791
sVdualUpdates
p317
(lp318
F2.0
aF2.0
aF2.0
asVdualAvgNorm
p319
F0.0
sVprimalAvgNorm
p320
F2.2082987798020421
sViterations
p321
I2
sVruntime
p322
I1028
sVavgSGDIters
p323
(lp324
F18.0
aF3650.25
aF14659.0
assVtotalLoss
p325
F340620.77837975178
sValgorithm
p326
VMiniBatchADMM
p327
sVregPenalty
p328
F24.006353007132727
sVroc
p329
F0.82294386149329291
sVmaxW
p330
F0.31055135224775976
sVnExamples
p331
I581012
sVruntimeMS
p332
I1028
sVparams
p333
(dp334
VpointCloudDim
p335
I10
sVinput
p336
V/user/root/bismarck_data/forest*
p337
sValgorithm
p338
VMiniBatchADMM
p339
sVformat
p340
Vbismarck
p341
sVpointCloudSize
p342
F1.0
sVwikipediaTargetWordToken
p343
I4690
sVdblpSplitYear
p344
I2007
sVnumPartitions
p345
I128
sValgParams
p346
(dp347
VregParam
p348
F10.0
sVmaxIterations
p349
I1000
sVusePorkChop
p350
I00
sVtol
p351
F0.0
sVworkerTol
p352
F0.001
sVadaptiveRho
p353
I00
sVuseLBFGS
p354
I00
sVrho0
p355
F10.0
sVdisplayIncrementalStats
p356
I00
sVminiBatchSize
p357
I10
sVlocalTimeout
p358
I500
sVmaxWorkerIterations
p359
I100000000
sVruntimeMS
p360
I1000
sVbroadcastDelayMS
p361
I-1
sVeta0
p362
F1.0
sVlagrangianRho
p363
F10.0
sVuseLineSearch
p364
I00
ssVinputTokenHashKernelDimension
p365
I100
sVpointCloudPoints
p366
I10000
sVregType
p367
VL2
p368
sVuseLR
p369
I00
sVpointCloudNoise
p370
F0.20000000000000001
sVpointCloudSkew
p371
F0.0
ssViterations
p372
I2
sVtrainingLoss
p373
F340596.77202674467
sVminW
p374
F-1.5414086995197567
sVtrainingError
p375
F0.2385768280173215
sa(dp376
VnDim
p377
I54
sVpr
p378
F0.78770822625231263
sg4
(dp379
g6
F1.0000000000000001e-05
sg7
I100
sg8
I-1
sg9
S'AsyncADMM'
p380
sg11
I10
sg12
I128
sg13
I4690
sg14
I2007
sg15
I500
sg16
g17
sg18
I100000
sg19
g20
sg21
S'cd /mnt/spark; sbin/stop-all.sh; sleep 5; sbin/start-all.sh; sleep 3;./bin/spark-submit --driver-memory 52g --class org.apache.spark.examples.mllib.research.SynchronousADMMTests examples/target/scala-*/spark-examples-*.jar --algorithm AsyncADMM --regType L2 --regParam 10 --format bismarck --numPartitions 128 --runtimeMS 1000 --ADMMmaxLocalIterations 100000 --ADMMepsilon 0.0 --ADMMLocalepsilon 1e-05 --ADMMrho 10 --ADMMLagrangianrho 10 --broadcastDelayMs 100 --dblpSplitYear 2007 --wikipediaTargetWordToken 4690 --inputTokenHashKernelDimension 100 --localTimeout 500  --input /user/root/bismarck_data/forest*   '
p381
sg23
I10
sg24
F0.0
sg25
I100
sg26
g27
sg28
S'RESULT: {"trainingLoss": 345154.25752242375, "stats": {"dualAvgNorm": 0.0, "stats": {"avgDualUpdates": [1.0, 1.0, 1.0], "primalAvg": [-1.1912764780263279, -0.011529268123451012, 0.05683533401608943, 0.20496919767170627, 0.014795433609714907, 0.15261629463685938, 0.09260228312193942, 0.22853885089493545, 0.011314462376800987, -0.013429844603323604, 0.1867815958177264, 0.13741992419585009, 0.1365946159265839, -0.7824677044756269, -0.11274263512716926, -0.33681833393857824, -0.15912593985851914, -0.3842457794746471, -0.07954568771710256, -0.02632998830757926, 0.12430538821858708, 0.09829441520829366, 0.08173111350250027, -0.07832559329146999, 0.015726597103711572, 0.08482587822108455, 0.0846670627328208, -0.12183803522495756, -0.012042042750467415, -0.012978719733878017, -0.1476926236648943, 0.001630643312267605, -0.025885029563705263, -0.02678676370154324, -0.053514902035981485, -0.09869057638809008, -0.08268450378186583, 0.020949458011845647, 0.10629134854228135, 0.04373284548316862, 0.0036429627709879224, 0.18225841967246428, 0.13584262317140217, 0.06057170542914275, 0.06765449268540985, 0.18379239063876326, 0.1056270786234287, 0.11706528707793959, -0.007706188051713585, 0.021635525481582117, -0.04536164764711835, -0.03595112928025407, -0.0506603100803742, -0.011689537722540343], "dualAvg": [0.0, 0.0, 0.0, 0.0, 0.0, 0.0, 0.0, 0.0, 0.0, 0.0, 0.0, 0.0, 0.0, 0.0, 0.0, 0.0, 0.0, 0.0, 0.0, 0.0, 0.0, 0.0, 0.0, 0.0, 0.0, 0.0, 0.0, 0.0, 0.0, 0.0, 0.0, 0.0, 0.0, 0.0, 0.0, 0.0, 0.0, 0.0, 0.0, 0.0, 0.0, 0.0, 0.0, 0.0, 0.0, 0.0, 0.0, 0.0, 0.0, 0.0, 0.0, 0.0, 0.0, 0.0], "avgResidual": [0.0, 0.0, 0.0], "avgMsgsSent": [1.0, 1.0, 1.0], "avgMsgsRcvd": [0.0, 4.890625, 7.0], "avgLocalIters": [1.0, 1.0, 1.0], "avgSGDIters": [28100.0, 42942.96875, 48200.0]}, "iterInterval": [1.0, 1.0, 1.0], "avgMsgsSent": [1.0, 1.0, 1.0], "dualUpdates": [1.0, 1.0, 1.0], "avgMsgsRcvd": [0.0, 4.890625, 7.0], "primalAvgNorm": 1.6700635201819538, "avgSGDIters": [28100.0, 42942.96875, 48200.0], "iterations": 1.0, "runtime": 1237, "consensusNorm": 1.6571172913433336}, "params": {"format": "bismarck", "algParams": {"usePorkChop": false, "lagrangianRho": 10.0, "rho0": 10.0, "maxWorkerIterations": 100000, "useLBFGS": false, "maxIterations": 1000, "eta0": 1.0, "runtimeMS": 1000, "adaptiveRho": false, "broadcastDelayMS": 100, "regParam": 10.0, "tol": 0.0, "displayIncrementalStats": false, "localTimeout": 500, "useLineSearch": false, "workerTol": 1.0E-5, "miniBatchSize": 10}, "wikipediaTargetWordToken": 4690, "dblpSplitYear": 2007, "regType": "L2", "algorithm": "AsyncADMM", "inputTokenHashKernelDimension": 100, "useLR": false, "pointCloudPoints": 10000, "pointCloudDim": 10, "pointCloudSize": 1.0, "pointCloudSkew": 0.0, "input": "/user/root/bismarck_data/forest*", "numPartitions": 128, "pointCloudNoise": 0.2}, "nDim": 54, "algorithm": "AsyncADMM", "pr": 0.7877082262523126, "totalLoss": 345167.9877110101, "nExamples": 581012, "runtimeMS": 1237, "regPenalty": 13.730188586345335, "trainingError": 0.23794345039345144, "maxW": 0.2267672318957499, "minW": -1.1820417766462787, "iterations": 1.0, "roc": 0.8219484169438714}\n'
p382
sg30
I10
sg31
I-1
ssVstats
p383
(dp384
Vstats
p385
(dp386
VavgMsgsRcvd
p387
(lp388
F0.0
aF4.890625
aF7.0
asVavgMsgsSent
p389
(lp390
F1.0
aF1.0
aF1.0
asVavgDualUpdates
p391
(lp392
F1.0
aF1.0
aF1.0
asVavgLocalIters
p393
(lp394
F1.0
aF1.0
aF1.0
asVavgResidual
p395
(lp396
F0.0
aF0.0
aF0.0
asVprimalAvg
p397
(lp398
F-1.1912764780263279
aF-0.011529268123451012
aF0.05683533401608943
aF0.20496919767170627
aF0.014795433609714907
aF0.15261629463685938
aF0.092602283121939424
aF0.22853885089493545
aF0.011314462376800987
aF-0.013429844603323604
aF0.18678159581772641
aF0.13741992419585009
aF0.1365946159265839
aF-0.78246770447562686
aF-0.11274263512716926
aF-0.33681833393857824
aF-0.15912593985851914
aF-0.38424577947464711
aF-0.079545687717102562
aF-0.026329988307579259
aF0.12430538821858708
aF0.098294415208293656
aF0.081731113502500272
aF-0.078325593291469986
aF0.015726597103711572
aF0.084825878221084547
aF0.084667062732820805
aF-0.12183803522495756
aF-0.012042042750467415
aF-0.012978719733878017
aF-0.1476926236648943
aF0.001630643312267605
aF-0.025885029563705263
aF-0.026786763701543238
aF-0.053514902035981485
aF-0.098690576388090076
aF-0.082684503781865828
aF0.020949458011845647
aF0.10629134854228135
aF0.043732845483168623
aF0.0036429627709879224
aF0.18225841967246428
aF0.13584262317140217
aF0.060571705429142753
aF0.067654492685409851
aF0.18379239063876326
aF0.1056270786234287
aF0.11706528707793959
aF-0.0077061880517135849
aF0.021635525481582117
aF-0.04536164764711835
aF-0.035951129280254068
aF-0.0506603100803742
aF-0.011689537722540343
asVdualAvg
p399
(lp400
F0.0
aF0.0
aF0.0
aF0.0
aF0.0
aF0.0
aF0.0
aF0.0
aF0.0
aF0.0
aF0.0
aF0.0
aF0.0
aF0.0
aF0.0
aF0.0
aF0.0
aF0.0
aF0.0
aF0.0
aF0.0
aF0.0
aF0.0
aF0.0
aF0.0
aF0.0
aF0.0
aF0.0
aF0.0
aF0.0
aF0.0
aF0.0
aF0.0
aF0.0
aF0.0
aF0.0
aF0.0
aF0.0
aF0.0
aF0.0
aF0.0
aF0.0
aF0.0
aF0.0
aF0.0
aF0.0
aF0.0
aF0.0
aF0.0
aF0.0
aF0.0
aF0.0
aF0.0
aF0.0
asVavgSGDIters
p401
(lp402
F28100.0
aF42942.96875
aF48200.0
assVconsensusNorm
p403
F1.6571172913433336
sVavgMsgsRcvd
p404
(lp405
F0.0
aF4.890625
aF7.0
asVavgMsgsSent
p406
(lp407
F1.0
aF1.0
aF1.0
asVdualUpdates
p408
(lp409
F1.0
aF1.0
aF1.0
asVdualAvgNorm
p410
F0.0
sVprimalAvgNorm
p411
F1.6700635201819538
sViterInterval
p412
(lp413
F1.0
aF1.0
aF1.0
asViterations
p414
F1.0
sVruntime
p415
I1237
sVavgSGDIters
p416
(lp417
F28100.0
aF42942.96875
aF48200.0
assVtotalLoss
p418
F345167.98771101009
sValgorithm
p419
VAsyncADMM
p420
sVregPenalty
p421
F13.730188586345335
sVroc
p422
F0.82194841694387144
sVmaxW
p423
F0.2267672318957499
sVnExamples
p424
I581012
sVruntimeMS
p425
I1237
sVparams
p426
(dp427
VpointCloudDim
p428
I10
sVinput
p429
V/user/root/bismarck_data/forest*
p430
sValgorithm
p431
VAsyncADMM
p432
sVformat
p433
Vbismarck
p434
sVpointCloudSize
p435
F1.0
sVwikipediaTargetWordToken
p436
I4690
sVdblpSplitYear
p437
I2007
sVnumPartitions
p438
I128
sValgParams
p439
(dp440
VregParam
p441
F10.0
sVmaxIterations
p442
I1000
sVusePorkChop
p443
I00
sVtol
p444
F0.0
sVworkerTol
p445
F1.0000000000000001e-05
sVadaptiveRho
p446
I00
sVuseLBFGS
p447
I00
sVrho0
p448
F10.0
sVdisplayIncrementalStats
p449
I00
sVminiBatchSize
p450
I10
sVlocalTimeout
p451
I500
sVmaxWorkerIterations
p452
I100000
sVruntimeMS
p453
I1000
sVbroadcastDelayMS
p454
I100
sVeta0
p455
F1.0
sVlagrangianRho
p456
F10.0
sVuseLineSearch
p457
I00
ssVinputTokenHashKernelDimension
p458
I100
sVpointCloudPoints
p459
I10000
sVregType
p460
VL2
p461
sVuseLR
p462
I00
sVpointCloudNoise
p463
F0.20000000000000001
sVpointCloudSkew
p464
F0.0
ssViterations
p465
F1.0
sVtrainingLoss
p466
F345154.25752242375
sVminW
p467
F-1.1820417766462787
sVtrainingError
p468
F0.23794345039345144
sa(dp469
VnDim
p470
I54
sVpr
p471
F0.78891461981904021
sg4
(dp472
g6
F0.001
sg7
I10
sg8
I-1
sg9
g10
sg11
I10
sg12
I128
sg13
I4690
sg14
I2007
sg15
I-1
sg16
g17
sg18
I100000
sg19
g20
sg21
S'cd /mnt/spark; sbin/stop-all.sh; sleep 5; sbin/start-all.sh; sleep 3;./bin/spark-submit --driver-memory 52g --class org.apache.spark.examples.mllib.research.SynchronousADMMTests examples/target/scala-*/spark-examples-*.jar --algorithm PORKCHOP --regType L2 --regParam 10 --format bismarck --numPartitions 128 --runtimeMS 5000 --ADMMmaxLocalIterations 100000 --ADMMepsilon 0.0 --ADMMLocalepsilon 0.001 --ADMMrho 10 --ADMMLagrangianrho 10 --broadcastDelayMs 10 --dblpSplitYear 2007 --wikipediaTargetWordToken 4690 --inputTokenHashKernelDimension 100 --localTimeout -1  --input /user/root/bismarck_data/forest*   '
p473
sg23
I10
sg24
F0.0
sg25
I100
sg26
g27
sg28
S'RESULT: {"trainingLoss": 342387.6630840281, "stats": {"dualAvgNorm": 3.055139647536755, "stats": {"avgDualUpdates": [18.0, 51.1015625, 89.0], "primalAvg": [-1.5527571500428239, -0.017451607443038433, 0.07998495867038537, 0.27766718837490567, 0.016208885138329077, 0.18300150624451025, 0.08370324951368303, 0.33453429003619956, -0.027815229809543113, -0.023138062906187022, 0.24386557970317388, 0.19066990770348222, 0.17507600760636127, -1.0250846683403345, -0.18328644375240563, -0.43601351792470194, -0.21178256507829898, -0.4899426530575837, -0.15515168424672715, -0.04099860442621653, 0.9045109635612674, 0.11890414106788104, 0.013665726161972577, -0.10420461181430286, 0.009458500045189097, 0.11617774221848962, 0.1046892597912399, -0.2029348185027166, 0.09103720629156421, -0.014420343819770413, -0.19629514540624624, -0.03291845677102881, -0.034036699241043494, -0.03115140386717942, -0.08531866165583347, -0.1135814139816681, -0.08380901826062338, 0.03153003614808698, 0.10618329864367172, 0.0686272987151155, -0.002589261393832887, 0.2714770124884048, 0.16621249004448554, 0.06875627386925126, 0.095305600806549, 0.24355024406252543, 0.13638767745636313, 0.0934088324079493, -0.034760797942343095, 0.014658676490241766, -0.06318213445729862, -0.04374586531070697, -0.06062887240521797, -0.019380778764119037], "dualAvg": [-1.968320994671126, 0.015164717264493463, 0.14117127672462337, 0.34564195178024587, 0.07231589624246887, 0.2499421952054028, 0.1351231245653333, 0.3990002208179878, -0.060181723271018804, -0.04188948206462925, 0.3358297696336197, 0.24424192553153656, 0.21487053616322677, -1.3417821428145682, -0.24420622292041244, -0.5392430305332692, -0.2332436231558841, -0.6658450647772708, -0.20983467458984773, -0.034826660459574166, 1.1933654697019822, 0.1166282807992946, 0.010967132173065473, -0.1184216586203313, 0.0390219283303272, 0.15345777854859632, 0.15935760726707432, -0.26825546747313467, 0.14478525059733502, -0.047435752206338055, -0.29233102339106815, 0.057417684502341804, -0.05631904493215577, -0.024636247927200913, -0.12339707718566069, -0.14191479021903808, -0.11858174081437825, 0.06592704712270016, -0.036354674350938726, 0.0626509483726265, -0.15572769657175511, 0.3201895340952911, 0.20353742512099032, 0.07254085772936202, 0.10919836194118146, 0.32471772636508656, 0.18728219760902307, 0.15975667177808084, -0.22063276977691512, -0.048409758058112984, -0.04573647782988424, -0.030427553264678688, -0.04265257626697666, -0.026076555455844017], "avgResidual": [0.0, 0.0, 0.0], "avgMsgsSent": [0.0, 0.0, 0.0], "avgMsgsRcvd": [237.0, 315.171875, 376.0], "avgLocalIters": [18.0, 51.1015625, 89.0], "avgSGDIters": [100.0, 4101.78125, 25700.0]}, "iterInterval": [18.0, 51.1015625, 89.0], "avgMsgsSent": [0.0, 0.0, 0.0], "dualUpdates": [18.0, 51.1015625, 89.0], "avgMsgsRcvd": [237.0, 315.171875, 376.0], "primalAvgNorm": 2.361589649881214, "avgSGDIters": [100.0, 4101.78125, 25700.0], "iterations": 51.1015625, "runtime": 9610, "consensusNorm": 2.644578836484324}, "params": {"format": "bismarck", "algParams": {"usePorkChop": true, "lagrangianRho": 10.0, "rho0": 10.0, "maxWorkerIterations": 100000, "useLBFGS": false, "maxIterations": 1000, "eta0": 1.0, "runtimeMS": 5000, "adaptiveRho": false, "broadcastDelayMS": 10, "regParam": 10.0, "tol": 0.0, "displayIncrementalStats": false, "localTimeout": -1, "useLineSearch": false, "workerTol": 0.001, "miniBatchSize": 10}, "wikipediaTargetWordToken": 4690, "dblpSplitYear": 2007, "regType": "L2", "algorithm": "PORKCHOP", "inputTokenHashKernelDimension": 100, "useLR": false, "pointCloudPoints": 10000, "pointCloudDim": 10, "pointCloudSize": 1.0, "pointCloudSkew": 0.0, "input": "/user/root/bismarck_data/forest*", "numPartitions": 128, "pointCloudNoise": 0.2}, "nDim": 54, "algorithm": "PORKCHOP", "pr": 0.7889146198190402, "totalLoss": 342422.63207014004, "nExamples": 581012, "runtimeMS": 9610, "regPenalty": 34.9689861119039, "trainingError": 0.2370260855197483, "maxW": 1.0159107081242449, "minW": -1.7360265421493943, "iterations": 51.1015625, "roc": 0.8231852769978624}\n'
p474
sg30
I10
sg31
I-1
ssVstats
p475
(dp476
Vstats
p477
(dp478
VavgMsgsRcvd
p479
(lp480
F237.0
aF315.171875
aF376.0
asVavgMsgsSent
p481
(lp482
F0.0
aF0.0
aF0.0
asVavgDualUpdates
p483
(lp484
F18.0
aF51.1015625
aF89.0
asVavgLocalIters
p485
(lp486
F18.0
aF51.1015625
aF89.0
asVavgResidual
p487
(lp488
F0.0
aF0.0
aF0.0
asVprimalAvg
p489
(lp490
F-1.5527571500428239
aF-0.017451607443038433
aF0.079984958670385367
aF0.27766718837490567
aF0.016208885138329077
aF0.18300150624451025
aF0.083703249513683034
aF0.33453429003619956
aF-0.027815229809543113
aF-0.023138062906187022
aF0.24386557970317388
aF0.19066990770348222
aF0.17507600760636127
aF-1.0250846683403345
aF-0.18328644375240563
aF-0.43601351792470194
aF-0.21178256507829898
aF-0.48994265305758372
aF-0.15515168424672715
aF-0.040998604426216528
aF0.90451096356126737
aF0.11890414106788104
aF0.013665726161972577
aF-0.10420461181430286
aF0.0094585000451890971
aF0.11617774221848962
aF0.1046892597912399
aF-0.20293481850271661
aF0.091037206291564213
aF-0.014420343819770413
aF-0.19629514540624624
aF-0.032918456771028809
aF-0.034036699241043494
aF-0.03115140386717942
aF-0.085318661655833475
aF-0.1135814139816681
aF-0.083809018260623383
aF0.031530036148086978
aF0.10618329864367172
aF0.068627298715115498
aF-0.0025892613938328871
aF0.27147701248840478
aF0.16621249004448554
aF0.068756273869251261
aF0.095305600806548998
aF0.24355024406252543
aF0.13638767745636313
aF0.093408832407949297
aF-0.034760797942343095
aF0.014658676490241766
aF-0.063182134457298617
aF-0.043745865310706969
aF-0.060628872405217971
aF-0.019380778764119037
asVdualAvg
p491
(lp492
F-1.968320994671126
aF0.015164717264493463
aF0.14117127672462337
aF0.34564195178024587
aF0.072315896242468869
aF0.24994219520540281
aF0.13512312456533329
aF0.39900022081798781
aF-0.060181723271018804
aF-0.041889482064629252
aF0.33582976963361971
aF0.24424192553153656
aF0.21487053616322677
aF-1.3417821428145682
aF-0.24420622292041244
aF-0.53924303053326916
aF-0.23324362315588409
aF-0.66584506477727079
aF-0.20983467458984773
aF-0.034826660459574166
aF1.1933654697019822
aF0.1166282807992946
aF0.010967132173065473
aF-0.1184216586203313
aF0.0390219283303272
aF0.15345777854859632
aF0.15935760726707432
aF-0.26825546747313467
aF0.14478525059733502
aF-0.047435752206338055
aF-0.29233102339106815
aF0.057417684502341804
aF-0.056319044932155768
aF-0.024636247927200913
aF-0.12339707718566069
aF-0.14191479021903808
aF-0.11858174081437825
aF0.065927047122700158
aF-0.036354674350938726
aF0.062650948372626497
aF-0.15572769657175511
aF0.32018953409529111
aF0.20353742512099032
aF0.072540857729362015
aF0.10919836194118146
aF0.32471772636508656
aF0.18728219760902307
aF0.15975667177808084
aF-0.22063276977691512
aF-0.048409758058112984
aF-0.045736477829884242
aF-0.030427553264678688
aF-0.042652576266976661
aF-0.026076555455844017
asVavgSGDIters
p493
(lp494
F100.0
aF4101.78125
aF25700.0
assVconsensusNorm
p495
F2.6445788364843241
sVavgMsgsRcvd
p496
(lp497
F237.0
aF315.171875
aF376.0
asVavgMsgsSent
p498
(lp499
F0.0
aF0.0
aF0.0
asVdualUpdates
p500
(lp501
F18.0
aF51.1015625
aF89.0
asVdualAvgNorm
p502
F3.0551396475367549
sVprimalAvgNorm
p503
F2.3615896498812141
sViterInterval
p504
(lp505
F18.0
aF51.1015625
aF89.0
asViterations
p506
F51.1015625
sVruntime
p507
I9610
sVavgSGDIters
p508
(lp509
F100.0
aF4101.78125
aF25700.0
assVtotalLoss
p510
F342422.63207014004
sValgorithm
p511
VPORKCHOP
p512
sVregPenalty
p513
F34.968986111903902
sVroc
p514
F0.82318527699786237
sVmaxW
p515
F1.0159107081242449
sVnExamples
p516
I581012
sVruntimeMS
p517
I9610
sVparams
p518
(dp519
VpointCloudDim
p520
I10
sVinput
p521
V/user/root/bismarck_data/forest*
p522
sValgorithm
p523
VPORKCHOP
p524
sVformat
p525
Vbismarck
p526
sVpointCloudSize
p527
F1.0
sVwikipediaTargetWordToken
p528
I4690
sVdblpSplitYear
p529
I2007
sVnumPartitions
p530
I128
sValgParams
p531
(dp532
VregParam
p533
F10.0
sVmaxIterations
p534
I1000
sVusePorkChop
p535
I01
sVtol
p536
F0.0
sVworkerTol
p537
F0.001
sVadaptiveRho
p538
I00
sVuseLBFGS
p539
I00
sVrho0
p540
F10.0
sVdisplayIncrementalStats
p541
I00
sVminiBatchSize
p542
I10
sVlocalTimeout
p543
I-1
sVmaxWorkerIterations
p544
I100000
sVruntimeMS
p545
I5000
sVbroadcastDelayMS
p546
I10
sVeta0
p547
F1.0
sVlagrangianRho
p548
F10.0
sVuseLineSearch
p549
I00
ssVinputTokenHashKernelDimension
p550
I100
sVpointCloudPoints
p551
I10000
sVregType
p552
VL2
p553
sVuseLR
p554
I00
sVpointCloudNoise
p555
F0.20000000000000001
sVpointCloudSkew
p556
F0.0
ssViterations
p557
F51.1015625
sVtrainingLoss
p558
F342387.66308402811
sVminW
p559
F-1.7360265421493943
sVtrainingError
p560
F0.2370260855197483
sa(dp561
VnDim
p562
I54
sVpr
p563
F0.76429716688623106
sg4
(dp564
g6
F1.0000000000000001e-05
sg7
I10
sg8
I-1
sg9
g122
sg11
I10
sg12
I128
sg13
I4690
sg14
I2007
sg15
I-1
sg16
g17
sg18
I10
sg19
g20
sg21
S'cd /mnt/spark; sbin/stop-all.sh; sleep 5; sbin/start-all.sh; sleep 3;./bin/spark-submit --driver-memory 52g --class org.apache.spark.examples.mllib.research.SynchronousADMMTests examples/target/scala-*/spark-examples-*.jar --algorithm HOGWILD --regType L2 --regParam 10 --format bismarck --numPartitions 128 --runtimeMS 5000 --ADMMmaxLocalIterations 10 --ADMMepsilon 0.0 --ADMMLocalepsilon 1e-05 --ADMMrho 10 --ADMMLagrangianrho 10 --broadcastDelayMs 10 --dblpSplitYear 2007 --wikipediaTargetWordToken 4690 --inputTokenHashKernelDimension 100 --localTimeout -1  --input /user/root/bismarck_data/forest*   '
p565
sg23
I10
sg24
F0.0
sg25
I100
sg26
g27
sg28
S'RESULT: {"trainingLoss": 678444.3979733035, "stats": {"stats": {"avgDualUpdates": [0.0, 0.0, 0.0], "primalAvg": [-4.045215447626314, -0.24977070399992557, 0.10331212105580463, 0.6802170083025764, -0.08402223594974736, 0.7625178768714176, 0.30294799206109496, 1.2327419201697976, -0.1658984411911582, 0.5080218848833228, 0.9392164502154092, 0.542369892421637, -0.02043303293006022, -2.5156432760640515, -0.89254307402154, -1.2586057411616145, -0.6756878090174515, -1.366563308651136, -0.6916107625669577, -0.14196884702539914, 1.9208996595712176, 0.20473537323700142, -0.004376668286688772, -0.6320460888233225, -0.14329016836815706, 0.6945790443901381, 0.21881829282140414, -0.7115418237671634, -0.18329763643565528, 0.028068566912720243, -0.5086705032830643, -0.028419877996595795, -0.06266073423306287, -0.04809319759203598, -0.25551841499410183, -0.20520272083987837, -0.030741181206621344, -0.05886117294499047, 0.11044014597441906, 0.0703286977789282, -0.09727401190052519, 0.7516937018219033, 1.302957010614304, 0.5424179268052166, -0.02535789024846637, 0.2851934926118687, 0.12461556699889423, 0.2525668736556735, -0.25551485895859083, -0.001426319032610112, -0.2290680182051177, -0.37678939121657357, -0.471329213305097, -0.24877436186010105], "dualAvg": [0.0, 0.0, 0.0, 0.0, 0.0, 0.0, 0.0, 0.0, 0.0, 0.0, 0.0, 0.0, 0.0, 0.0, 0.0, 0.0, 0.0, 0.0, 0.0, 0.0, 0.0, 0.0, 0.0, 0.0, 0.0, 0.0, 0.0, 0.0, 0.0, 0.0, 0.0, 0.0, 0.0, 0.0, 0.0, 0.0, 0.0, 0.0, 0.0, 0.0, 0.0, 0.0, 0.0, 0.0, 0.0, 0.0, 0.0, 0.0, 0.0, 0.0, 0.0, 0.0, 0.0, 0.0], "avgResidual": [0.0, 0.0, 0.0], "avgMsgsSent": [456.0, 465.1953125, 475.0], "avgMsgsRcvd": [3222.0, 3256.3671875, 3294.0], "avgLocalIters": [123167.0, 159012.7734375, 219021.0], "avgSGDIters": [0.0, 0.0, 0.0]}, "avgMsgsSent": [456.0, 465.1953125, 475.0], "avgMsgsRcvd": [3222.0, 3256.3671875, 3294.0], "iterations": 159012.7734375, "runtime": 5584}, "params": {"format": "bismarck", "algParams": {"usePorkChop": false, "lagrangianRho": 10.0, "rho0": 10.0, "maxWorkerIterations": 10, "useLBFGS": false, "maxIterations": 1000, "eta0": 1.0, "runtimeMS": 5000, "adaptiveRho": false, "broadcastDelayMS": 10, "regParam": 10.0, "tol": 0.0, "displayIncrementalStats": false, "localTimeout": -1, "useLineSearch": false, "workerTol": 1.0E-5, "miniBatchSize": 10}, "wikipediaTargetWordToken": 4690, "dblpSplitYear": 2007, "regType": "L2", "algorithm": "HOGWILD", "inputTokenHashKernelDimension": 100, "useLR": false, "pointCloudPoints": 10000, "pointCloudDim": 10, "pointCloudSize": 1.0, "pointCloudSkew": 0.0, "input": "/user/root/bismarck_data/forest*", "numPartitions": 128, "pointCloudNoise": 0.2}, "nDim": 54, "algorithm": "HOGWILD", "pr": 0.7642971668862311, "totalLoss": 678649.310543477, "nExamples": 581012, "runtimeMS": 5584, "regPenalty": 204.9125701734627, "trainingError": 0.3006805367186908, "maxW": 1.9208996595712176, "minW": -4.045215447626314, "iterations": 159012.7734375, "roc": 0.7822638735130404}\n'
p566
sg30
I10
sg31
I-1
ssVstats
p567
(dp568
Vruntime
p569
I5584
sVstats
p570
(dp571
VavgMsgsRcvd
p572
(lp573
F3222.0
aF3256.3671875
aF3294.0
asVavgMsgsSent
p574
(lp575
F456.0
aF465.1953125
aF475.0
asVavgDualUpdates
p576
(lp577
F0.0
aF0.0
aF0.0
asVavgLocalIters
p578
(lp579
F123167.0
aF159012.7734375
aF219021.0
asVavgResidual
p580
(lp581
F0.0
aF0.0
aF0.0
asVprimalAvg
p582
(lp583
F-4.0452154476263136
aF-0.24977070399992557
aF0.10331212105580463
aF0.68021700830257636
aF-0.084022235949747365
aF0.76251787687141759
aF0.30294799206109496
aF1.2327419201697976
aF-0.16589844119115821
aF0.50802188488332278
aF0.93921645021540923
aF0.54236989242163702
aF-0.02043303293006022
aF-2.5156432760640515
aF-0.89254307402153998
aF-1.2586057411616145
aF-0.67568780901745151
aF-1.366563308651136
aF-0.69161076256695775
aF-0.14196884702539914
aF1.9208996595712176
aF0.20473537323700142
aF-0.0043766682866887719
aF-0.63204608882332247
aF-0.14329016836815706
aF0.69457904439013807
aF0.21881829282140414
aF-0.71154182376716335
aF-0.18329763643565528
aF0.028068566912720243
aF-0.50867050328306429
aF-0.028419877996595795
aF-0.06266073423306287
aF-0.04809319759203598
aF-0.25551841499410183
aF-0.20520272083987837
aF-0.030741181206621344
aF-0.058861172944990471
aF0.11044014597441906
aF0.070328697778928195
aF-0.09727401190052519
aF0.75169370182190332
aF1.302957010614304
aF0.54241792680521661
aF-0.02535789024846637
aF0.28519349261186872
aF0.12461556699889423
aF0.25256687365567349
aF-0.25551485895859083
aF-0.001426319032610112
aF-0.22906801820511771
aF-0.37678939121657357
aF-0.47132921330509697
aF-0.24877436186010105
asVdualAvg
p584
(lp585
F0.0
aF0.0
aF0.0
aF0.0
aF0.0
aF0.0
aF0.0
aF0.0
aF0.0
aF0.0
aF0.0
aF0.0
aF0.0
aF0.0
aF0.0
aF0.0
aF0.0
aF0.0
aF0.0
aF0.0
aF0.0
aF0.0
aF0.0
aF0.0
aF0.0
aF0.0
aF0.0
aF0.0
aF0.0
aF0.0
aF0.0
aF0.0
aF0.0
aF0.0
aF0.0
aF0.0
aF0.0
aF0.0
aF0.0
aF0.0
aF0.0
aF0.0
aF0.0
aF0.0
aF0.0
aF0.0
aF0.0
aF0.0
aF0.0
aF0.0
aF0.0
aF0.0
aF0.0
aF0.0
asVavgSGDIters
p586
(lp587
F0.0
aF0.0
aF0.0
assViterations
p588
F159012.7734375
sVavgMsgsRcvd
p589
(lp590
F3222.0
aF3256.3671875
aF3294.0
asVavgMsgsSent
p591
(lp592
F456.0
aF465.1953125
aF475.0
assVtotalLoss
p593
F678649.31054347695
sValgorithm
p594
VHOGWILD
p595
sVregPenalty
p596
F204.91257017346271
sVroc
p597
F0.78226387351304039
sVmaxW
p598
F1.9208996595712176
sVnExamples
p599
I581012
sVruntimeMS
p600
I5584
sVparams
p601
(dp602
VpointCloudDim
p603
I10
sVinput
p604
V/user/root/bismarck_data/forest*
p605
sValgorithm
p606
VHOGWILD
p607
sVformat
p608
Vbismarck
p609
sVpointCloudSize
p610
F1.0
sVwikipediaTargetWordToken
p611
I4690
sVdblpSplitYear
p612
I2007
sVnumPartitions
p613
I128
sValgParams
p614
(dp615
VregParam
p616
F10.0
sVmaxIterations
p617
I1000
sVusePorkChop
p618
I00
sVtol
p619
F0.0
sVworkerTol
p620
F1.0000000000000001e-05
sVadaptiveRho
p621
I00
sVuseLBFGS
p622
I00
sVrho0
p623
F10.0
sVdisplayIncrementalStats
p624
I00
sVminiBatchSize
p625
I10
sVlocalTimeout
p626
I-1
sVmaxWorkerIterations
p627
I10
sVruntimeMS
p628
I5000
sVbroadcastDelayMS
p629
I10
sVeta0
p630
F1.0
sVlagrangianRho
p631
F10.0
sVuseLineSearch
p632
I00
ssVinputTokenHashKernelDimension
p633
I100
sVpointCloudPoints
p634
I10000
sVregType
p635
VL2
p636
sVuseLR
p637
I00
sVpointCloudNoise
p638
F0.20000000000000001
sVpointCloudSkew
p639
F0.0
ssViterations
p640
F159012.7734375
sVtrainingLoss
p641
F678444.39797330345
sVminW
p642
F-4.0452154476263136
sVtrainingError
p643
F0.30068053671869083
sa(dp644
VnDim
p645
I54
sVpr
p646
F0.7888080629636941
sg4
(dp647
g6
F1.0000000000000001e-05
sg7
I-1
sg8
I-1
sg9
g206
sg11
I10
sg12
I128
sg13
I4690
sg14
I2007
sg15
I100000000
sg16
g17
sg18
I100000
sg19
g20
sg21
S'cd /mnt/spark; sbin/stop-all.sh; sleep 5; sbin/start-all.sh; sleep 3;./bin/spark-submit --driver-memory 52g --class org.apache.spark.examples.mllib.research.SynchronousADMMTests examples/target/scala-*/spark-examples-*.jar --algorithm ADMM --regType L2 --regParam 10 --format bismarck --numPartitions 128 --runtimeMS 5000 --ADMMmaxLocalIterations 100000 --ADMMepsilon 0.0 --ADMMLocalepsilon 1e-05 --ADMMrho 10 --ADMMLagrangianrho 10 --broadcastDelayMs -1 --dblpSplitYear 2007 --wikipediaTargetWordToken 4690 --inputTokenHashKernelDimension 100 --localTimeout 100000000  --input /user/root/bismarck_data/forest*   '
p648
sg23
I10
sg24
F0.0
sg25
I100
sg26
g27
sg28
S'RESULT: {"trainingLoss": 339747.3386763199, "stats": {"dualAvgNorm": 0.0, "stats": {"avgDualUpdates": [3.0, 3.0, 3.0], "primalAvg": [-1.5148718280817055, -0.013034398080955611, 0.07609698201927452, 0.2664513682720884, 0.022108845257147448, 0.19838401026405109, 0.09707177413649322, 0.30479740744558864, -0.0035608599759946644, -0.018703335479083313, 0.2413785597975017, 0.18194217576669292, 0.16670409966522745, -0.9951683966790806, -0.14533939045080665, -0.42803343098196917, -0.20257583300707083, -0.4846765192929188, -0.10649288816665582, -0.02950715941118857, 0.2513679683931262, 0.12844162250326813, 0.06079686475948634, -0.10400818492141756, 0.011327132745335181, 0.09691728603559194, 0.10384426190747717, -0.1654721397147142, -0.006906403847011794, -0.02144246388553892, -0.18622682963110268, -0.001343553921728859, -0.03208544885579241, -0.03716697197076938, -0.06563020735158472, -0.1181971199935402, -0.09470300969478991, 0.026789889819606765, 0.10481173193379388, 0.04964949959189581, 3.174051457087939E-4, 0.29046516963059393, 0.16695967421832797, 0.0681569038498545, 0.0934139405768935, 0.23672843353544998, 0.12999848226277985, 0.13541536125856707, 0.003160397536688391, 0.0011106723123715983, 0.0030831284101352674, -0.03696991425460655, -0.05881862542341526, -0.012258362000282677], "dualAvg": [0.0, 0.0, 0.0, 0.0, 0.0, 0.0, 0.0, 0.0, 0.0, 0.0, 0.0, 0.0, 0.0, 0.0, 0.0, 0.0, 0.0, 0.0, 0.0, 0.0, 0.0, 0.0, 0.0, 0.0, 0.0, 0.0, 0.0, 0.0, 0.0, 0.0, 0.0, 0.0, 0.0, 0.0, 0.0, 0.0, 0.0, 0.0, 0.0, 0.0, 0.0, 0.0, 0.0, 0.0, 0.0, 0.0, 0.0, 0.0, 0.0, 0.0, 0.0, 0.0, 0.0, 0.0], "avgResidual": [4.8534704913364576E-6, 3.4819193921061415E-4, 0.008948024323879348], "avgMsgsSent": [0.0, 0.0, 0.0], "avgMsgsRcvd": [0.0, 0.0, 0.0], "avgLocalIters": [0.0, 0.0, 0.0], "avgSGDIters": [6898.0, 18078.875, 46500.0]}, "dualUpdates": [3.0, 3.0, 3.0], "primalAvgNorm": 2.135211602021078, "avgSGDIters": [6898.0, 18078.875, 46500.0], "iterations": 3, "runtime": 5122, "consensusNorm": 2.118659574098433}, "params": {"format": "bismarck", "algParams": {"usePorkChop": false, "lagrangianRho": 10.0, "rho0": 10.0, "maxWorkerIterations": 100000, "useLBFGS": false, "maxIterations": 1000, "eta0": 1.0, "runtimeMS": 5000, "adaptiveRho": false, "broadcastDelayMS": -1, "regParam": 10.0, "tol": 0.0, "displayIncrementalStats": false, "localTimeout": 100000000, "useLineSearch": false, "workerTol": 1.0E-5, "miniBatchSize": 10}, "wikipediaTargetWordToken": 4690, "dblpSplitYear": 2007, "regType": "L2", "algorithm": "ADMM", "inputTokenHashKernelDimension": 100, "useLR": false, "pointCloudPoints": 10000, "pointCloudDim": 10, "pointCloudSize": 1.0, "pointCloudSkew": 0.0, "input": "/user/root/bismarck_data/forest*", "numPartitions": 128, "pointCloudNoise": 0.2}, "nDim": 54, "algorithm": "ADMM", "pr": 0.7888080629636941, "totalLoss": 339769.7822682745, "nExamples": 581012, "runtimeMS": 5122, "regPenalty": 22.443591954594766, "trainingError": 0.23787116272985756, "maxW": 0.30243463684523525, "minW": -1.5031286356159559, "iterations": 3, "roc": 0.822189410498828}\n'
p649
sg30
I10
sg31
I-1
ssVstats
p650
(dp651
Vstats
p652
(dp653
VavgMsgsRcvd
p654
(lp655
F0.0
aF0.0
aF0.0
asVavgMsgsSent
p656
(lp657
F0.0
aF0.0
aF0.0
asVavgDualUpdates
p658
(lp659
F3.0
aF3.0
aF3.0
asVavgLocalIters
p660
(lp661
F0.0
aF0.0
aF0.0
asVavgResidual
p662
(lp663
F4.8534704913364576e-06
aF0.00034819193921061415
aF0.0089480243238793476
asVprimalAvg
p664
(lp665
F-1.5148718280817055
aF-0.013034398080955611
aF0.07609698201927452
aF0.26645136827208837
aF0.022108845257147448
aF0.19838401026405109
aF0.097071774136493219
aF0.30479740744558864
aF-0.0035608599759946644
aF-0.018703335479083313
aF0.2413785597975017
aF0.18194217576669292
aF0.16670409966522745
aF-0.99516839667908064
aF-0.14533939045080665
aF-0.42803343098196917
aF-0.20257583300707083
aF-0.48467651929291877
aF-0.10649288816665582
aF-0.029507159411188571
aF0.2513679683931262
aF0.12844162250326813
aF0.060796864759486341
aF-0.10400818492141756
aF0.011327132745335181
aF0.096917286035591937
aF0.10384426190747717
aF-0.16547213971471419
aF-0.0069064038470117942
aF-0.021442463885538918
aF-0.18622682963110268
aF-0.001343553921728859
aF-0.032085448855792412
aF-0.037166971970769382
aF-0.065630207351584716
aF-0.1181971199935402
aF-0.094703009694789911
aF0.026789889819606765
aF0.10481173193379388
aF0.04964949959189581
aF0.00031740514570879392
aF0.29046516963059393
aF0.16695967421832797
aF0.068156903849854497
aF0.093413940576893506
aF0.23672843353544998
aF0.12999848226277985
aF0.13541536125856707
aF0.0031603975366883909
aF0.0011106723123715983
aF0.0030831284101352674
aF-0.036969914254606551
aF-0.058818625423415261
aF-0.012258362000282677
asVdualAvg
p666
(lp667
F0.0
aF0.0
aF0.0
aF0.0
aF0.0
aF0.0
aF0.0
aF0.0
aF0.0
aF0.0
aF0.0
aF0.0
aF0.0
aF0.0
aF0.0
aF0.0
aF0.0
aF0.0
aF0.0
aF0.0
aF0.0
aF0.0
aF0.0
aF0.0
aF0.0
aF0.0
aF0.0
aF0.0
aF0.0
aF0.0
aF0.0
aF0.0
aF0.0
aF0.0
aF0.0
aF0.0
aF0.0
aF0.0
aF0.0
aF0.0
aF0.0
aF0.0
aF0.0
aF0.0
aF0.0
aF0.0
aF0.0
aF0.0
aF0.0
aF0.0
aF0.0
aF0.0
aF0.0
aF0.0
asVavgSGDIters
p668
(lp669
F6898.0
aF18078.875
aF46500.0
assVconsensusNorm
p670
F2.1186595740984329
sVdualUpdates
p671
(lp672
F3.0
aF3.0
aF3.0
asVdualAvgNorm
p673
F0.0
sVprimalAvgNorm
p674
F2.1352116020210778
sViterations
p675
I3
sVruntime
p676
I5122
sVavgSGDIters
p677
(lp678
F6898.0
aF18078.875
aF46500.0
assVtotalLoss
p679
F339769.78226827452
sValgorithm
p680
VADMM
p681
sVregPenalty
p682
F22.443591954594766
sVroc
p683
F0.82218941049882799
sVmaxW
p684
F0.30243463684523525
sVnExamples
p685
I581012
sVruntimeMS
p686
I5122
sVparams
p687
(dp688
VpointCloudDim
p689
I10
sVinput
p690
V/user/root/bismarck_data/forest*
p691
sValgorithm
p692
VADMM
p693
sVformat
p694
Vbismarck
p695
sVpointCloudSize
p696
F1.0
sVwikipediaTargetWordToken
p697
I4690
sVdblpSplitYear
p698
I2007
sVnumPartitions
p699
I128
sValgParams
p700
(dp701
VregParam
p702
F10.0
sVmaxIterations
p703
I1000
sVusePorkChop
p704
I00
sVtol
p705
F0.0
sVworkerTol
p706
F1.0000000000000001e-05
sVadaptiveRho
p707
I00
sVuseLBFGS
p708
I00
sVrho0
p709
F10.0
sVdisplayIncrementalStats
p710
I00
sVminiBatchSize
p711
I10
sVlocalTimeout
p712
I100000000
sVmaxWorkerIterations
p713
I100000
sVruntimeMS
p714
I5000
sVbroadcastDelayMS
p715
I-1
sVeta0
p716
F1.0
sVlagrangianRho
p717
F10.0
sVuseLineSearch
p718
I00
ssVinputTokenHashKernelDimension
p719
I100
sVpointCloudPoints
p720
I10000
sVregType
p721
VL2
p722
sVuseLR
p723
I00
sVpointCloudNoise
p724
F0.20000000000000001
sVpointCloudSkew
p725
F0.0
ssViterations
p726
I3
sVtrainingLoss
p727
F339747.33867631992
sVminW
p728
F-1.5031286356159559
sVtrainingError
p729
F0.23787116272985756
sa(dp730
VnDim
p731
I54
sVpr
p732
F0.78961574000469448
sg4
(dp733
g6
F0.001
sg7
I-1
sg8
I-1
sg9
g293
sg11
I10
sg12
I128
sg13
I4690
sg14
I2007
sg15
I500
sg16
g17
sg18
I100000000
sg19
g20
sg21
S'cd /mnt/spark; sbin/stop-all.sh; sleep 5; sbin/start-all.sh; sleep 3;./bin/spark-submit --driver-memory 52g --class org.apache.spark.examples.mllib.research.SynchronousADMMTests examples/target/scala-*/spark-examples-*.jar --algorithm MiniBatchADMM --regType L2 --regParam 10 --format bismarck --numPartitions 128 --runtimeMS 5000 --ADMMmaxLocalIterations 100000000 --ADMMepsilon 0.0 --ADMMLocalepsilon 0.001 --ADMMrho 10 --ADMMLagrangianrho 10 --broadcastDelayMs -1 --dblpSplitYear 2007 --wikipediaTargetWordToken 4690 --inputTokenHashKernelDimension 100 --localTimeout 500  --input /user/root/bismarck_data/forest*   '
p734
sg23
I10
sg24
F0.0
sg25
I100
sg26
g27
sg28
S'RESULT: {"trainingLoss": 340357.6670373157, "stats": {"dualAvgNorm": 0.0, "stats": {"avgDualUpdates": [9.0, 9.0, 9.0], "primalAvg": [-1.581643043117328, -0.0149087971782168, 0.09124704615347891, 0.27681043738659006, 0.019230509875308922, 0.17943058282299693, 0.0934493866020036, 0.3426159189307025, -0.01163581476056168, -0.013089601470784779, 0.24880972608578775, 0.18134913047511542, 0.18766869954348098, -1.0523601897623431, -0.1807740353324362, -0.44832585943118547, -0.21705482036123178, -0.49170284081675514, -0.145826190440533, -0.04840591059879831, 0.3763285380536246, 0.013555661966643137, 0.04352508540217588, -0.11561857005060316, 0.020649827927262245, 0.11783847381609582, 0.10798543405867989, -0.17032650197222995, -0.062282253962321184, 0.007533277046813744, -0.18348609725582854, -0.006150258730429328, -0.03496110620544141, -0.03926803088078737, -0.08151059249313386, -0.12031546760723123, -0.0925376295340428, 0.034657214375385, 0.08528800833103971, 0.0753004175069511, -0.0325534454726781, 0.25922228559031285, 0.1834393345173416, 0.07339012309990234, 0.09729993003418086, 0.24676226096164197, 0.14372570882496336, 0.13444856167204441, -0.036546422157473606, -0.015295071238843301, -0.019112309849614033, -0.048582584764507185, -0.07283881731448338, -0.015290105329124098], "dualAvg": [0.0, 0.0, 0.0, 0.0, 0.0, 0.0, 0.0, 0.0, 0.0, 0.0, 0.0, 0.0, 0.0, 0.0, 0.0, 0.0, 0.0, 0.0, 0.0, 0.0, 0.0, 0.0, 0.0, 0.0, 0.0, 0.0, 0.0, 0.0, 0.0, 0.0, 0.0, 0.0, 0.0, 0.0, 0.0, 0.0, 0.0, 0.0, 0.0, 0.0, 0.0, 0.0, 0.0, 0.0, 0.0, 0.0, 0.0, 0.0, 0.0, 0.0, 0.0, 0.0, 0.0, 0.0], "avgResidual": [7.245093965356067E-6, 3.715001923967794E-4, 0.011029889113251104], "avgMsgsSent": [0.0, 0.0, 0.0], "avgMsgsRcvd": [0.0, 0.0, 0.0], "avgLocalIters": [0.0, 0.0, 0.0], "avgSGDIters": [8.0, 3420.8515625, 22204.0]}, "dualUpdates": [9.0, 9.0, 9.0], "primalAvgNorm": 2.247644628047802, "avgSGDIters": [8.0, 3420.8515625, 22204.0], "iterations": 9, "runtime": 5102, "consensusNorm": 2.2302210262799904}, "params": {"format": "bismarck", "algParams": {"usePorkChop": false, "lagrangianRho": 10.0, "rho0": 10.0, "maxWorkerIterations": 100000000, "useLBFGS": false, "maxIterations": 1000, "eta0": 1.0, "runtimeMS": 5000, "adaptiveRho": false, "broadcastDelayMS": -1, "regParam": 10.0, "tol": 0.0, "displayIncrementalStats": false, "localTimeout": 500, "useLineSearch": false, "workerTol": 0.001, "miniBatchSize": 10}, "wikipediaTargetWordToken": 4690, "dblpSplitYear": 2007, "regType": "L2", "algorithm": "MiniBatchADMM", "inputTokenHashKernelDimension": 100, "useLR": false, "pointCloudPoints": 10000, "pointCloudDim": 10, "pointCloudSize": 1.0, "pointCloudSkew": 0.0, "input": "/user/root/bismarck_data/forest*", "numPartitions": 128, "pointCloudNoise": 0.2}, "nDim": 54, "algorithm": "MiniBatchADMM", "pr": 0.7896157400046945, "totalLoss": 340382.536466446, "nExamples": 581012, "runtimeMS": 5102, "regPenalty": 24.86942913030687, "trainingError": 0.2374856285240236, "maxW": 0.3734112625648368, "minW": -1.5693822443334728, "iterations": 9, "roc": 0.8231708371275576}\n'
p735
sg30
I10
sg31
I-1
ssVstats
p736
(dp737
Vstats
p738
(dp739
VavgMsgsRcvd
p740
(lp741
F0.0
aF0.0
aF0.0
asVavgMsgsSent
p742
(lp743
F0.0
aF0.0
aF0.0
asVavgDualUpdates
p744
(lp745
F9.0
aF9.0
aF9.0
asVavgLocalIters
p746
(lp747
F0.0
aF0.0
aF0.0
asVavgResidual
p748
(lp749
F7.2450939653560667e-06
aF0.00037150019239677942
aF0.011029889113251104
asVprimalAvg
p750
(lp751
F-1.5816430431173281
aF-0.0149087971782168
aF0.091247046153478908
aF0.27681043738659006
aF0.019230509875308922
aF0.17943058282299693
aF0.093449386602003595
aF0.34261591893070248
aF-0.011635814760561679
aF-0.013089601470784779
aF0.24880972608578775
aF0.18134913047511542
aF0.18766869954348098
aF-1.0523601897623431
aF-0.18077403533243619
aF-0.44832585943118547
aF-0.21705482036123178
aF-0.49170284081675514
aF-0.14582619044053299
aF-0.048405910598798313
aF0.37632853805362459
aF0.013555661966643137
aF0.043525085402175881
aF-0.11561857005060316
aF0.020649827927262245
aF0.11783847381609582
aF0.10798543405867989
aF-0.17032650197222995
aF-0.062282253962321184
aF0.0075332770468137444
aF-0.18348609725582854
aF-0.0061502587304293277
aF-0.034961106205441413
aF-0.039268030880787369
aF-0.08151059249313386
aF-0.12031546760723123
aF-0.092537629534042806
aF0.034657214375385
aF0.085288008331039708
aF0.075300417506951101
aF-0.032553445472678098
aF0.25922228559031285
aF0.1834393345173416
aF0.073390123099902338
aF0.097299930034180859
aF0.24676226096164197
aF0.14372570882496336
aF0.13444856167204441
aF-0.036546422157473606
aF-0.015295071238843301
aF-0.019112309849614033
aF-0.048582584764507185
aF-0.072838817314483384
aF-0.015290105329124098
asVdualAvg
p752
(lp753
F0.0
aF0.0
aF0.0
aF0.0
aF0.0
aF0.0
aF0.0
aF0.0
aF0.0
aF0.0
aF0.0
aF0.0
aF0.0
aF0.0
aF0.0
aF0.0
aF0.0
aF0.0
aF0.0
aF0.0
aF0.0
aF0.0
aF0.0
aF0.0
aF0.0
aF0.0
aF0.0
aF0.0
aF0.0
aF0.0
aF0.0
aF0.0
aF0.0
aF0.0
aF0.0
aF0.0
aF0.0
aF0.0
aF0.0
aF0.0
aF0.0
aF0.0
aF0.0
aF0.0
aF0.0
aF0.0
aF0.0
aF0.0
aF0.0
aF0.0
aF0.0
aF0.0
aF0.0
aF0.0
asVavgSGDIters
p754
(lp755
F8.0
aF3420.8515625
aF22204.0
assVconsensusNorm
p756
F2.2302210262799904
sVdualUpdates
p757
(lp758
F9.0
aF9.0
aF9.0
asVdualAvgNorm
p759
F0.0
sVprimalAvgNorm
p760
F2.247644628047802
sViterations
p761
I9
sVruntime
p762
I5102
sVavgSGDIters
p763
(lp764
F8.0
aF3420.8515625
aF22204.0
assVtotalLoss
p765
F340382.53646644601
sValgorithm
p766
VMiniBatchADMM
p767
sVregPenalty
p768
F24.86942913030687
sVroc
p769
F0.82317083712755756
sVmaxW
p770
F0.37341126256483681
sVnExamples
p771
I581012
sVruntimeMS
p772
I5102
sVparams
p773
(dp774
VpointCloudDim
p775
I10
sVinput
p776
V/user/root/bismarck_data/forest*
p777
sValgorithm
p778
VMiniBatchADMM
p779
sVformat
p780
Vbismarck
p781
sVpointCloudSize
p782
F1.0
sVwikipediaTargetWordToken
p783
I4690
sVdblpSplitYear
p784
I2007
sVnumPartitions
p785
I128
sValgParams
p786
(dp787
VregParam
p788
F10.0
sVmaxIterations
p789
I1000
sVusePorkChop
p790
I00
sVtol
p791
F0.0
sVworkerTol
p792
F0.001
sVadaptiveRho
p793
I00
sVuseLBFGS
p794
I00
sVrho0
p795
F10.0
sVdisplayIncrementalStats
p796
I00
sVminiBatchSize
p797
I10
sVlocalTimeout
p798
I500
sVmaxWorkerIterations
p799
I100000000
sVruntimeMS
p800
I5000
sVbroadcastDelayMS
p801
I-1
sVeta0
p802
F1.0
sVlagrangianRho
p803
F10.0
sVuseLineSearch
p804
I00
ssVinputTokenHashKernelDimension
p805
I100
sVpointCloudPoints
p806
I10000
sVregType
p807
VL2
p808
sVuseLR
p809
I00
sVpointCloudNoise
p810
F0.20000000000000001
sVpointCloudSkew
p811
F0.0
ssViterations
p812
I9
sVtrainingLoss
p813
F340357.66703731572
sVminW
p814
F-1.5693822443334728
sVtrainingError
p815
F0.23748562852402361
sa(dp816
VnDim
p817
I54
sVpr
p818
F0.78845800902500163
sg4
(dp819
g6
F1.0000000000000001e-05
sg7
I100
sg8
I-1
sg9
g380
sg11
I10
sg12
I128
sg13
I4690
sg14
I2007
sg15
I500
sg16
g17
sg18
I100000
sg19
g20
sg21
S'cd /mnt/spark; sbin/stop-all.sh; sleep 5; sbin/start-all.sh; sleep 3;./bin/spark-submit --driver-memory 52g --class org.apache.spark.examples.mllib.research.SynchronousADMMTests examples/target/scala-*/spark-examples-*.jar --algorithm AsyncADMM --regType L2 --regParam 10 --format bismarck --numPartitions 128 --runtimeMS 5000 --ADMMmaxLocalIterations 100000 --ADMMepsilon 0.0 --ADMMLocalepsilon 1e-05 --ADMMrho 10 --ADMMLagrangianrho 10 --broadcastDelayMs 100 --dblpSplitYear 2007 --wikipediaTargetWordToken 4690 --inputTokenHashKernelDimension 100 --localTimeout 500  --input /user/root/bismarck_data/forest*   '
p820
sg23
I10
sg24
F0.0
sg25
I100
sg26
g27
sg28
S'RESULT: {"trainingLoss": 341323.47021632525, "stats": {"dualAvgNorm": 0.0, "stats": {"avgDualUpdates": [3.0, 8.140625, 14.0], "primalAvg": [-1.349399356023759, -0.013198639449177891, 0.07034218553285847, 0.23189069195295767, 0.022177346245788244, 0.1720091388814733, 0.0872599941817481, 0.27371404826281565, -0.001795953019269087, -0.01599399644657091, 0.21005249280592275, 0.1565548470360301, 0.15284601680943746, -0.8802035001290955, -0.135063171557535, -0.37985646614675544, -0.18223319143941596, -0.43057686005041124, -0.10223472958581971, -0.027546009526280998, 0.2811224199047056, 0.144618052049213, 0.06841957440569076, -0.0925885466207152, 0.011414041742711304, 0.09504111525825176, 0.08971036002607861, -0.16364029227336913, 6.552348090170289E-4, -0.014420777630243091, -0.1651918759129622, 6.157308881677455E-4, -0.030623452080694356, -0.03463651383579917, -0.07486297027463325, -0.10379223157834955, -0.07836571403981919, 0.023800729896522762, 0.09625116197731745, 0.044371370533573276, 0.0016476029657476522, 0.2707273404783906, 0.1459289632666306, 0.06458804830794383, 0.0793116057319884, 0.2101101247375908, 0.1138696381669895, 0.12926561638602585, -0.02005714956571458, -0.0322815806100582, -0.0399089608427066, -0.035754787007769136, -0.05357514568898763, -0.00986844046571282], "dualAvg": [0.0, 0.0, 0.0, 0.0, 0.0, 0.0, 0.0, 0.0, 0.0, 0.0, 0.0, 0.0, 0.0, 0.0, 0.0, 0.0, 0.0, 0.0, 0.0, 0.0, 0.0, 0.0, 0.0, 0.0, 0.0, 0.0, 0.0, 0.0, 0.0, 0.0, 0.0, 0.0, 0.0, 0.0, 0.0, 0.0, 0.0, 0.0, 0.0, 0.0, 0.0, 0.0, 0.0, 0.0, 0.0, 0.0, 0.0, 0.0, 0.0, 0.0, 0.0, 0.0, 0.0, 0.0], "avgResidual": [0.0, 0.0, 0.0], "avgMsgsSent": [3.0, 8.140625, 14.0], "avgMsgsRcvd": [41.0, 54.859375, 75.0], "avgLocalIters": [3.0, 8.140625, 14.0], "avgSGDIters": [0.0, 13378.6015625, 100000.0]}, "iterInterval": [3.0, 8.140625, 14.0], "avgMsgsSent": [3.0, 8.140625, 14.0], "dualUpdates": [3.0, 8.140625, 14.0], "avgMsgsRcvd": [41.0, 54.859375, 75.0], "primalAvgNorm": 1.912863038733517, "avgSGDIters": [0.0, 13378.6015625, 100000.0], "iterations": 8.140625, "runtime": 5214, "consensusNorm": 1.89803464308442}, "params": {"format": "bismarck", "algParams": {"usePorkChop": false, "lagrangianRho": 10.0, "rho0": 10.0, "maxWorkerIterations": 100000, "useLBFGS": false, "maxIterations": 1000, "eta0": 1.0, "runtimeMS": 5000, "adaptiveRho": false, "broadcastDelayMS": 100, "regParam": 10.0, "tol": 0.0, "displayIncrementalStats": false, "localTimeout": 500, "useLineSearch": false, "workerTol": 1.0E-5, "miniBatchSize": 10}, "wikipediaTargetWordToken": 4690, "dblpSplitYear": 2007, "regType": "L2", "algorithm": "AsyncADMM", "inputTokenHashKernelDimension": 100, "useLR": false, "pointCloudPoints": 10000, "pointCloudDim": 10, "pointCloudSize": 1.0, "pointCloudSkew": 0.0, "input": "/user/root/bismarck_data/forest*", "numPartitions": 128, "pointCloudNoise": 0.2}, "nDim": 54, "algorithm": "AsyncADMM", "pr": 0.7884580090250016, "totalLoss": 341341.482893857, "nExamples": 581012, "runtimeMS": 5214, "regPenalty": 18.012677531743005, "trainingError": 0.23750111873765087, "maxW": 0.27894317633955285, "minW": -1.3389388958995436, "iterations": 8.140625, "roc": 0.8223736423811983}\n'
p821
sg30
I10
sg31
I-1
ssVstats
p822
(dp823
Vstats
p824
(dp825
VavgMsgsRcvd
p826
(lp827
F41.0
aF54.859375
aF75.0
asVavgMsgsSent
p828
(lp829
F3.0
aF8.140625
aF14.0
asVavgDualUpdates
p830
(lp831
F3.0
aF8.140625
aF14.0
asVavgLocalIters
p832
(lp833
F3.0
aF8.140625
aF14.0
asVavgResidual
p834
(lp835
F0.0
aF0.0
aF0.0
asVprimalAvg
p836
(lp837
F-1.3493993560237589
aF-0.013198639449177891
aF0.070342185532858467
aF0.23189069195295767
aF0.022177346245788244
aF0.17200913888147329
aF0.087259994181748096
aF0.27371404826281565
aF-0.0017959530192690871
aF-0.015993996446570909
aF0.21005249280592275
aF0.15655484703603009
aF0.15284601680943746
aF-0.88020350012909554
aF-0.135063171557535
aF-0.37985646614675544
aF-0.18223319143941596
aF-0.43057686005041124
aF-0.10223472958581971
aF-0.027546009526280998
aF0.2811224199047056
aF0.14461805204921299
aF0.068419574405690756
aF-0.092588546620715195
aF0.011414041742711304
aF0.095041115258251763
aF0.089710360026078614
aF-0.16364029227336913
aF0.00065523480901702891
aF-0.014420777630243091
aF-0.16519187591296219
aF0.0006157308881677455
aF-0.030623452080694356
aF-0.034636513835799167
aF-0.074862970274633248
aF-0.10379223157834955
aF-0.078365714039819193
aF0.023800729896522762
aF0.096251161977317451
aF0.044371370533573276
aF0.0016476029657476522
aF0.27072734047839059
aF0.1459289632666306
aF0.064588048307943832
aF0.079311605731988394
aF0.2101101247375908
aF0.1138696381669895
aF0.12926561638602585
aF-0.020057149565714579
aF-0.032281580610058203
aF-0.039908960842706599
aF-0.035754787007769136
aF-0.053575145688987628
aF-0.0098684404657128199
asVdualAvg
p838
(lp839
F0.0
aF0.0
aF0.0
aF0.0
aF0.0
aF0.0
aF0.0
aF0.0
aF0.0
aF0.0
aF0.0
aF0.0
aF0.0
aF0.0
aF0.0
aF0.0
aF0.0
aF0.0
aF0.0
aF0.0
aF0.0
aF0.0
aF0.0
aF0.0
aF0.0
aF0.0
aF0.0
aF0.0
aF0.0
aF0.0
aF0.0
aF0.0
aF0.0
aF0.0
aF0.0
aF0.0
aF0.0
aF0.0
aF0.0
aF0.0
aF0.0
aF0.0
aF0.0
aF0.0
aF0.0
aF0.0
aF0.0
aF0.0
aF0.0
aF0.0
aF0.0
aF0.0
aF0.0
aF0.0
asVavgSGDIters
p840
(lp841
F0.0
aF13378.6015625
aF100000.0
assVconsensusNorm
p842
F1.8980346430844199
sVavgMsgsRcvd
p843
(lp844
F41.0
aF54.859375
aF75.0
asVavgMsgsSent
p845
(lp846
F3.0
aF8.140625
aF14.0
asVdualUpdates
p847
(lp848
F3.0
aF8.140625
aF14.0
asVdualAvgNorm
p849
F0.0
sVprimalAvgNorm
p850
F1.912863038733517
sViterInterval
p851
(lp852
F3.0
aF8.140625
aF14.0
asViterations
p853
F8.140625
sVruntime
p854
I5214
sVavgSGDIters
p855
(lp856
F0.0
aF13378.6015625
aF100000.0
assVtotalLoss
p857
F341341.482893857
sValgorithm
p858
VAsyncADMM
p859
sVregPenalty
p860
F18.012677531743005
sVroc
p861
F0.82237364238119826
sVmaxW
p862
F0.27894317633955285
sVnExamples
p863
I581012
sVruntimeMS
p864
I5214
sVparams
p865
(dp866
VpointCloudDim
p867
I10
sVinput
p868
V/user/root/bismarck_data/forest*
p869
sValgorithm
p870
VAsyncADMM
p871
sVformat
p872
Vbismarck
p873
sVpointCloudSize
p874
F1.0
sVwikipediaTargetWordToken
p875
I4690
sVdblpSplitYear
p876
I2007
sVnumPartitions
p877
I128
sValgParams
p878
(dp879
VregParam
p880
F10.0
sVmaxIterations
p881
I1000
sVusePorkChop
p882
I00
sVtol
p883
F0.0
sVworkerTol
p884
F1.0000000000000001e-05
sVadaptiveRho
p885
I00
sVuseLBFGS
p886
I00
sVrho0
p887
F10.0
sVdisplayIncrementalStats
p888
I00
sVminiBatchSize
p889
I10
sVlocalTimeout
p890
I500
sVmaxWorkerIterations
p891
I100000
sVruntimeMS
p892
I5000
sVbroadcastDelayMS
p893
I100
sVeta0
p894
F1.0
sVlagrangianRho
p895
F10.0
sVuseLineSearch
p896
I00
ssVinputTokenHashKernelDimension
p897
I100
sVpointCloudPoints
p898
I10000
sVregType
p899
VL2
p900
sVuseLR
p901
I00
sVpointCloudNoise
p902
F0.20000000000000001
sVpointCloudSkew
p903
F0.0
ssViterations
p904
F8.140625
sVtrainingLoss
p905
F341323.47021632525
sVminW
p906
F-1.3389388958995436
sVtrainingError
p907
F0.23750111873765087
sa(dp908
VnDim
p909
I54
sVpr
p910
F0.78825502626256361
sg4
(dp911
g6
F0.001
sg7
I10
sg8
I-1
sg9
g10
sg11
I10
sg12
I128
sg13
I4690
sg14
I2007
sg15
I-1
sg16
g17
sg18
I100000
sg19
g20
sg21
S'cd /mnt/spark; sbin/stop-all.sh; sleep 5; sbin/start-all.sh; sleep 3;./bin/spark-submit --driver-memory 52g --class org.apache.spark.examples.mllib.research.SynchronousADMMTests examples/target/scala-*/spark-examples-*.jar --algorithm PORKCHOP --regType L2 --regParam 10 --format bismarck --numPartitions 128 --runtimeMS 10000 --ADMMmaxLocalIterations 100000 --ADMMepsilon 0.0 --ADMMLocalepsilon 0.001 --ADMMrho 10 --ADMMLagrangianrho 10 --broadcastDelayMs 10 --dblpSplitYear 2007 --wikipediaTargetWordToken 4690 --inputTokenHashKernelDimension 100 --localTimeout -1  --input /user/root/bismarck_data/forest*   '
p912
sg23
I10
sg24
F0.0
sg25
I100
sg26
g27
sg28
S'RESULT: {"trainingLoss": 342225.6397216278, "stats": {"dualAvgNorm": 3.0489211030084964, "stats": {"avgDualUpdates": [67.0, 129.046875, 197.0], "primalAvg": [-1.5474486186812917, -0.019429304457582557, 0.08251309515726293, 0.2711900507589992, 0.022208135297698994, 0.19010652919560325, 0.08657068036871575, 0.32220095976854846, -0.02021876766927433, -0.01843309269301088, 0.24334363598744907, 0.18541758759152138, 0.1693457480021272, -1.0076022761615326, -0.19663292885037367, -0.4280743310103944, -0.20290140454763603, -0.49663259979549773, -0.13592803646743565, -0.03879870531306904, 1.1369782224167193, 0.12877513966125126, -0.0012539180482690525, -0.10712426885415864, 0.013219601469649685, 0.10845037398887417, 0.10687597312180273, -0.19146837673046407, 0.13909124163566464, -0.010951130171424402, -0.1814345918211085, -0.02111913984423512, -0.04072128671958899, -0.047800466281803324, -0.08554969885101876, -0.11433619139898145, -0.08629879256236789, 0.028335504999674486, 0.10821417264911787, 0.04474334558617384, 0.007533130905232222, 0.27816782929200834, 0.16617604228454025, 0.07054442337136495, 0.09322425266145687, 0.24597452538811673, 0.13581939371151158, 0.09087036478191837, -0.03285901474531881, -0.03570028741428764, -0.05568367315306241, -0.040915538434576744, -0.06164681122815198, -0.01886902223097332], "dualAvg": [-1.8970259344199356, -0.060095486025810996, 0.13197675983000887, 0.3461862185429486, 2.634857745078545E-4, 0.22746187840239593, 0.11472088202448291, 0.37466894638689574, -0.018134030831492953, -0.03706145962057773, 0.2997406393875487, 0.20976387069314711, 0.22985911068422657, -1.2674690892576688, -0.14858432695365797, -0.5474305952188051, -0.2834731582753052, -0.5832354043672214, -0.3017159384706718, -0.046003575769936494, 1.434568021727301, 0.1145233709687421, 0.005436381996918926, -0.1348725826309855, 0.04230450831460408, 0.14282391468159883, 0.13979552718250252, -0.2525768472547039, 0.18851137171755247, -0.05058003259656753, -0.23035880453658594, -0.04169648701766447, -0.03177284355531651, -0.08687094159447613, -0.09241552730600719, -0.1360216129518163, -0.14052193349420267, 0.03972296037925799, -0.004929816717488211, 0.088613263967188, -0.04778787321786565, 0.3115620384070183, 0.2367708723420162, 0.08551713417208485, 0.1041117857540837, 0.29609981048672784, 0.1992735169041562, 0.1884601960161193, -0.05935573058838266, -0.10780426093391597, -0.06415432011307581, -0.04364265560502026, -0.08161128727726956, -0.06271180742870014], "avgResidual": [0.0, 0.0, 0.0], "avgMsgsSent": [0.0, 0.0, 0.0], "avgMsgsRcvd": [672.0, 826.578125, 998.0], "avgLocalIters": [67.0, 129.046875, 197.0], "avgSGDIters": [100.0, 5163.4453125, 27200.0]}, "iterInterval": [67.0, 129.046875, 197.0], "avgMsgsSent": [0.0, 0.0, 0.0], "dualUpdates": [67.0, 129.046875, 197.0], "avgMsgsRcvd": [672.0, 826.578125, 998.0], "primalAvgNorm": 2.447119941695383, "avgSGDIters": [100.0, 5163.4453125, 27200.0], "iterations": 129.046875, "runtime": 10208, "consensusNorm": 2.729495274983657}, "params": {"format": "bismarck", "algParams": {"usePorkChop": true, "lagrangianRho": 10.0, "rho0": 10.0, "maxWorkerIterations": 100000, "useLBFGS": false, "maxIterations": 1000, "eta0": 1.0, "runtimeMS": 10000, "adaptiveRho": false, "broadcastDelayMS": 10, "regParam": 10.0, "tol": 0.0, "displayIncrementalStats": false, "localTimeout": -1, "useLineSearch": false, "workerTol": 0.001, "miniBatchSize": 10}, "wikipediaTargetWordToken": 4690, "dblpSplitYear": 2007, "regType": "L2", "algorithm": "PORKCHOP", "inputTokenHashKernelDimension": 100, "useLR": false, "pointCloudPoints": 10000, "pointCloudDim": 10, "pointCloudSize": 1.0, "pointCloudSkew": 0.0, "input": "/user/root/bismarck_data/forest*", "numPartitions": 128, "pointCloudNoise": 0.2}, "nDim": 54, "algorithm": "PORKCHOP", "pr": 0.7882550262625636, "totalLoss": 342262.8904439086, "nExamples": 581012, "runtimeMS": 10208, "regPenalty": 37.250722280790555, "trainingError": 0.23779887506626368, "maxW": 1.2705091716856551, "minW": -1.7236849236572134, "iterations": 129.046875, "roc": 0.8227351438587565}\n'
p913
sg30
I10
sg31
I-1
ssVstats
p914
(dp915
Vstats
p916
(dp917
VavgMsgsRcvd
p918
(lp919
F672.0
aF826.578125
aF998.0
asVavgMsgsSent
p920
(lp921
F0.0
aF0.0
aF0.0
asVavgDualUpdates
p922
(lp923
F67.0
aF129.046875
aF197.0
asVavgLocalIters
p924
(lp925
F67.0
aF129.046875
aF197.0
asVavgResidual
p926
(lp927
F0.0
aF0.0
aF0.0
asVprimalAvg
p928
(lp929
F-1.5474486186812917
aF-0.019429304457582557
aF0.082513095157262933
aF0.27119005075899921
aF0.022208135297698994
aF0.19010652919560325
aF0.086570680368715749
aF0.32220095976854846
aF-0.020218767669274329
aF-0.018433092693010879
aF0.24334363598744907
aF0.18541758759152138
aF0.16934574800212721
aF-1.0076022761615326
aF-0.19663292885037367
aF-0.42807433101039438
aF-0.20290140454763603
aF-0.49663259979549773
aF-0.13592803646743565
aF-0.038798705313069039
aF1.1369782224167193
aF0.12877513966125126
aF-0.0012539180482690525
aF-0.10712426885415864
aF0.013219601469649685
aF0.10845037398887417
aF0.10687597312180273
aF-0.19146837673046407
aF0.13909124163566464
aF-0.010951130171424402
aF-0.18143459182110849
aF-0.021119139844235121
aF-0.040721286719588988
aF-0.047800466281803324
aF-0.085549698851018763
aF-0.11433619139898145
aF-0.086298792562367888
aF0.028335504999674486
aF0.10821417264911787
aF0.044743345586173842
aF0.0075331309052322224
aF0.27816782929200834
aF0.16617604228454025
aF0.070544423371364948
aF0.093224252661456869
aF0.24597452538811673
aF0.13581939371151158
aF0.090870364781918372
aF-0.032859014745318813
aF-0.035700287414287643
aF-0.055683673153062413
aF-0.040915538434576744
aF-0.061646811228151979
aF-0.01886902223097332
asVdualAvg
p930
(lp931
F-1.8970259344199356
aF-0.060095486025810996
aF0.13197675983000887
aF0.34618621854294862
aF0.00026348577450785449
aF0.22746187840239593
aF0.11472088202448291
aF0.37466894638689574
aF-0.018134030831492953
aF-0.037061459620577733
aF0.29974063938754869
aF0.20976387069314711
aF0.22985911068422657
aF-1.2674690892576688
aF-0.14858432695365797
aF-0.5474305952188051
aF-0.28347315827530523
aF-0.58323540436722143
aF-0.3017159384706718
aF-0.046003575769936494
aF1.4345680217273009
aF0.1145233709687421
aF0.0054363819969189264
aF-0.1348725826309855
aF0.042304508314604083
aF0.14282391468159883
aF0.13979552718250252
aF-0.25257684725470392
aF0.18851137171755247
aF-0.050580032596567528
aF-0.23035880453658594
aF-0.041696487017664471
aF-0.03177284355531651
aF-0.086870941594476128
aF-0.092415527306007189
aF-0.13602161295181631
aF-0.14052193349420267
aF0.039722960379257988
aF-0.0049298167174882113
aF0.088613263967187994
aF-0.047787873217865651
aF0.31156203840701829
aF0.23677087234201619
aF0.085517134172084855
aF0.1041117857540837
aF0.29609981048672784
aF0.19927351690415621
aF0.1884601960161193
aF-0.059355730588382657
aF-0.10780426093391597
aF-0.064154320113075813
aF-0.043642655605020259
aF-0.081611287277269559
aF-0.062711807428700139
asVavgSGDIters
p932
(lp933
F100.0
aF5163.4453125
aF27200.0
assVconsensusNorm
p934
F2.7294952749836572
sVavgMsgsRcvd
p935
(lp936
F672.0
aF826.578125
aF998.0
asVavgMsgsSent
p937
(lp938
F0.0
aF0.0
aF0.0
asVdualUpdates
p939
(lp940
F67.0
aF129.046875
aF197.0
asVdualAvgNorm
p941
F3.0489211030084964
sVprimalAvgNorm
p942
F2.4471199416953828
sViterInterval
p943
(lp944
F67.0
aF129.046875
aF197.0
asViterations
p945
F129.046875
sVruntime
p946
I10208
sVavgSGDIters
p947
(lp948
F100.0
aF5163.4453125
aF27200.0
assVtotalLoss
p949
F342262.89044390857
sValgorithm
p950
VPORKCHOP
p951
sVregPenalty
p952
F37.250722280790555
sVroc
p953
F0.82273514385875646
sVmaxW
p954
F1.2705091716856551
sVnExamples
p955
I581012
sVruntimeMS
p956
I10208
sVparams
p957
(dp958
VpointCloudDim
p959
I10
sVinput
p960
V/user/root/bismarck_data/forest*
p961
sValgorithm
p962
VPORKCHOP
p963
sVformat
p964
Vbismarck
p965
sVpointCloudSize
p966
F1.0
sVwikipediaTargetWordToken
p967
I4690
sVdblpSplitYear
p968
I2007
sVnumPartitions
p969
I128
sValgParams
p970
(dp971
VregParam
p972
F10.0
sVmaxIterations
p973
I1000
sVusePorkChop
p974
I01
sVtol
p975
F0.0
sVworkerTol
p976
F0.001
sVadaptiveRho
p977
I00
sVuseLBFGS
p978
I00
sVrho0
p979
F10.0
sVdisplayIncrementalStats
p980
I00
sVminiBatchSize
p981
I10
sVlocalTimeout
p982
I-1
sVmaxWorkerIterations
p983
I100000
sVruntimeMS
p984
I10000
sVbroadcastDelayMS
p985
I10
sVeta0
p986
F1.0
sVlagrangianRho
p987
F10.0
sVuseLineSearch
p988
I00
ssVinputTokenHashKernelDimension
p989
I100
sVpointCloudPoints
p990
I10000
sVregType
p991
VL2
p992
sVuseLR
p993
I00
sVpointCloudNoise
p994
F0.20000000000000001
sVpointCloudSkew
p995
F0.0
ssViterations
p996
F129.046875
sVtrainingLoss
p997
F342225.63972162781
sVminW
p998
F-1.7236849236572134
sVtrainingError
p999
F0.23779887506626368
sa(dp1000
VnDim
p1001
I54
sVpr
p1002
F0.78696718950355693
sg4
(dp1003
g6
F1.0000000000000001e-05
sg7
I10
sg8
I-1
sg9
g122
sg11
I10
sg12
I128
sg13
I4690
sg14
I2007
sg15
I-1
sg16
g17
sg18
I10
sg19
g20
sg21
S'cd /mnt/spark; sbin/stop-all.sh; sleep 5; sbin/start-all.sh; sleep 3;./bin/spark-submit --driver-memory 52g --class org.apache.spark.examples.mllib.research.SynchronousADMMTests examples/target/scala-*/spark-examples-*.jar --algorithm HOGWILD --regType L2 --regParam 10 --format bismarck --numPartitions 128 --runtimeMS 10000 --ADMMmaxLocalIterations 10 --ADMMepsilon 0.0 --ADMMLocalepsilon 1e-05 --ADMMrho 10 --ADMMLagrangianrho 10 --broadcastDelayMs 10 --dblpSplitYear 2007 --wikipediaTargetWordToken 4690 --inputTokenHashKernelDimension 100 --localTimeout -1  --input /user/root/bismarck_data/forest*   '
p1004
sg23
I10
sg24
F0.0
sg25
I100
sg26
g27
sg28
S'RESULT: {"trainingLoss": 440896.6126801081, "stats": {"stats": {"avgDualUpdates": [0.0, 0.0, 0.0], "primalAvg": [-3.5745922351372124, -0.08374891721260905, 0.29842425375440523, 0.7318816189273032, 0.13547042154530461, 0.2860457767652362, 0.10195146527430299, 1.070415072477779, -0.02851331673881443, 0.11665678936602085, 0.1253879002262304, 0.6024441875784088, 0.6642938668705695, -2.0997940724326356, -0.6620917280590907, -1.0322220646291331, -0.5339748231641387, -1.0792571555730766, -0.5308786278847515, -0.09737217594734764, 1.567682115735922, 0.2121339841678344, 1.6163910292799934E-5, -0.4303504064737909, -0.0595027371657252, 0.5053313575050893, 0.2649974663881911, -0.5368773564498784, -0.15819890874690754, -0.015395560769808064, -0.3992164667551646, -0.04240684181821289, -0.07229773676282712, -0.11204823581459869, -0.2275221079188787, -0.15253613811403371, -0.07248925618544995, 0.1267503664607017, 0.10008032805047179, 0.09336925537915582, -0.04046264042761586, 0.6824738589191087, 0.5920864665850798, 0.2787979362947254, 0.1949216499616776, 0.5023611216610522, 0.349967578803937, 0.24768775786339148, -0.18123774416873115, -0.027662985655721832, -0.18794620978000237, -0.3514308481104934, -0.4290904149810249, -0.21733881776851705], "dualAvg": [0.0, 0.0, 0.0, 0.0, 0.0, 0.0, 0.0, 0.0, 0.0, 0.0, 0.0, 0.0, 0.0, 0.0, 0.0, 0.0, 0.0, 0.0, 0.0, 0.0, 0.0, 0.0, 0.0, 0.0, 0.0, 0.0, 0.0, 0.0, 0.0, 0.0, 0.0, 0.0, 0.0, 0.0, 0.0, 0.0, 0.0, 0.0, 0.0, 0.0, 0.0, 0.0, 0.0, 0.0, 0.0, 0.0, 0.0, 0.0, 0.0, 0.0, 0.0, 0.0, 0.0, 0.0], "avgResidual": [0.0, 0.0, 0.0], "avgMsgsSent": [893.0, 909.4609375, 921.0], "avgMsgsRcvd": [6296.0, 6366.2265625, 6408.0], "avgLocalIters": [406515.0, 516344.390625, 602477.0], "avgSGDIters": [0.0, 0.0, 0.0]}, "avgMsgsSent": [893.0, 909.4609375, 921.0], "avgMsgsRcvd": [6296.0, 6366.2265625, 6408.0], "iterations": 516344.390625, "runtime": 10511}, "params": {"format": "bismarck", "algParams": {"usePorkChop": false, "lagrangianRho": 10.0, "rho0": 10.0, "maxWorkerIterations": 10, "useLBFGS": false, "maxIterations": 1000, "eta0": 1.0, "runtimeMS": 10000, "adaptiveRho": false, "broadcastDelayMS": 10, "regParam": 10.0, "tol": 0.0, "displayIncrementalStats": false, "localTimeout": -1, "useLineSearch": false, "workerTol": 1.0E-5, "miniBatchSize": 10}, "wikipediaTargetWordToken": 4690, "dblpSplitYear": 2007, "regType": "L2", "algorithm": "HOGWILD", "inputTokenHashKernelDimension": 100, "useLR": false, "pointCloudPoints": 10000, "pointCloudDim": 10, "pointCloudSize": 1.0, "pointCloudSkew": 0.0, "input": "/user/root/bismarck_data/forest*", "numPartitions": 128, "pointCloudNoise": 0.2}, "nDim": 54, "algorithm": "HOGWILD", "pr": 0.7869671895035569, "totalLoss": 441039.47548112314, "nExamples": 581012, "runtimeMS": 10511, "regPenalty": 142.8628010150141, "trainingError": 0.24873496588710733, "maxW": 1.567682115735922, "minW": -3.5745922351372124, "iterations": 516344.390625, "roc": 0.8200954614045207}\n'
p1005
sg30
I10
sg31
I-1
ssVstats
p1006
(dp1007
Vruntime
p1008
I10511
sVstats
p1009
(dp1010
VavgMsgsRcvd
p1011
(lp1012
F6296.0
aF6366.2265625
aF6408.0
asVavgMsgsSent
p1013
(lp1014
F893.0
aF909.4609375
aF921.0
asVavgDualUpdates
p1015
(lp1016
F0.0
aF0.0
aF0.0
asVavgLocalIters
p1017
(lp1018
F406515.0
aF516344.390625
aF602477.0
asVavgResidual
p1019
(lp1020
F0.0
aF0.0
aF0.0
asVprimalAvg
p1021
(lp1022
F-3.5745922351372124
aF-0.083748917212609048
aF0.29842425375440523
aF0.73188161892730319
aF0.13547042154530461
aF0.28604577676523618
aF0.10195146527430299
aF1.070415072477779
aF-0.02851331673881443
aF0.11665678936602085
aF0.12538790022623039
aF0.60244418757840879
aF0.66429386687056946
aF-2.0997940724326356
aF-0.66209172805909067
aF-1.0322220646291331
aF-0.53397482316413869
aF-1.0792571555730766
aF-0.53087862788475149
aF-0.097372175947347636
aF1.567682115735922
aF0.21213398416783441
aF1.6163910292799934e-05
aF-0.43035040647379091
aF-0.059502737165725197
aF0.50533135750508928
aF0.26499746638819111
aF-0.53687735644987844
aF-0.15819890874690754
aF-0.015395560769808064
aF-0.39921646675516459
aF-0.042406841818212887
aF-0.072297736762827122
aF-0.11204823581459869
aF-0.2275221079188787
aF-0.15253613811403371
aF-0.072489256185449949
aF0.1267503664607017
aF0.10008032805047179
aF0.093369255379155816
aF-0.04046264042761586
aF0.68247385891910872
aF0.5920864665850798
aF0.27879793629472538
aF0.1949216499616776
aF0.50236112166105218
aF0.34996757880393697
aF0.24768775786339148
aF-0.18123774416873115
aF-0.027662985655721832
aF-0.18794620978000237
aF-0.35143084811049341
aF-0.4290904149810249
aF-0.21733881776851705
asVdualAvg
p1023
(lp1024
F0.0
aF0.0
aF0.0
aF0.0
aF0.0
aF0.0
aF0.0
aF0.0
aF0.0
aF0.0
aF0.0
aF0.0
aF0.0
aF0.0
aF0.0
aF0.0
aF0.0
aF0.0
aF0.0
aF0.0
aF0.0
aF0.0
aF0.0
aF0.0
aF0.0
aF0.0
aF0.0
aF0.0
aF0.0
aF0.0
aF0.0
aF0.0
aF0.0
aF0.0
aF0.0
aF0.0
aF0.0
aF0.0
aF0.0
aF0.0
aF0.0
aF0.0
aF0.0
aF0.0
aF0.0
aF0.0
aF0.0
aF0.0
aF0.0
aF0.0
aF0.0
aF0.0
aF0.0
aF0.0
asVavgSGDIters
p1025
(lp1026
F0.0
aF0.0
aF0.0
assViterations
p1027
F516344.390625
sVavgMsgsRcvd
p1028
(lp1029
F6296.0
aF6366.2265625
aF6408.0
asVavgMsgsSent
p1030
(lp1031
F893.0
aF909.4609375
aF921.0
assVtotalLoss
p1032
F441039.47548112314
sValgorithm
p1033
VHOGWILD
p1034
sVregPenalty
p1035
F142.8628010150141
sVroc
p1036
F0.82009546140452072
sVmaxW
p1037
F1.567682115735922
sVnExamples
p1038
I581012
sVruntimeMS
p1039
I10511
sVparams
p1040
(dp1041
VpointCloudDim
p1042
I10
sVinput
p1043
V/user/root/bismarck_data/forest*
p1044
sValgorithm
p1045
VHOGWILD
p1046
sVformat
p1047
Vbismarck
p1048
sVpointCloudSize
p1049
F1.0
sVwikipediaTargetWordToken
p1050
I4690
sVdblpSplitYear
p1051
I2007
sVnumPartitions
p1052
I128
sValgParams
p1053
(dp1054
VregParam
p1055
F10.0
sVmaxIterations
p1056
I1000
sVusePorkChop
p1057
I00
sVtol
p1058
F0.0
sVworkerTol
p1059
F1.0000000000000001e-05
sVadaptiveRho
p1060
I00
sVuseLBFGS
p1061
I00
sVrho0
p1062
F10.0
sVdisplayIncrementalStats
p1063
I00
sVminiBatchSize
p1064
I10
sVlocalTimeout
p1065
I-1
sVmaxWorkerIterations
p1066
I10
sVruntimeMS
p1067
I10000
sVbroadcastDelayMS
p1068
I10
sVeta0
p1069
F1.0
sVlagrangianRho
p1070
F10.0
sVuseLineSearch
p1071
I00
ssVinputTokenHashKernelDimension
p1072
I100
sVpointCloudPoints
p1073
I10000
sVregType
p1074
VL2
p1075
sVuseLR
p1076
I00
sVpointCloudNoise
p1077
F0.20000000000000001
sVpointCloudSkew
p1078
F0.0
ssViterations
p1079
F516344.390625
sVtrainingLoss
p1080
F440896.61268010811
sVminW
p1081
F-3.5745922351372124
sVtrainingError
p1082
F0.24873496588710733
sa(dp1083
VnDim
p1084
I54
sVpr
p1085
F0.78809825748254381
sg4
(dp1086
g6
F1.0000000000000001e-05
sg7
I-1
sg8
I-1
sg9
g206
sg11
I10
sg12
I128
sg13
I4690
sg14
I2007
sg15
I100000000
sg16
g17
sg18
I100000
sg19
g20
sg21
S'cd /mnt/spark; sbin/stop-all.sh; sleep 5; sbin/start-all.sh; sleep 3;./bin/spark-submit --driver-memory 52g --class org.apache.spark.examples.mllib.research.SynchronousADMMTests examples/target/scala-*/spark-examples-*.jar --algorithm ADMM --regType L2 --regParam 10 --format bismarck --numPartitions 128 --runtimeMS 10000 --ADMMmaxLocalIterations 100000 --ADMMepsilon 0.0 --ADMMLocalepsilon 1e-05 --ADMMrho 10 --ADMMLagrangianrho 10 --broadcastDelayMs -1 --dblpSplitYear 2007 --wikipediaTargetWordToken 4690 --inputTokenHashKernelDimension 100 --localTimeout 100000000  --input /user/root/bismarck_data/forest*   '
p1087
sg23
I10
sg24
F0.0
sg25
I100
sg26
g27
sg28
S'RESULT: {"trainingLoss": 339790.95458610146, "stats": {"dualAvgNorm": 0.0, "stats": {"avgDualUpdates": [7.0, 7.0, 7.0], "primalAvg": [-1.5170508253050035, -0.016456616181252635, 0.06798911467080015, 0.2640486045002057, 0.024048522738603032, 0.1924236290927832, 0.07194597129094181, 0.3225345162853289, -0.027808006365158556, -0.01683846638396309, 0.23690711681759885, 0.17995533683952553, 0.17195283118791327, -0.9949010596212141, -0.14719626648192097, -0.43028716512504495, -0.20706050228245604, -0.48826286897210674, -0.10619877359646988, -0.02782069561082078, 0.48141905842162513, 0.17743477087953305, 0.057829060994131334, -0.10453475256694295, 0.011320974733519937, 0.09723839184053847, 0.10163511314876833, -0.15467387926720932, -0.009737987091055327, -0.01957940196221702, -0.1874011010216972, -0.0177977965636044, -0.031853944743386285, -0.036696725297457065, -0.06911642698591945, -0.12075635848081057, -0.09242325693373998, 0.027558183290767136, 0.10476502956372791, 0.04484879020080143, 0.007753169963234397, 0.3225879905052021, 0.16501396122274511, 0.06844953908647883, 0.08575260679760978, 0.2355502647752229, 0.13305689751420974, 0.1288319079224903, -0.0035212465329669367, 0.014426512476715796, -0.006319312646574328, -0.038974831126329115, -0.06056422000351828, -0.01258003716424719], "dualAvg": [0.0, 0.0, 0.0, 0.0, 0.0, 0.0, 0.0, 0.0, 0.0, 0.0, 0.0, 0.0, 0.0, 0.0, 0.0, 0.0, 0.0, 0.0, 0.0, 0.0, 0.0, 0.0, 0.0, 0.0, 0.0, 0.0, 0.0, 0.0, 0.0, 0.0, 0.0, 0.0, 0.0, 0.0, 0.0, 0.0, 0.0, 0.0, 0.0, 0.0, 0.0, 0.0, 0.0, 0.0, 0.0, 0.0, 0.0, 0.0, 0.0, 0.0, 0.0, 0.0, 0.0, 0.0], "avgResidual": [0.0, 5.749857270727614E-5, 0.006274897226728172], "avgMsgsSent": [0.0, 0.0, 0.0], "avgMsgsRcvd": [0.0, 0.0, 0.0], "avgLocalIters": [0.0, 0.0, 0.0], "avgSGDIters": [1.0, 18616.546875, 66408.0]}, "dualUpdates": [7.0, 7.0, 7.0], "primalAvgNorm": 2.18449834589768, "avgSGDIters": [1.0, 18616.546875, 66408.0], "iterations": 7, "runtime": 10094, "consensusNorm": 2.1675642501930468}, "params": {"format": "bismarck", "algParams": {"usePorkChop": false, "lagrangianRho": 10.0, "rho0": 10.0, "maxWorkerIterations": 100000, "useLBFGS": false, "maxIterations": 1000, "eta0": 1.0, "runtimeMS": 10000, "adaptiveRho": false, "broadcastDelayMS": -1, "regParam": 10.0, "tol": 0.0, "displayIncrementalStats": false, "localTimeout": 100000000, "useLineSearch": false, "workerTol": 1.0E-5, "miniBatchSize": 10}, "wikipediaTargetWordToken": 4690, "dblpSplitYear": 2007, "regType": "L2", "algorithm": "ADMM", "inputTokenHashKernelDimension": 100, "useLR": false, "pointCloudPoints": 10000, "pointCloudDim": 10, "pointCloudSize": 1.0, "pointCloudSkew": 0.0, "input": "/user/root/bismarck_data/forest*", "numPartitions": 128, "pointCloudNoise": 0.2}, "nDim": 54, "algorithm": "ADMM", "pr": 0.7880982574825438, "totalLoss": 339814.44625999505, "nExamples": 581012, "runtimeMS": 10094, "regPenalty": 23.491673893574724, "trainingError": 0.23756480072700736, "maxW": 0.47768712773618616, "minW": -1.5052907413879104, "iterations": 7, "roc": 0.822373913219543}\n'
p1088
sg30
I10
sg31
I-1
ssVstats
p1089
(dp1090
Vstats
p1091
(dp1092
VavgMsgsRcvd
p1093
(lp1094
F0.0
aF0.0
aF0.0
asVavgMsgsSent
p1095
(lp1096
F0.0
aF0.0
aF0.0
asVavgDualUpdates
p1097
(lp1098
F7.0
aF7.0
aF7.0
asVavgLocalIters
p1099
(lp1100
F0.0
aF0.0
aF0.0
asVavgResidual
p1101
(lp1102
F0.0
aF5.7498572707276138e-05
aF0.0062748972267281716
asVprimalAvg
p1103
(lp1104
F-1.5170508253050035
aF-0.016456616181252635
aF0.067989114670800155
aF0.26404860450020567
aF0.024048522738603032
aF0.19242362909278321
aF0.07194597129094181
aF0.32253451628532892
aF-0.027808006365158556
aF-0.01683846638396309
aF0.23690711681759885
aF0.17995533683952553
aF0.17195283118791327
aF-0.99490105962121411
aF-0.14719626648192097
aF-0.43028716512504495
aF-0.20706050228245604
aF-0.48826286897210674
aF-0.10619877359646988
aF-0.027820695610820779
aF0.48141905842162513
aF0.17743477087953305
aF0.057829060994131334
aF-0.10453475256694295
aF0.011320974733519937
aF0.097238391840538466
aF0.10163511314876833
aF-0.15467387926720932
aF-0.0097379870910553265
aF-0.019579401962217021
aF-0.18740110102169719
aF-0.0177977965636044
aF-0.031853944743386285
aF-0.036696725297457065
aF-0.069116426985919452
aF-0.12075635848081057
aF-0.092423256933739983
aF0.027558183290767136
aF0.10476502956372791
aF0.044848790200801431
aF0.0077531699632343966
aF0.32258799050520209
aF0.16501396122274511
aF0.068449539086478828
aF0.085752606797609779
aF0.2355502647752229
aF0.13305689751420974
aF0.1288319079224903
aF-0.0035212465329669367
aF0.014426512476715796
aF-0.0063193126465743276
aF-0.038974831126329115
aF-0.060564220003518278
aF-0.012580037164247189
asVdualAvg
p1105
(lp1106
F0.0
aF0.0
aF0.0
aF0.0
aF0.0
aF0.0
aF0.0
aF0.0
aF0.0
aF0.0
aF0.0
aF0.0
aF0.0
aF0.0
aF0.0
aF0.0
aF0.0
aF0.0
aF0.0
aF0.0
aF0.0
aF0.0
aF0.0
aF0.0
aF0.0
aF0.0
aF0.0
aF0.0
aF0.0
aF0.0
aF0.0
aF0.0
aF0.0
aF0.0
aF0.0
aF0.0
aF0.0
aF0.0
aF0.0
aF0.0
aF0.0
aF0.0
aF0.0
aF0.0
aF0.0
aF0.0
aF0.0
aF0.0
aF0.0
aF0.0
aF0.0
aF0.0
aF0.0
aF0.0
asVavgSGDIters
p1107
(lp1108
F1.0
aF18616.546875
aF66408.0
assVconsensusNorm
p1109
F2.1675642501930468
sVdualUpdates
p1110
(lp1111
F7.0
aF7.0
aF7.0
asVdualAvgNorm
p1112
F0.0
sVprimalAvgNorm
p1113
F2.1844983458976799
sViterations
p1114
I7
sVruntime
p1115
I10094
sVavgSGDIters
p1116
(lp1117
F1.0
aF18616.546875
aF66408.0
assVtotalLoss
p1118
F339814.44625999505
sValgorithm
p1119
VADMM
p1120
sVregPenalty
p1121
F23.491673893574724
sVroc
p1122
F0.82237391321954301
sVmaxW
p1123
F0.47768712773618616
sVnExamples
p1124
I581012
sVruntimeMS
p1125
I10094
sVparams
p1126
(dp1127
VpointCloudDim
p1128
I10
sVinput
p1129
V/user/root/bismarck_data/forest*
p1130
sValgorithm
p1131
VADMM
p1132
sVformat
p1133
Vbismarck
p1134
sVpointCloudSize
p1135
F1.0
sVwikipediaTargetWordToken
p1136
I4690
sVdblpSplitYear
p1137
I2007
sVnumPartitions
p1138
I128
sValgParams
p1139
(dp1140
VregParam
p1141
F10.0
sVmaxIterations
p1142
I1000
sVusePorkChop
p1143
I00
sVtol
p1144
F0.0
sVworkerTol
p1145
F1.0000000000000001e-05
sVadaptiveRho
p1146
I00
sVuseLBFGS
p1147
I00
sVrho0
p1148
F10.0
sVdisplayIncrementalStats
p1149
I00
sVminiBatchSize
p1150
I10
sVlocalTimeout
p1151
I100000000
sVmaxWorkerIterations
p1152
I100000
sVruntimeMS
p1153
I10000
sVbroadcastDelayMS
p1154
I-1
sVeta0
p1155
F1.0
sVlagrangianRho
p1156
F10.0
sVuseLineSearch
p1157
I00
ssVinputTokenHashKernelDimension
p1158
I100
sVpointCloudPoints
p1159
I10000
sVregType
p1160
VL2
p1161
sVuseLR
p1162
I00
sVpointCloudNoise
p1163
F0.20000000000000001
sVpointCloudSkew
p1164
F0.0
ssViterations
p1165
I7
sVtrainingLoss
p1166
F339790.95458610146
sVminW
p1167
F-1.5052907413879104
sVtrainingError
p1168
F0.23756480072700736
sa(dp1169
VnDim
p1170
I54
sVpr
p1171
F0.79118313900433168
sg4
(dp1172
g6
F0.001
sg7
I-1
sg8
I-1
sg9
g293
sg11
I10
sg12
I128
sg13
I4690
sg14
I2007
sg15
I500
sg16
g17
sg18
I100000000
sg19
g20
sg21
S'cd /mnt/spark; sbin/stop-all.sh; sleep 5; sbin/start-all.sh; sleep 3;./bin/spark-submit --driver-memory 52g --class org.apache.spark.examples.mllib.research.SynchronousADMMTests examples/target/scala-*/spark-examples-*.jar --algorithm MiniBatchADMM --regType L2 --regParam 10 --format bismarck --numPartitions 128 --runtimeMS 10000 --ADMMmaxLocalIterations 100000000 --ADMMepsilon 0.0 --ADMMLocalepsilon 0.001 --ADMMrho 10 --ADMMLagrangianrho 10 --broadcastDelayMs -1 --dblpSplitYear 2007 --wikipediaTargetWordToken 4690 --inputTokenHashKernelDimension 100 --localTimeout 500  --input /user/root/bismarck_data/forest*   '
p1173
sg23
I10
sg24
F0.0
sg25
I100
sg26
g27
sg28
S'RESULT: {"trainingLoss": 340989.9243655129, "stats": {"dualAvgNorm": 0.0, "stats": {"avgDualUpdates": [20.0, 20.0, 20.0], "primalAvg": [-1.5946416816603082, -0.020177260878350787, 0.07641695659745264, 0.29702119256310205, 0.020263355705565964, 0.19524743011710982, 0.05552765705956246, 0.3651303238200539, -0.05759410043520154, -0.022005544797002105, 0.2497448278682828, 0.19448959472831237, 0.1772671762733372, -1.0449976808025012, -0.1868277028716097, -0.4516942563356252, -0.22996625059390224, -0.5083330757251193, -0.158165277080845, -0.045403255951053954, 0.6987845309649932, 0.10264907000253816, 0.03755838849984558, -0.11495544157190701, 0.019293628917931915, 0.1364740547506099, 0.11685382107606944, -0.19736326552547548, -0.004149344328578617, 0.0043777713974381864, -0.19657102980018357, -0.006282214348901112, -0.05319229203769033, -0.0319688873500076, -0.08226618952972137, -0.12613361297722264, -0.09528953803342816, 0.03376494444125331, 0.07412961651523119, 0.0688996123501637, -0.03801566776790157, 0.26382528541430944, 0.1799633864337884, 0.07889817827798291, 0.0981935808459465, 0.24355065141291132, 0.1580223567070634, 0.1252899971664494, -0.03711722415873996, -0.12872019914672853, -0.03928176228126896, -0.04556391208602519, -0.06761812370445758, -0.03487191459491284], "dualAvg": [0.0, 0.0, 0.0, 0.0, 0.0, 0.0, 0.0, 0.0, 0.0, 0.0, 0.0, 0.0, 0.0, 0.0, 0.0, 0.0, 0.0, 0.0, 0.0, 0.0, 0.0, 0.0, 0.0, 0.0, 0.0, 0.0, 0.0, 0.0, 0.0, 0.0, 0.0, 0.0, 0.0, 0.0, 0.0, 0.0, 0.0, 0.0, 0.0, 0.0, 0.0, 0.0, 0.0, 0.0, 0.0, 0.0, 0.0, 0.0, 0.0, 0.0, 0.0, 0.0, 0.0, 0.0], "avgResidual": [9.943923878083079E-6, 8.59948976848828E-4, 0.022746897531803197], "avgMsgsSent": [0.0, 0.0, 0.0], "avgMsgsRcvd": [0.0, 0.0, 0.0], "avgLocalIters": [0.0, 0.0, 0.0], "avgSGDIters": [12.0, 3102.4609375, 17800.0]}, "dualUpdates": [20.0, 20.0, 20.0], "primalAvgNorm": 2.3525396778360164, "avgSGDIters": [12.0, 3102.4609375, 17800.0], "iterations": 20, "runtime": 10083, "consensusNorm": 2.3343029361473646}, "params": {"format": "bismarck", "algParams": {"usePorkChop": false, "lagrangianRho": 10.0, "rho0": 10.0, "maxWorkerIterations": 100000000, "useLBFGS": false, "maxIterations": 1000, "eta0": 1.0, "runtimeMS": 10000, "adaptiveRho": false, "broadcastDelayMS": -1, "regParam": 10.0, "tol": 0.0, "displayIncrementalStats": false, "localTimeout": 500, "useLineSearch": false, "workerTol": 0.001, "miniBatchSize": 10}, "wikipediaTargetWordToken": 4690, "dblpSplitYear": 2007, "regType": "L2", "algorithm": "MiniBatchADMM", "inputTokenHashKernelDimension": 100, "useLR": false, "pointCloudPoints": 10000, "pointCloudDim": 10, "pointCloudSize": 1.0, "pointCloudSkew": 0.0, "input": "/user/root/bismarck_data/forest*", "numPartitions": 128, "pointCloudNoise": 0.2}, "nDim": 54, "algorithm": "MiniBatchADMM", "pr": 0.7911831390043317, "totalLoss": 341017.16921650147, "nExamples": 581012, "runtimeMS": 10083, "regPenalty": 27.244850988531034, "trainingError": 0.2384683965219307, "maxW": 0.6933675966164273, "minW": -1.5822801182365849, "iterations": 20, "roc": 0.8231490878587749}\n'
p1174
sg30
I10
sg31
I-1
ssVstats
p1175
(dp1176
Vstats
p1177
(dp1178
VavgMsgsRcvd
p1179
(lp1180
F0.0
aF0.0
aF0.0
asVavgMsgsSent
p1181
(lp1182
F0.0
aF0.0
aF0.0
asVavgDualUpdates
p1183
(lp1184
F20.0
aF20.0
aF20.0
asVavgLocalIters
p1185
(lp1186
F0.0
aF0.0
aF0.0
asVavgResidual
p1187
(lp1188
F9.9439238780830789e-06
aF0.00085994897684882798
aF0.022746897531803197
asVprimalAvg
p1189
(lp1190
F-1.5946416816603082
aF-0.020177260878350787
aF0.076416956597452637
aF0.29702119256310205
aF0.020263355705565964
aF0.19524743011710982
aF0.05552765705956246
aF0.36513032382005389
aF-0.057594100435201537
aF-0.022005544797002105
aF0.24974482786828281
aF0.19448959472831237
aF0.17726717627333721
aF-1.0449976808025012
aF-0.18682770287160971
aF-0.45169425633562521
aF-0.22996625059390224
aF-0.50833307572511932
aF-0.15816527708084499
aF-0.045403255951053954
aF0.69878453096499316
aF0.10264907000253816
aF0.03755838849984558
aF-0.11495544157190701
aF0.019293628917931915
aF0.13647405475060989
aF0.11685382107606944
aF-0.19736326552547548
aF-0.0041493443285786167
aF0.0043777713974381864
aF-0.19657102980018357
aF-0.0062822143489011124
aF-0.053192292037690332
aF-0.031968887350007601
aF-0.082266189529721367
aF-0.12613361297722264
aF-0.095289538033428156
aF0.03376494444125331
aF0.074129616515231186
aF0.068899612350163703
aF-0.038015667767901572
aF0.26382528541430944
aF0.1799633864337884
aF0.078898178277982914
aF0.098193580845946496
aF0.24355065141291132
aF0.15802235670706341
aF0.1252899971664494
aF-0.037117224158739963
aF-0.12872019914672853
aF-0.039281762281268957
aF-0.045563912086025192
aF-0.067618123704457578
aF-0.034871914594912838
asVdualAvg
p1191
(lp1192
F0.0
aF0.0
aF0.0
aF0.0
aF0.0
aF0.0
aF0.0
aF0.0
aF0.0
aF0.0
aF0.0
aF0.0
aF0.0
aF0.0
aF0.0
aF0.0
aF0.0
aF0.0
aF0.0
aF0.0
aF0.0
aF0.0
aF0.0
aF0.0
aF0.0
aF0.0
aF0.0
aF0.0
aF0.0
aF0.0
aF0.0
aF0.0
aF0.0
aF0.0
aF0.0
aF0.0
aF0.0
aF0.0
aF0.0
aF0.0
aF0.0
aF0.0
aF0.0
aF0.0
aF0.0
aF0.0
aF0.0
aF0.0
aF0.0
aF0.0
aF0.0
aF0.0
aF0.0
aF0.0
asVavgSGDIters
p1193
(lp1194
F12.0
aF3102.4609375
aF17800.0
assVconsensusNorm
p1195
F2.3343029361473646
sVdualUpdates
p1196
(lp1197
F20.0
aF20.0
aF20.0
asVdualAvgNorm
p1198
F0.0
sVprimalAvgNorm
p1199
F2.3525396778360164
sViterations
p1200
I20
sVruntime
p1201
I10083
sVavgSGDIters
p1202
(lp1203
F12.0
aF3102.4609375
aF17800.0
assVtotalLoss
p1204
F341017.16921650147
sValgorithm
p1205
VMiniBatchADMM
p1206
sVregPenalty
p1207
F27.244850988531034
sVroc
p1208
F0.82314908785877494
sVmaxW
p1209
F0.69336759661642733
sVnExamples
p1210
I581012
sVruntimeMS
p1211
I10083
sVparams
p1212
(dp1213
VpointCloudDim
p1214
I10
sVinput
p1215
V/user/root/bismarck_data/forest*
p1216
sValgorithm
p1217
VMiniBatchADMM
p1218
sVformat
p1219
Vbismarck
p1220
sVpointCloudSize
p1221
F1.0
sVwikipediaTargetWordToken
p1222
I4690
sVdblpSplitYear
p1223
I2007
sVnumPartitions
p1224
I128
sValgParams
p1225
(dp1226
VregParam
p1227
F10.0
sVmaxIterations
p1228
I1000
sVusePorkChop
p1229
I00
sVtol
p1230
F0.0
sVworkerTol
p1231
F0.001
sVadaptiveRho
p1232
I00
sVuseLBFGS
p1233
I00
sVrho0
p1234
F10.0
sVdisplayIncrementalStats
p1235
I00
sVminiBatchSize
p1236
I10
sVlocalTimeout
p1237
I500
sVmaxWorkerIterations
p1238
I100000000
sVruntimeMS
p1239
I10000
sVbroadcastDelayMS
p1240
I-1
sVeta0
p1241
F1.0
sVlagrangianRho
p1242
F10.0
sVuseLineSearch
p1243
I00
ssVinputTokenHashKernelDimension
p1244
I100
sVpointCloudPoints
p1245
I10000
sVregType
p1246
VL2
p1247
sVuseLR
p1248
I00
sVpointCloudNoise
p1249
F0.20000000000000001
sVpointCloudSkew
p1250
F0.0
ssViterations
p1251
I20
sVtrainingLoss
p1252
F340989.92436551291
sVminW
p1253
F-1.5822801182365849
sVtrainingError
p1254
F0.23846839652193069
sa(dp1255
VnDim
p1256
I54
sVpr
p1257
F0.78822840456911125
sg4
(dp1258
g6
F1.0000000000000001e-05
sg7
I100
sg8
I-1
sg9
g380
sg11
I10
sg12
I128
sg13
I4690
sg14
I2007
sg15
I500
sg16
g17
sg18
I100000
sg19
g20
sg21
S'cd /mnt/spark; sbin/stop-all.sh; sleep 5; sbin/start-all.sh; sleep 3;./bin/spark-submit --driver-memory 52g --class org.apache.spark.examples.mllib.research.SynchronousADMMTests examples/target/scala-*/spark-examples-*.jar --algorithm AsyncADMM --regType L2 --regParam 10 --format bismarck --numPartitions 128 --runtimeMS 10000 --ADMMmaxLocalIterations 100000 --ADMMepsilon 0.0 --ADMMLocalepsilon 1e-05 --ADMMrho 10 --ADMMLagrangianrho 10 --broadcastDelayMs 100 --dblpSplitYear 2007 --wikipediaTargetWordToken 4690 --inputTokenHashKernelDimension 100 --localTimeout 500  --input /user/root/bismarck_data/forest*   '
p1259
sg23
I10
sg24
F0.0
sg25
I100
sg26
g27
sg28
S'RESULT: {"trainingLoss": 341400.3993773091, "stats": {"dualAvgNorm": 0.0, "stats": {"avgDualUpdates": [19.0, 30.78125, 49.0], "primalAvg": [-1.3429848261721304, -0.01322336327803858, 0.06679670723059439, 0.2313361519011388, 0.019200942898041296, 0.17072637820913228, 0.07764965235324264, 0.27084891047912324, -0.00563092544918364, -0.013543914533905462, 0.20908982937742648, 0.15887908574229742, 0.15179258790976682, -0.8781881573961138, -0.1423998706833877, -0.3758297181151711, -0.18461231113829604, -0.43261984335927434, -0.127824453203111, -0.02683521272448426, 0.43330748894229415, 0.17098364862364762, 0.058264422721383054, -0.0942029854030324, 0.013152836903195731, 0.09123152284957381, 0.09157124064736555, -0.16117199745445532, 0.052818690897151535, -0.019056723343645113, -0.16728381464275482, 5.4042976549503556E-5, -0.03352193464277073, -0.030356554087502336, -0.06783211433543675, -0.10507976850593956, -0.08545373488686497, 0.027756618255954248, 0.1010244330474191, 0.04195339676537123, 0.0026014885661036474, 0.31121507742517635, 0.14861112778193344, 0.06112982276145351, 0.07872316781310115, 0.20881395047690154, 0.11720649417541522, 0.12170799415705873, -0.024325687427952, -0.025285652769689602, -0.028671459667456763, -0.035195390247358585, -0.05437515644008856, -0.011199794883825318], "dualAvg": [0.0, 0.0, 0.0, 0.0, 0.0, 0.0, 0.0, 0.0, 0.0, 0.0, 0.0, 0.0, 0.0, 0.0, 0.0, 0.0, 0.0, 0.0, 0.0, 0.0, 0.0, 0.0, 0.0, 0.0, 0.0, 0.0, 0.0, 0.0, 0.0, 0.0, 0.0, 0.0, 0.0, 0.0, 0.0, 0.0, 0.0, 0.0, 0.0, 0.0, 0.0, 0.0, 0.0, 0.0, 0.0, 0.0, 0.0, 0.0, 0.0, 0.0, 0.0, 0.0, 0.0, 0.0], "avgResidual": [0.0, 0.0, 0.0], "avgMsgsSent": [19.0, 30.78125, 49.0], "avgMsgsRcvd": [172.0, 212.8203125, 262.0], "avgLocalIters": [19.0, 30.78125, 49.0], "avgSGDIters": [0.0, 11520.3125, 42600.0]}, "iterInterval": [19.0, 30.78125, 49.0], "avgMsgsSent": [19.0, 30.78125, 49.0], "dualUpdates": [19.0, 30.78125, 49.0], "avgMsgsRcvd": [172.0, 212.8203125, 262.0], "primalAvgNorm": 1.9448172879179597, "avgSGDIters": [0.0, 11520.3125, 42600.0], "iterations": 30.78125, "runtime": 10205, "consensusNorm": 1.9297411849108443}, "params": {"format": "bismarck", "algParams": {"usePorkChop": false, "lagrangianRho": 10.0, "rho0": 10.0, "maxWorkerIterations": 100000, "useLBFGS": false, "maxIterations": 1000, "eta0": 1.0, "runtimeMS": 10000, "adaptiveRho": false, "broadcastDelayMS": 100, "regParam": 10.0, "tol": 0.0, "displayIncrementalStats": false, "localTimeout": 500, "useLineSearch": false, "workerTol": 1.0E-5, "miniBatchSize": 10}, "wikipediaTargetWordToken": 4690, "dblpSplitYear": 2007, "regType": "L2", "algorithm": "AsyncADMM", "inputTokenHashKernelDimension": 100, "useLR": false, "pointCloudPoints": 10000, "pointCloudDim": 10, "pointCloudSize": 1.0, "pointCloudSkew": 0.0, "input": "/user/root/bismarck_data/forest*", "numPartitions": 128, "pointCloudNoise": 0.2}, "nDim": 54, "algorithm": "AsyncADMM", "pr": 0.7882284045691113, "totalLoss": 341419.01888251276, "nExamples": 581012, "runtimeMS": 10205, "regPenalty": 18.61950520370555, "trainingError": 0.23754414710883767, "maxW": 0.42994851615979574, "minW": -1.3325740910855248, "iterations": 30.78125, "roc": 0.8223719865241949}\n'
p1260
sg30
I10
sg31
I-1
ssVstats
p1261
(dp1262
Vstats
p1263
(dp1264
VavgMsgsRcvd
p1265
(lp1266
F172.0
aF212.8203125
aF262.0
asVavgMsgsSent
p1267
(lp1268
F19.0
aF30.78125
aF49.0
asVavgDualUpdates
p1269
(lp1270
F19.0
aF30.78125
aF49.0
asVavgLocalIters
p1271
(lp1272
F19.0
aF30.78125
aF49.0
asVavgResidual
p1273
(lp1274
F0.0
aF0.0
aF0.0
asVprimalAvg
p1275
(lp1276
F-1.3429848261721304
aF-0.01322336327803858
aF0.066796707230594388
aF0.23133615190113879
aF0.019200942898041296
aF0.17072637820913228
aF0.077649652353242643
aF0.27084891047912324
aF-0.0056309254491836401
aF-0.013543914533905462
aF0.20908982937742648
aF0.15887908574229742
aF0.15179258790976682
aF-0.87818815739611378
aF-0.14239987068338769
aF-0.37582971811517107
aF-0.18461231113829604
aF-0.43261984335927434
aF-0.127824453203111
aF-0.026835212724484261
aF0.43330748894229415
aF0.17098364862364762
aF0.058264422721383054
aF-0.094202985403032402
aF0.013152836903195731
aF0.09123152284957381
aF0.091571240647365548
aF-0.16117199745445532
aF0.052818690897151535
aF-0.019056723343645113
aF-0.16728381464275482
aF5.4042976549503556e-05
aF-0.033521934642770729
aF-0.030356554087502336
aF-0.067832114335436747
aF-0.10507976850593956
aF-0.085453734886864974
aF0.027756618255954248
aF0.10102443304741909
aF0.041953396765371229
aF0.0026014885661036474
aF0.31121507742517635
aF0.14861112778193344
aF0.061129822761453512
aF0.078723167813101153
aF0.20881395047690154
aF0.11720649417541522
aF0.12170799415705873
aF-0.024325687427951999
aF-0.025285652769689602
aF-0.028671459667456763
aF-0.035195390247358585
aF-0.054375156440088557
aF-0.011199794883825318
asVdualAvg
p1277
(lp1278
F0.0
aF0.0
aF0.0
aF0.0
aF0.0
aF0.0
aF0.0
aF0.0
aF0.0
aF0.0
aF0.0
aF0.0
aF0.0
aF0.0
aF0.0
aF0.0
aF0.0
aF0.0
aF0.0
aF0.0
aF0.0
aF0.0
aF0.0
aF0.0
aF0.0
aF0.0
aF0.0
aF0.0
aF0.0
aF0.0
aF0.0
aF0.0
aF0.0
aF0.0
aF0.0
aF0.0
aF0.0
aF0.0
aF0.0
aF0.0
aF0.0
aF0.0
aF0.0
aF0.0
aF0.0
aF0.0
aF0.0
aF0.0
aF0.0
aF0.0
aF0.0
aF0.0
aF0.0
aF0.0
asVavgSGDIters
p1279
(lp1280
F0.0
aF11520.3125
aF42600.0
assVconsensusNorm
p1281
F1.9297411849108443
sVavgMsgsRcvd
p1282
(lp1283
F172.0
aF212.8203125
aF262.0
asVavgMsgsSent
p1284
(lp1285
F19.0
aF30.78125
aF49.0
asVdualUpdates
p1286
(lp1287
F19.0
aF30.78125
aF49.0
asVdualAvgNorm
p1288
F0.0
sVprimalAvgNorm
p1289
F1.9448172879179597
sViterInterval
p1290
(lp1291
F19.0
aF30.78125
aF49.0
asViterations
p1292
F30.78125
sVruntime
p1293
I10205
sVavgSGDIters
p1294
(lp1295
F0.0
aF11520.3125
aF42600.0
assVtotalLoss
p1296
F341419.01888251276
sValgorithm
p1297
VAsyncADMM
p1298
sVregPenalty
p1299
F18.61950520370555
sVroc
p1300
F0.82237198652419485
sVmaxW
p1301
F0.42994851615979574
sVnExamples
p1302
I581012
sVruntimeMS
p1303
I10205
sVparams
p1304
(dp1305
VpointCloudDim
p1306
I10
sVinput
p1307
V/user/root/bismarck_data/forest*
p1308
sValgorithm
p1309
VAsyncADMM
p1310
sVformat
p1311
Vbismarck
p1312
sVpointCloudSize
p1313
F1.0
sVwikipediaTargetWordToken
p1314
I4690
sVdblpSplitYear
p1315
I2007
sVnumPartitions
p1316
I128
sValgParams
p1317
(dp1318
VregParam
p1319
F10.0
sVmaxIterations
p1320
I1000
sVusePorkChop
p1321
I00
sVtol
p1322
F0.0
sVworkerTol
p1323
F1.0000000000000001e-05
sVadaptiveRho
p1324
I00
sVuseLBFGS
p1325
I00
sVrho0
p1326
F10.0
sVdisplayIncrementalStats
p1327
I00
sVminiBatchSize
p1328
I10
sVlocalTimeout
p1329
I500
sVmaxWorkerIterations
p1330
I100000
sVruntimeMS
p1331
I10000
sVbroadcastDelayMS
p1332
I100
sVeta0
p1333
F1.0
sVlagrangianRho
p1334
F10.0
sVuseLineSearch
p1335
I00
ssVinputTokenHashKernelDimension
p1336
I100
sVpointCloudPoints
p1337
I10000
sVregType
p1338
VL2
p1339
sVuseLR
p1340
I00
sVpointCloudNoise
p1341
F0.20000000000000001
sVpointCloudSkew
p1342
F0.0
ssViterations
p1343
F30.78125
sVtrainingLoss
p1344
F341400.39937730908
sVminW
p1345
F-1.3325740910855248
sVtrainingError
p1346
F0.23754414710883767
sa(dp1347
VnDim
p1348
I54
sVpr
p1349
F0.7883025798146337
sg4
(dp1350
g6
F0.001
sg7
I10
sg8
I-1
sg9
g10
sg11
I10
sg12
I128
sg13
I4690
sg14
I2007
sg15
I-1
sg16
g17
sg18
I100000
sg19
g20
sg21
S'cd /mnt/spark; sbin/stop-all.sh; sleep 5; sbin/start-all.sh; sleep 3;./bin/spark-submit --driver-memory 52g --class org.apache.spark.examples.mllib.research.SynchronousADMMTests examples/target/scala-*/spark-examples-*.jar --algorithm PORKCHOP --regType L2 --regParam 10 --format bismarck --numPartitions 128 --runtimeMS 20000 --ADMMmaxLocalIterations 100000 --ADMMepsilon 0.0 --ADMMLocalepsilon 0.001 --ADMMrho 10 --ADMMLagrangianrho 10 --broadcastDelayMs 10 --dblpSplitYear 2007 --wikipediaTargetWordToken 4690 --inputTokenHashKernelDimension 100 --localTimeout -1  --input /user/root/bismarck_data/forest*   '
p1351
sg23
I10
sg24
F0.0
sg25
I100
sg26
g27
sg28
S'RESULT: {"trainingLoss": 342086.3505172589, "stats": {"dualAvgNorm": 3.0086118379194837, "stats": {"avgDualUpdates": [150.0, 263.921875, 382.0], "primalAvg": [-1.5328869626733226, -0.016682456902577303, 0.07236739112114421, 0.26500907519237005, 0.017800683309437737, 0.19507446218540556, 0.08019400181609421, 0.3306981792926154, -0.02362369902941996, -0.013680164072841134, 0.23889181415805105, 0.18239068534841468, 0.1757137491928708, -1.0087260186364613, -0.16735545836863164, -0.43496229447220475, -0.20810939660384795, -0.4956585814693245, -0.13808865902496484, -0.038082768750011396, 1.1451090300991988, 0.14652329569742806, 0.009832754549191807, -0.10652898642962642, 0.01309150023834293, 0.10484538505265226, 0.10292778987987922, -0.20661671955288663, 0.08413413540629734, -0.01861502407927037, -0.18861029418347183, -0.02779173386362385, -0.027188525766553586, -0.03769791479585449, -0.09179068996838989, -0.11286416988121424, -0.09291693918139908, 0.02866198797222788, 0.1025772115269895, 0.05648475995840832, -0.014631605163104048, 0.26842461195918493, 0.16813667041354358, 0.07251519216660961, 0.09524109559624055, 0.24827945794990777, 0.13531863366152094, 0.10268616848924349, -0.04094631875083886, -0.03200303507790713, -0.04814321111411998, -0.04469650578592155, -0.06459428692006221, -0.01705355247661468], "dualAvg": [-1.8802490268137342, -0.02192855670884951, 0.0871604849351319, 0.34325139805420374, -0.03362513006741058, 0.2650936008886958, 0.08221264169277115, 0.4225675571862573, -0.03518697705448222, -0.010557978424790337, 0.2862095786848424, 0.23270019115408314, 0.21959675529546646, -1.2398001636803682, -0.22927321747658413, -0.5457048421813655, -0.2612196224388187, -0.6055110684931637, -0.126417389999255, -0.036339991193984185, 1.440067676329591, 0.12683140714119007, -0.08720196484376364, -0.1290952149038299, 0.03402679575070289, 0.13762200465992788, 0.17685841188329643, -0.21388069990663025, 0.12509234810209313, -0.009611817359350091, -0.24150843691105317, -0.03907325192563335, -0.026267973873118577, -0.0450749668387925, -0.07755724143314642, -0.12804422005313074, -0.12106570708329926, 0.05251506645275342, 0.10826269158806257, 0.035169744026315716, -0.048438078248905, 0.2676403714153357, 0.197161166915291, 0.09574876715023503, 0.1185338538720043, 0.26770103126463807, 0.1812746978717073, 0.1022164817199566, 0.007861309364367838, -0.041852709155425105, -0.031057542406167052, -0.06474368711902488, -0.08563124180904924, -0.028013009779037548], "avgResidual": [0.0, 0.0, 0.0], "avgMsgsSent": [0.0, 0.0, 0.0], "avgMsgsRcvd": [1485.0, 1768.2265625, 2131.0], "avgLocalIters": [150.0, 263.921875, 382.0], "avgSGDIters": [100.0, 6272.890625, 30500.0]}, "iterInterval": [150.0, 263.921875, 382.0], "avgMsgsSent": [0.0, 0.0, 0.0], "dualUpdates": [150.0, 263.921875, 382.0], "avgMsgsRcvd": [1485.0, 1768.2265625, 2131.0], "primalAvgNorm": 2.441635639179951, "avgSGDIters": [100.0, 6272.890625, 30500.0], "iterations": 263.921875, "runtime": 20252, "consensusNorm": 2.720629695774214}, "params": {"format": "bismarck", "algParams": {"usePorkChop": true, "lagrangianRho": 10.0, "rho0": 10.0, "maxWorkerIterations": 100000, "useLBFGS": false, "maxIterations": 1000, "eta0": 1.0, "runtimeMS": 20000, "adaptiveRho": false, "broadcastDelayMS": 10, "regParam": 10.0, "tol": 0.0, "displayIncrementalStats": false, "localTimeout": -1, "useLineSearch": false, "workerTol": 0.001, "miniBatchSize": 10}, "wikipediaTargetWordToken": 4690, "dblpSplitYear": 2007, "regType": "L2", "algorithm": "PORKCHOP", "inputTokenHashKernelDimension": 100, "useLR": false, "pointCloudPoints": 10000, "pointCloudDim": 10, "pointCloudSize": 1.0, "pointCloudSkew": 0.0, "input": "/user/root/bismarck_data/forest*", "numPartitions": 128, "pointCloudNoise": 0.2}, "nDim": 54, "algorithm": "PORKCHOP", "pr": 0.7883025798146337, "totalLoss": 342123.35964696656, "nExamples": 581012, "runtimeMS": 20252, "regPenalty": 37.00912970764246, "trainingError": 0.23724466964537738, "maxW": 1.279122652013304, "minW": -1.7075714632976826, "iterations": 263.921875, "roc": 0.822951470956421}\n'
p1352
sg30
I10
sg31
I-1
ssVstats
p1353
(dp1354
Vstats
p1355
(dp1356
VavgMsgsRcvd
p1357
(lp1358
F1485.0
aF1768.2265625
aF2131.0
asVavgMsgsSent
p1359
(lp1360
F0.0
aF0.0
aF0.0
asVavgDualUpdates
p1361
(lp1362
F150.0
aF263.921875
aF382.0
asVavgLocalIters
p1363
(lp1364
F150.0
aF263.921875
aF382.0
asVavgResidual
p1365
(lp1366
F0.0
aF0.0
aF0.0
asVprimalAvg
p1367
(lp1368
F-1.5328869626733226
aF-0.016682456902577303
aF0.072367391121144209
aF0.26500907519237005
aF0.017800683309437737
aF0.19507446218540556
aF0.080194001816094207
aF0.33069817929261541
aF-0.023623699029419961
aF-0.013680164072841134
aF0.23889181415805105
aF0.18239068534841468
aF0.17571374919287081
aF-1.0087260186364613
aF-0.16735545836863164
aF-0.43496229447220475
aF-0.20810939660384795
aF-0.49565858146932451
aF-0.13808865902496484
aF-0.038082768750011396
aF1.1451090300991988
aF0.14652329569742806
aF0.0098327545491918075
aF-0.10652898642962642
aF0.013091500238342929
aF0.10484538505265226
aF0.10292778987987922
aF-0.20661671955288663
aF0.084134135406297342
aF-0.018615024079270369
aF-0.18861029418347183
aF-0.027791733863623849
aF-0.027188525766553586
aF-0.037697914795854492
aF-0.091790689968389891
aF-0.11286416988121424
aF-0.09291693918139908
aF0.028661987972227881
aF0.1025772115269895
aF0.05648475995840832
aF-0.014631605163104048
aF0.26842461195918493
aF0.16813667041354358
aF0.072515192166609607
aF0.095241095596240555
aF0.24827945794990777
aF0.13531863366152094
aF0.10268616848924349
aF-0.040946318750838859
aF-0.032003035077907131
aF-0.048143211114119983
aF-0.044696505785921548
aF-0.064594286920062208
aF-0.017053552476614681
asVdualAvg
p1369
(lp1370
F-1.8802490268137342
aF-0.021928556708849509
aF0.087160484935131899
aF0.34325139805420374
aF-0.03362513006741058
aF0.26509360088869582
aF0.082212641692771149
aF0.42256755718625733
aF-0.035186977054482219
aF-0.010557978424790337
aF0.28620957868484243
aF0.23270019115408314
aF0.21959675529546646
aF-1.2398001636803682
aF-0.22927321747658413
aF-0.5457048421813655
aF-0.26121962243881869
aF-0.60551106849316372
aF-0.126417389999255
aF-0.036339991193984185
aF1.440067676329591
aF0.12683140714119007
aF-0.087201964843763635
aF-0.12909521490382991
aF0.034026795750702887
aF0.13762200465992788
aF0.17685841188329643
aF-0.21388069990663025
aF0.12509234810209313
aF-0.0096118173593500913
aF-0.24150843691105317
aF-0.039073251925633351
aF-0.026267973873118577
aF-0.045074966838792502
aF-0.07755724143314642
aF-0.12804422005313074
aF-0.12106570708329926
aF0.052515066452753417
aF0.10826269158806257
aF0.035169744026315716
aF-0.048438078248905003
aF0.2676403714153357
aF0.19716116691529101
aF0.095748767150235031
aF0.1185338538720043
aF0.26770103126463807
aF0.1812746978717073
aF0.10221648171995661
aF0.0078613093643678383
aF-0.041852709155425105
aF-0.031057542406167052
aF-0.064743687119024881
aF-0.085631241809049241
aF-0.028013009779037548
asVavgSGDIters
p1371
(lp1372
F100.0
aF6272.890625
aF30500.0
assVconsensusNorm
p1373
F2.720629695774214
sVavgMsgsRcvd
p1374
(lp1375
F1485.0
aF1768.2265625
aF2131.0
asVavgMsgsSent
p1376
(lp1377
F0.0
aF0.0
aF0.0
asVdualUpdates
p1378
(lp1379
F150.0
aF263.921875
aF382.0
asVdualAvgNorm
p1380
F3.0086118379194837
sVprimalAvgNorm
p1381
F2.441635639179951
sViterInterval
p1382
(lp1383
F150.0
aF263.921875
aF382.0
asViterations
p1384
F263.921875
sVruntime
p1385
I20252
sVavgSGDIters
p1386
(lp1387
F100.0
aF6272.890625
aF30500.0
assVtotalLoss
p1388
F342123.35964696656
sValgorithm
p1389
VPORKCHOP
p1390
sVregPenalty
p1391
F37.009129707642458
sVroc
p1392
F0.82295147095642096
sVmaxW
p1393
F1.2791226520133041
sVnExamples
p1394
I581012
sVruntimeMS
p1395
I20252
sVparams
p1396
(dp1397
VpointCloudDim
p1398
I10
sVinput
p1399
V/user/root/bismarck_data/forest*
p1400
sValgorithm
p1401
VPORKCHOP
p1402
sVformat
p1403
Vbismarck
p1404
sVpointCloudSize
p1405
F1.0
sVwikipediaTargetWordToken
p1406
I4690
sVdblpSplitYear
p1407
I2007
sVnumPartitions
p1408
I128
sValgParams
p1409
(dp1410
VregParam
p1411
F10.0
sVmaxIterations
p1412
I1000
sVusePorkChop
p1413
I01
sVtol
p1414
F0.0
sVworkerTol
p1415
F0.001
sVadaptiveRho
p1416
I00
sVuseLBFGS
p1417
I00
sVrho0
p1418
F10.0
sVdisplayIncrementalStats
p1419
I00
sVminiBatchSize
p1420
I10
sVlocalTimeout
p1421
I-1
sVmaxWorkerIterations
p1422
I100000
sVruntimeMS
p1423
I20000
sVbroadcastDelayMS
p1424
I10
sVeta0
p1425
F1.0
sVlagrangianRho
p1426
F10.0
sVuseLineSearch
p1427
I00
ssVinputTokenHashKernelDimension
p1428
I100
sVpointCloudPoints
p1429
I10000
sVregType
p1430
VL2
p1431
sVuseLR
p1432
I00
sVpointCloudNoise
p1433
F0.20000000000000001
sVpointCloudSkew
p1434
F0.0
ssViterations
p1435
F263.921875
sVtrainingLoss
p1436
F342086.35051725892
sVminW
p1437
F-1.7075714632976826
sVtrainingError
p1438
F0.23724466964537738
sa(dp1439
VnDim
p1440
I54
sVpr
p1441
F0.79741625320566456
sg4
(dp1442
g6
F1.0000000000000001e-05
sg7
I10
sg8
I-1
sg9
g122
sg11
I10
sg12
I128
sg13
I4690
sg14
I2007
sg15
I-1
sg16
g17
sg18
I10
sg19
g20
sg21
S'cd /mnt/spark; sbin/stop-all.sh; sleep 5; sbin/start-all.sh; sleep 3;./bin/spark-submit --driver-memory 52g --class org.apache.spark.examples.mllib.research.SynchronousADMMTests examples/target/scala-*/spark-examples-*.jar --algorithm HOGWILD --regType L2 --regParam 10 --format bismarck --numPartitions 128 --runtimeMS 20000 --ADMMmaxLocalIterations 10 --ADMMepsilon 0.0 --ADMMLocalepsilon 1e-05 --ADMMrho 10 --ADMMLagrangianrho 10 --broadcastDelayMs 10 --dblpSplitYear 2007 --wikipediaTargetWordToken 4690 --inputTokenHashKernelDimension 100 --localTimeout -1  --input /user/root/bismarck_data/forest*   '
p1443
sg23
I10
sg24
F0.0
sg25
I100
sg26
g27
sg28
S'RESULT: {"trainingLoss": 401289.6169690868, "stats": {"stats": {"avgDualUpdates": [0.0, 0.0, 0.0], "primalAvg": [-2.7925941221666983, -0.09240493357781529, 0.20279395112930448, 0.575190971784823, 0.0732096913740938, 0.29116968161169904, 0.13046928098273272, 0.8380233064145383, -0.09752933440313327, 0.19040692781482094, 0.3102761299482147, 0.42723946580939487, 0.44270464295619716, -1.6548260808927, -0.4871147726685421, -0.8448176236294548, -0.4050091151900949, -0.8945087644171603, -0.404460274623744, -0.10207315134506213, 2.648919368954501, 0.25740872110963586, 0.04075797441572055, -0.350585154766701, -0.012206127449137431, 0.4045346778616191, 0.24020683978771126, -0.44726909896595746, 0.08784446107632438, 0.007512720578685358, -0.3146566538396017, -0.039118433997770305, -0.05688291666402503, -0.07386712861624894, -0.17774801597984408, -0.21066471093456574, -0.10453014011068514, 0.04998672743210078, 0.16541554681806775, 0.09830627690895015, -0.02362143355141075, 0.5292575452110574, 0.5660296112170813, 0.24048900960094918, 0.1154891047285294, 0.3622617870577778, 0.2318171294182289, 0.20254763680602222, -0.12699293370667658, -0.028879504556747454, -0.08247576508772285, -0.2679998915196229, -0.30732131757266423, -0.18053738938378797], "dualAvg": [0.0, 0.0, 0.0, 0.0, 0.0, 0.0, 0.0, 0.0, 0.0, 0.0, 0.0, 0.0, 0.0, 0.0, 0.0, 0.0, 0.0, 0.0, 0.0, 0.0, 0.0, 0.0, 0.0, 0.0, 0.0, 0.0, 0.0, 0.0, 0.0, 0.0, 0.0, 0.0, 0.0, 0.0, 0.0, 0.0, 0.0, 0.0, 0.0, 0.0, 0.0, 0.0, 0.0, 0.0, 0.0, 0.0, 0.0, 0.0, 0.0, 0.0, 0.0, 0.0, 0.0, 0.0], "avgResidual": [0.0, 0.0, 0.0], "avgMsgsSent": [1821.0, 1846.0, 1866.0], "avgMsgsRcvd": [12830.0, 12922.0, 13039.0], "avgLocalIters": [1306452.0, 1458029.375, 1602566.0], "avgSGDIters": [0.0, 0.0, 0.0]}, "avgMsgsSent": [1821.0, 1846.0, 1866.0], "avgMsgsRcvd": [12830.0, 12922.0, 13039.0], "iterations": 1458029.375, "runtime": 20556}, "params": {"format": "bismarck", "algParams": {"usePorkChop": false, "lagrangianRho": 10.0, "rho0": 10.0, "maxWorkerIterations": 10, "useLBFGS": false, "maxIterations": 1000, "eta0": 1.0, "runtimeMS": 20000, "adaptiveRho": false, "broadcastDelayMS": 10, "regParam": 10.0, "tol": 0.0, "displayIncrementalStats": false, "localTimeout": -1, "useLineSearch": false, "workerTol": 1.0E-5, "miniBatchSize": 10}, "wikipediaTargetWordToken": 4690, "dblpSplitYear": 2007, "regType": "L2", "algorithm": "HOGWILD", "inputTokenHashKernelDimension": 100, "useLR": false, "pointCloudPoints": 10000, "pointCloudDim": 10, "pointCloudSize": 1.0, "pointCloudSkew": 0.0, "input": "/user/root/bismarck_data/forest*", "numPartitions": 128, "pointCloudNoise": 0.2}, "nDim": 54, "algorithm": "HOGWILD", "pr": 0.7974162532056646, "totalLoss": 401406.26780237805, "nExamples": 581012, "runtimeMS": 20556, "regPenalty": 116.65083329121231, "trainingError": 0.24876078290981943, "maxW": 2.648919368954501, "minW": -2.7925941221666983, "iterations": 1458029.375, "roc": 0.824515350295605}\n'
p1444
sg30
I10
sg31
I-1
ssVstats
p1445
(dp1446
Vruntime
p1447
I20556
sVstats
p1448
(dp1449
VavgMsgsRcvd
p1450
(lp1451
F12830.0
aF12922.0
aF13039.0
asVavgMsgsSent
p1452
(lp1453
F1821.0
aF1846.0
aF1866.0
asVavgDualUpdates
p1454
(lp1455
F0.0
aF0.0
aF0.0
asVavgLocalIters
p1456
(lp1457
F1306452.0
aF1458029.375
aF1602566.0
asVavgResidual
p1458
(lp1459
F0.0
aF0.0
aF0.0
asVprimalAvg
p1460
(lp1461
F-2.7925941221666983
aF-0.09240493357781529
aF0.20279395112930448
aF0.57519097178482304
aF0.073209691374093805
aF0.29116968161169904
aF0.13046928098273272
aF0.83802330641453826
aF-0.097529334403133272
aF0.19040692781482094
aF0.31027612994821469
aF0.42723946580939487
aF0.44270464295619716
aF-1.6548260808927
aF-0.48711477266854208
aF-0.84481762362945478
aF-0.40500911519009491
aF-0.89450876441716032
aF-0.40446027462374401
aF-0.10207315134506213
aF2.648919368954501
aF0.25740872110963586
aF0.040757974415720551
aF-0.35058515476670099
aF-0.012206127449137431
aF0.40453467786161912
aF0.24020683978771126
aF-0.44726909896595746
aF0.087844461076324376
aF0.007512720578685358
aF-0.31465665383960167
aF-0.039118433997770305
aF-0.056882916664025028
aF-0.073867128616248945
aF-0.17774801597984408
aF-0.21066471093456574
aF-0.10453014011068514
aF0.04998672743210078
aF0.16541554681806775
aF0.098306276908950149
aF-0.023621433551410751
aF0.52925754521105739
aF0.56602961121708129
aF0.24048900960094918
aF0.1154891047285294
aF0.36226178705777778
aF0.23181712941822891
aF0.20254763680602222
aF-0.12699293370667658
aF-0.028879504556747454
aF-0.082475765087722849
aF-0.26799989151962289
aF-0.30732131757266423
aF-0.18053738938378797
asVdualAvg
p1462
(lp1463
F0.0
aF0.0
aF0.0
aF0.0
aF0.0
aF0.0
aF0.0
aF0.0
aF0.0
aF0.0
aF0.0
aF0.0
aF0.0
aF0.0
aF0.0
aF0.0
aF0.0
aF0.0
aF0.0
aF0.0
aF0.0
aF0.0
aF0.0
aF0.0
aF0.0
aF0.0
aF0.0
aF0.0
aF0.0
aF0.0
aF0.0
aF0.0
aF0.0
aF0.0
aF0.0
aF0.0
aF0.0
aF0.0
aF0.0
aF0.0
aF0.0
aF0.0
aF0.0
aF0.0
aF0.0
aF0.0
aF0.0
aF0.0
aF0.0
aF0.0
aF0.0
aF0.0
aF0.0
aF0.0
asVavgSGDIters
p1464
(lp1465
F0.0
aF0.0
aF0.0
assViterations
p1466
F1458029.375
sVavgMsgsRcvd
p1467
(lp1468
F12830.0
aF12922.0
aF13039.0
asVavgMsgsSent
p1469
(lp1470
F1821.0
aF1846.0
aF1866.0
assVtotalLoss
p1471
F401406.26780237805
sValgorithm
p1472
VHOGWILD
p1473
sVregPenalty
p1474
F116.65083329121231
sVroc
p1475
F0.82451535029560497
sVmaxW
p1476
F2.648919368954501
sVnExamples
p1477
I581012
sVruntimeMS
p1478
I20556
sVparams
p1479
(dp1480
VpointCloudDim
p1481
I10
sVinput
p1482
V/user/root/bismarck_data/forest*
p1483
sValgorithm
p1484
VHOGWILD
p1485
sVformat
p1486
Vbismarck
p1487
sVpointCloudSize
p1488
F1.0
sVwikipediaTargetWordToken
p1489
I4690
sVdblpSplitYear
p1490
I2007
sVnumPartitions
p1491
I128
sValgParams
p1492
(dp1493
VregParam
p1494
F10.0
sVmaxIterations
p1495
I1000
sVusePorkChop
p1496
I00
sVtol
p1497
F0.0
sVworkerTol
p1498
F1.0000000000000001e-05
sVadaptiveRho
p1499
I00
sVuseLBFGS
p1500
I00
sVrho0
p1501
F10.0
sVdisplayIncrementalStats
p1502
I00
sVminiBatchSize
p1503
I10
sVlocalTimeout
p1504
I-1
sVmaxWorkerIterations
p1505
I10
sVruntimeMS
p1506
I20000
sVbroadcastDelayMS
p1507
I10
sVeta0
p1508
F1.0
sVlagrangianRho
p1509
F10.0
sVuseLineSearch
p1510
I00
ssVinputTokenHashKernelDimension
p1511
I100
sVpointCloudPoints
p1512
I10000
sVregType
p1513
VL2
p1514
sVuseLR
p1515
I00
sVpointCloudNoise
p1516
F0.20000000000000001
sVpointCloudSkew
p1517
F0.0
ssViterations
p1518
F1458029.375
sVtrainingLoss
p1519
F401289.61696908681
sVminW
p1520
F-2.7925941221666983
sVtrainingError
p1521
F0.24876078290981943
sa(dp1522
VnDim
p1523
I54
sVpr
p1524
F0.78874928927682209
sg4
(dp1525
g6
F1.0000000000000001e-05
sg7
I-1
sg8
I-1
sg9
g206
sg11
I10
sg12
I128
sg13
I4690
sg14
I2007
sg15
I100000000
sg16
g17
sg18
I100000
sg19
g20
sg21
S'cd /mnt/spark; sbin/stop-all.sh; sleep 5; sbin/start-all.sh; sleep 3;./bin/spark-submit --driver-memory 52g --class org.apache.spark.examples.mllib.research.SynchronousADMMTests examples/target/scala-*/spark-examples-*.jar --algorithm ADMM --regType L2 --regParam 10 --format bismarck --numPartitions 128 --runtimeMS 20000 --ADMMmaxLocalIterations 100000 --ADMMepsilon 0.0 --ADMMLocalepsilon 1e-05 --ADMMrho 10 --ADMMLagrangianrho 10 --broadcastDelayMs -1 --dblpSplitYear 2007 --wikipediaTargetWordToken 4690 --inputTokenHashKernelDimension 100 --localTimeout 100000000  --input /user/root/bismarck_data/forest*   '
p1526
sg23
I10
sg24
F0.0
sg25
I100
sg26
g27
sg28
S'RESULT: {"trainingLoss": 339700.8435143303, "stats": {"dualAvgNorm": 0.0, "stats": {"avgDualUpdates": [19.0, 19.0, 19.0], "primalAvg": [-1.5313008686931229, -0.017361575678673073, 0.06412875141864213, 0.26409081827445813, 0.024635960582308457, 0.19163440267462614, 0.047636281555342955, 0.3418733168741313, -0.05499820702587153, -0.0263208479065757, 0.2379553545805519, 0.17848544871358207, 0.17357989759891682, -0.998957020512828, -0.1689857105866373, -0.4318022290732663, -0.21212057846794818, -0.4898720298207579, -0.1434894170973394, -0.034668224411251815, 1.085950135588924, 0.13576972159393869, 0.04045485685647332, -0.10854984860574465, 0.008769798457398796, 0.10399168173165423, 0.10001454834624918, -0.21935912431392027, -0.007260257527473752, -0.021196139393263237, -0.18422478518012722, -0.020606855177117266, -0.02976352504582107, -0.04366188366679863, -0.08031231592325455, -0.11398478605109309, -0.08996013793708028, 0.02781713808949265, 0.0805623146067606, 0.05084434009387223, 0.0022150104468711797, 0.2857211936609005, 0.16298783539141912, 0.07261026491992101, 0.09342800280561543, 0.24161649509405297, 0.1351940809582839, 0.11924840626516002, -0.02299354021274726, -0.062481414598862736, -0.036382224277644884, -0.038385066255607045, -0.05748040304658164, -0.010313702960508656], "dualAvg": [0.0, 0.0, 0.0, 0.0, 0.0, 0.0, 0.0, 0.0, 0.0, 0.0, 0.0, 0.0, 0.0, 0.0, 0.0, 0.0, 0.0, 0.0, 0.0, 0.0, 0.0, 0.0, 0.0, 0.0, 0.0, 0.0, 0.0, 0.0, 0.0, 0.0, 0.0, 0.0, 0.0, 0.0, 0.0, 0.0, 0.0, 0.0, 0.0, 0.0, 0.0, 0.0, 0.0, 0.0, 0.0, 0.0, 0.0, 0.0, 0.0, 0.0, 0.0, 0.0, 0.0, 0.0], "avgResidual": [9.95855996439723E-6, 0.01972092899821855, 0.04447919340838195], "avgMsgsSent": [0.0, 0.0, 0.0], "avgMsgsRcvd": [0.0, 0.0, 0.0], "avgLocalIters": [0.0, 0.0, 0.0], "avgSGDIters": [1700.0, 5086.03125, 5800.0]}, "dualUpdates": [19.0, 19.0, 19.0], "primalAvgNorm": 2.4075816834478734, "avgSGDIters": [1700.0, 5086.03125, 5800.0], "iterations": 19, "runtime": 20124, "consensusNorm": 2.3889182595451772}, "params": {"format": "bismarck", "algParams": {"usePorkChop": false, "lagrangianRho": 10.0, "rho0": 10.0, "maxWorkerIterations": 100000, "useLBFGS": false, "maxIterations": 1000, "eta0": 1.0, "runtimeMS": 20000, "adaptiveRho": false, "broadcastDelayMS": -1, "regParam": 10.0, "tol": 0.0, "displayIncrementalStats": false, "localTimeout": 100000000, "useLineSearch": false, "workerTol": 1.0E-5, "miniBatchSize": 10}, "wikipediaTargetWordToken": 4690, "dblpSplitYear": 2007, "regType": "L2", "algorithm": "ADMM", "inputTokenHashKernelDimension": 100, "useLR": false, "pointCloudPoints": 10000, "pointCloudDim": 10, "pointCloudSize": 1.0, "pointCloudSkew": 0.0, "input": "/user/root/bismarck_data/forest*", "numPartitions": 128, "pointCloudNoise": 0.2}, "nDim": 54, "algorithm": "ADMM", "pr": 0.7887492892768221, "totalLoss": 339729.37816658424, "nExamples": 581012, "runtimeMS": 20124, "regPenalty": 28.534652253941793, "trainingError": 0.23720164127419055, "maxW": 1.0775319174835836, "minW": -1.5194303193234087, "iterations": 19, "roc": 0.8226487663457559}\n'
p1527
sg30
I10
sg31
I-1
ssVstats
p1528
(dp1529
Vstats
p1530
(dp1531
VavgMsgsRcvd
p1532
(lp1533
F0.0
aF0.0
aF0.0
asVavgMsgsSent
p1534
(lp1535
F0.0
aF0.0
aF0.0
asVavgDualUpdates
p1536
(lp1537
F19.0
aF19.0
aF19.0
asVavgLocalIters
p1538
(lp1539
F0.0
aF0.0
aF0.0
asVavgResidual
p1540
(lp1541
F9.9585599643972304e-06
aF0.019720928998218552
aF0.044479193408381953
asVprimalAvg
p1542
(lp1543
F-1.5313008686931229
aF-0.017361575678673073
aF0.064128751418642133
aF0.26409081827445813
aF0.024635960582308457
aF0.19163440267462614
aF0.047636281555342955
aF0.34187331687413131
aF-0.054998207025871527
aF-0.026320847906575701
aF0.23795535458055189
aF0.17848544871358207
aF0.17357989759891682
aF-0.99895702051282798
aF-0.16898571058663731
aF-0.43180222907326632
aF-0.21212057846794818
aF-0.48987202982075789
aF-0.14348941709733939
aF-0.034668224411251815
aF1.0859501355889241
aF0.13576972159393869
aF0.04045485685647332
aF-0.10854984860574465
aF0.0087697984573987964
aF0.10399168173165423
aF0.10001454834624918
aF-0.21935912431392027
aF-0.0072602575274737522
aF-0.021196139393263237
aF-0.18422478518012722
aF-0.020606855177117266
aF-0.029763525045821072
aF-0.043661883666798629
aF-0.080312315923254551
aF-0.11398478605109309
aF-0.089960137937080284
aF0.027817138089492651
aF0.080562314606760596
aF0.050844340093872231
aF0.0022150104468711797
aF0.28572119366090049
aF0.16298783539141912
aF0.072610264919921008
aF0.093428002805615432
aF0.24161649509405297
aF0.13519408095828389
aF0.11924840626516002
aF-0.022993540212747261
aF-0.062481414598862736
aF-0.036382224277644884
aF-0.038385066255607045
aF-0.057480403046581641
aF-0.010313702960508656
asVdualAvg
p1544
(lp1545
F0.0
aF0.0
aF0.0
aF0.0
aF0.0
aF0.0
aF0.0
aF0.0
aF0.0
aF0.0
aF0.0
aF0.0
aF0.0
aF0.0
aF0.0
aF0.0
aF0.0
aF0.0
aF0.0
aF0.0
aF0.0
aF0.0
aF0.0
aF0.0
aF0.0
aF0.0
aF0.0
aF0.0
aF0.0
aF0.0
aF0.0
aF0.0
aF0.0
aF0.0
aF0.0
aF0.0
aF0.0
aF0.0
aF0.0
aF0.0
aF0.0
aF0.0
aF0.0
aF0.0
aF0.0
aF0.0
aF0.0
aF0.0
aF0.0
aF0.0
aF0.0
aF0.0
aF0.0
aF0.0
asVavgSGDIters
p1546
(lp1547
F1700.0
aF5086.03125
aF5800.0
assVconsensusNorm
p1548
F2.3889182595451772
sVdualUpdates
p1549
(lp1550
F19.0
aF19.0
aF19.0
asVdualAvgNorm
p1551
F0.0
sVprimalAvgNorm
p1552
F2.4075816834478734
sViterations
p1553
I19
sVruntime
p1554
I20124
sVavgSGDIters
p1555
(lp1556
F1700.0
aF5086.03125
aF5800.0
assVtotalLoss
p1557
F339729.37816658424
sValgorithm
p1558
VADMM
p1559
sVregPenalty
p1560
F28.534652253941793
sVroc
p1561
F0.8226487663457559
sVmaxW
p1562
F1.0775319174835836
sVnExamples
p1563
I581012
sVruntimeMS
p1564
I20124
sVparams
p1565
(dp1566
VpointCloudDim
p1567
I10
sVinput
p1568
V/user/root/bismarck_data/forest*
p1569
sValgorithm
p1570
VADMM
p1571
sVformat
p1572
Vbismarck
p1573
sVpointCloudSize
p1574
F1.0
sVwikipediaTargetWordToken
p1575
I4690
sVdblpSplitYear
p1576
I2007
sVnumPartitions
p1577
I128
sValgParams
p1578
(dp1579
VregParam
p1580
F10.0
sVmaxIterations
p1581
I1000
sVusePorkChop
p1582
I00
sVtol
p1583
F0.0
sVworkerTol
p1584
F1.0000000000000001e-05
sVadaptiveRho
p1585
I00
sVuseLBFGS
p1586
I00
sVrho0
p1587
F10.0
sVdisplayIncrementalStats
p1588
I00
sVminiBatchSize
p1589
I10
sVlocalTimeout
p1590
I100000000
sVmaxWorkerIterations
p1591
I100000
sVruntimeMS
p1592
I20000
sVbroadcastDelayMS
p1593
I-1
sVeta0
p1594
F1.0
sVlagrangianRho
p1595
F10.0
sVuseLineSearch
p1596
I00
ssVinputTokenHashKernelDimension
p1597
I100
sVpointCloudPoints
p1598
I10000
sVregType
p1599
VL2
p1600
sVuseLR
p1601
I00
sVpointCloudNoise
p1602
F0.20000000000000001
sVpointCloudSkew
p1603
F0.0
ssViterations
p1604
I19
sVtrainingLoss
p1605
F339700.84351433028
sVminW
p1606
F-1.5194303193234087
sVtrainingError
p1607
F0.23720164127419055
sa(dp1608
VnDim
p1609
I54
sVpr
p1610
F0.79077701059551342
sg4
(dp1611
g6
F0.001
sg7
I-1
sg8
I-1
sg9
g293
sg11
I10
sg12
I128
sg13
I4690
sg14
I2007
sg15
I500
sg16
g17
sg18
I100000000
sg19
g20
sg21
S'cd /mnt/spark; sbin/stop-all.sh; sleep 5; sbin/start-all.sh; sleep 3;./bin/spark-submit --driver-memory 52g --class org.apache.spark.examples.mllib.research.SynchronousADMMTests examples/target/scala-*/spark-examples-*.jar --algorithm MiniBatchADMM --regType L2 --regParam 10 --format bismarck --numPartitions 128 --runtimeMS 20000 --ADMMmaxLocalIterations 100000000 --ADMMepsilon 0.0 --ADMMLocalepsilon 0.001 --ADMMrho 10 --ADMMLagrangianrho 10 --broadcastDelayMs -1 --dblpSplitYear 2007 --wikipediaTargetWordToken 4690 --inputTokenHashKernelDimension 100 --localTimeout 500  --input /user/root/bismarck_data/forest*   '
p1612
sg23
I10
sg24
F0.0
sg25
I100
sg26
g27
sg28
S'RESULT: {"trainingLoss": 340238.898639109, "stats": {"dualAvgNorm": 0.0, "stats": {"avgDualUpdates": [41.0, 41.0, 41.0], "primalAvg": [-1.586184114562874, -0.020692774339769203, 0.07171644255406948, 0.27818258843136734, 0.01902151833722953, 0.19728702088406794, 0.05405390916689174, 0.3675623346230214, -0.05003499368331936, -0.020486090585061664, 0.252022435891214, 0.18663810953236676, 0.176611719866165, -1.041157285145783, -0.20835818165409764, -0.45098860094965615, -0.2135906766601175, -0.5007507347893094, -0.1508985575533433, -0.050270715033298545, 1.1713350794057071, -0.026500464274339424, 0.027147673079516495, -0.11982877721154572, 0.010207810454109631, 0.1218994613184909, 0.11202915417387146, -0.18876485751135727, -0.0779436378283552, -3.393654752432085E-4, -0.2053055822668569, 0.0038902914219379045, -0.022806425940844952, -0.02844364826927172, -0.08815997203795013, -0.1277398454476528, -0.09099682454718903, 0.03756549344096952, 0.07107364783631416, 0.060512344214156556, 0.006492742550663722, 0.21704870338716675, 0.1817697688590797, 0.07123571469593361, 0.09354636468915185, 0.24719794792763755, 0.14169228489850466, 0.12414582801389847, -0.036654409066252336, 0.054944922391011945, -0.016070875345777683, -0.04911324135092625, -0.06939246569737963, -0.02311737252547118], "dualAvg": [0.0, 0.0, 0.0, 0.0, 0.0, 0.0, 0.0, 0.0, 0.0, 0.0, 0.0, 0.0, 0.0, 0.0, 0.0, 0.0, 0.0, 0.0, 0.0, 0.0, 0.0, 0.0, 0.0, 0.0, 0.0, 0.0, 0.0, 0.0, 0.0, 0.0, 0.0, 0.0, 0.0, 0.0, 0.0, 0.0, 0.0, 0.0, 0.0, 0.0, 0.0, 0.0, 0.0, 0.0, 0.0, 0.0, 0.0, 0.0, 0.0, 0.0, 0.0, 0.0, 0.0, 0.0], "avgResidual": [8.967013469247557E-6, 0.0022610873242533687, 0.0274346037161189], "avgMsgsSent": [0.0, 0.0, 0.0], "avgMsgsRcvd": [0.0, 0.0, 0.0], "avgLocalIters": [0.0, 0.0, 0.0], "avgSGDIters": [15.0, 3046.375, 13401.0]}, "dualUpdates": [41.0, 41.0, 41.0], "primalAvgNorm": 2.511418375154027, "avgSGDIters": [15.0, 3046.375, 13401.0], "iterations": 41, "runtime": 20072, "consensusNorm": 2.4919500156567094}, "params": {"format": "bismarck", "algParams": {"usePorkChop": false, "lagrangianRho": 10.0, "rho0": 10.0, "maxWorkerIterations": 100000000, "useLBFGS": false, "maxIterations": 1000, "eta0": 1.0, "runtimeMS": 20000, "adaptiveRho": false, "broadcastDelayMS": -1, "regParam": 10.0, "tol": 0.0, "displayIncrementalStats": false, "localTimeout": 500, "useLineSearch": false, "workerTol": 0.001, "miniBatchSize": 10}, "wikipediaTargetWordToken": 4690, "dblpSplitYear": 2007, "regType": "L2", "algorithm": "MiniBatchADMM", "inputTokenHashKernelDimension": 100, "useLR": false, "pointCloudPoints": 10000, "pointCloudDim": 10, "pointCloudSize": 1.0, "pointCloudSkew": 0.0, "input": "/user/root/bismarck_data/forest*", "numPartitions": 128, "pointCloudNoise": 0.2}, "nDim": 54, "algorithm": "MiniBatchADMM", "pr": 0.7907770105955134, "totalLoss": 340269.94771351165, "nExamples": 581012, "runtimeMS": 20072, "regPenalty": 31.04907440265737, "trainingError": 0.23786083592077273, "maxW": 1.1622549625110892, "minW": -1.5738881136747895, "iterations": 41, "roc": 0.8232900343718427}\n'
p1613
sg30
I10
sg31
I-1
ssVstats
p1614
(dp1615
Vstats
p1616
(dp1617
VavgMsgsRcvd
p1618
(lp1619
F0.0
aF0.0
aF0.0
asVavgMsgsSent
p1620
(lp1621
F0.0
aF0.0
aF0.0
asVavgDualUpdates
p1622
(lp1623
F41.0
aF41.0
aF41.0
asVavgLocalIters
p1624
(lp1625
F0.0
aF0.0
aF0.0
asVavgResidual
p1626
(lp1627
F8.9670134692475567e-06
aF0.0022610873242533687
aF0.027434603716118899
asVprimalAvg
p1628
(lp1629
F-1.5861841145628739
aF-0.020692774339769203
aF0.071716442554069476
aF0.27818258843136734
aF0.01902151833722953
aF0.19728702088406794
aF0.054053909166891741
aF0.3675623346230214
aF-0.050034993683319359
aF-0.020486090585061664
aF0.25202243589121398
aF0.18663810953236676
aF0.176611719866165
aF-1.0411572851457831
aF-0.20835818165409764
aF-0.45098860094965615
aF-0.2135906766601175
aF-0.50075073478930943
aF-0.1508985575533433
aF-0.050270715033298545
aF1.1713350794057071
aF-0.026500464274339424
aF0.027147673079516495
aF-0.11982877721154572
aF0.010207810454109631
aF0.1218994613184909
aF0.11202915417387146
aF-0.18876485751135727
aF-0.0779436378283552
aF-0.0003393654752432085
aF-0.20530558226685691
aF0.0038902914219379045
aF-0.022806425940844952
aF-0.028443648269271721
aF-0.088159972037950132
aF-0.12773984544765279
aF-0.090996824547189034
aF0.037565493440969523
aF0.07107364783631416
aF0.060512344214156556
aF0.0064927425506637222
aF0.21704870338716675
aF0.18176976885907969
aF0.071235714695933608
aF0.093546364689151854
aF0.24719794792763755
aF0.14169228489850466
aF0.12414582801389847
aF-0.036654409066252336
aF0.054944922391011945
aF-0.016070875345777683
aF-0.049113241350926248
aF-0.069392465697379627
aF-0.023117372525471181
asVdualAvg
p1630
(lp1631
F0.0
aF0.0
aF0.0
aF0.0
aF0.0
aF0.0
aF0.0
aF0.0
aF0.0
aF0.0
aF0.0
aF0.0
aF0.0
aF0.0
aF0.0
aF0.0
aF0.0
aF0.0
aF0.0
aF0.0
aF0.0
aF0.0
aF0.0
aF0.0
aF0.0
aF0.0
aF0.0
aF0.0
aF0.0
aF0.0
aF0.0
aF0.0
aF0.0
aF0.0
aF0.0
aF0.0
aF0.0
aF0.0
aF0.0
aF0.0
aF0.0
aF0.0
aF0.0
aF0.0
aF0.0
aF0.0
aF0.0
aF0.0
aF0.0
aF0.0
aF0.0
aF0.0
aF0.0
aF0.0
asVavgSGDIters
p1632
(lp1633
F15.0
aF3046.375
aF13401.0
assVconsensusNorm
p1634
F2.4919500156567094
sVdualUpdates
p1635
(lp1636
F41.0
aF41.0
aF41.0
asVdualAvgNorm
p1637
F0.0
sVprimalAvgNorm
p1638
F2.5114183751540269
sViterations
p1639
I41
sVruntime
p1640
I20072
sVavgSGDIters
p1641
(lp1642
F15.0
aF3046.375
aF13401.0
assVtotalLoss
p1643
F340269.94771351165
sValgorithm
p1644
VMiniBatchADMM
p1645
sVregPenalty
p1646
F31.049074402657372
sVroc
p1647
F0.82329003437184267
sVmaxW
p1648
F1.1622549625110892
sVnExamples
p1649
I581012
sVruntimeMS
p1650
I20072
sVparams
p1651
(dp1652
VpointCloudDim
p1653
I10
sVinput
p1654
V/user/root/bismarck_data/forest*
p1655
sValgorithm
p1656
VMiniBatchADMM
p1657
sVformat
p1658
Vbismarck
p1659
sVpointCloudSize
p1660
F1.0
sVwikipediaTargetWordToken
p1661
I4690
sVdblpSplitYear
p1662
I2007
sVnumPartitions
p1663
I128
sValgParams
p1664
(dp1665
VregParam
p1666
F10.0
sVmaxIterations
p1667
I1000
sVusePorkChop
p1668
I00
sVtol
p1669
F0.0
sVworkerTol
p1670
F0.001
sVadaptiveRho
p1671
I00
sVuseLBFGS
p1672
I00
sVrho0
p1673
F10.0
sVdisplayIncrementalStats
p1674
I00
sVminiBatchSize
p1675
I10
sVlocalTimeout
p1676
I500
sVmaxWorkerIterations
p1677
I100000000
sVruntimeMS
p1678
I20000
sVbroadcastDelayMS
p1679
I-1
sVeta0
p1680
F1.0
sVlagrangianRho
p1681
F10.0
sVuseLineSearch
p1682
I00
ssVinputTokenHashKernelDimension
p1683
I100
sVpointCloudPoints
p1684
I10000
sVregType
p1685
VL2
p1686
sVuseLR
p1687
I00
sVpointCloudNoise
p1688
F0.20000000000000001
sVpointCloudSkew
p1689
F0.0
ssViterations
p1690
I41
sVtrainingLoss
p1691
F340238.89863910899
sVminW
p1692
F-1.5738881136747895
sVtrainingError
p1693
F0.23786083592077273
sa(dp1694
VnDim
p1695
I54
sVpr
p1696
F0.78772642075619914
sg4
(dp1697
g6
F1.0000000000000001e-05
sg7
I100
sg8
I-1
sg9
g380
sg11
I10
sg12
I128
sg13
I4690
sg14
I2007
sg15
I500
sg16
g17
sg18
I100000
sg19
g20
sg21
S'cd /mnt/spark; sbin/stop-all.sh; sleep 5; sbin/start-all.sh; sleep 3;./bin/spark-submit --driver-memory 52g --class org.apache.spark.examples.mllib.research.SynchronousADMMTests examples/target/scala-*/spark-examples-*.jar --algorithm AsyncADMM --regType L2 --regParam 10 --format bismarck --numPartitions 128 --runtimeMS 20000 --ADMMmaxLocalIterations 100000 --ADMMepsilon 0.0 --ADMMLocalepsilon 1e-05 --ADMMrho 10 --ADMMLagrangianrho 10 --broadcastDelayMs 100 --dblpSplitYear 2007 --wikipediaTargetWordToken 4690 --inputTokenHashKernelDimension 100 --localTimeout 500  --input /user/root/bismarck_data/forest*   '
p1698
sg23
I10
sg24
F0.0
sg25
I100
sg26
g27
sg28
S'RESULT: {"trainingLoss": 341500.2499504827, "stats": {"dualAvgNorm": 0.0, "stats": {"avgDualUpdates": [42.0, 74.015625, 122.0], "primalAvg": [-1.3514088336549435, -0.015316239606360105, 0.06653324618275654, 0.2316598306859594, 0.018419937627780505, 0.17121494080931904, 0.07500514066991334, 0.2803917066739589, -0.011012614300302315, -0.01564057251077846, 0.20679507052044763, 0.16486045884544598, 0.15468108586726492, -0.8847902978203575, -0.14183669858330794, -0.3806135245462555, -0.1867533615956487, -0.4331243965345449, -0.11149096918499823, -0.02802904704838808, 0.4621454991125811, 0.17331938309272668, 0.06088374696416848, -0.09175961445681419, 0.011155528890543802, 0.08915849958823509, 0.08754288652672225, -0.15571828570017854, 0.05978395221524152, -0.017289274562070377, -0.16144787164117233, 0.004925498007557037, -0.03319441273412843, -0.03886628784205514, -0.07165868591915377, -0.10335064331005686, -0.08439152987150124, 0.02587112727142632, 0.1075515955222684, 0.04220482534160475, 0.009924005678131648, 0.3120034138492006, 0.14705690408476188, 0.06222773985179866, 0.07898757409200484, 0.21124577810112763, 0.11542169802650218, 0.12026117820791875, -0.02182626584815286, -0.010150071722107802, -0.028991658395861437, -0.03643778094276255, -0.054160398672953206, -0.014578345360098312], "dualAvg": [0.0, 0.0, 0.0, 0.0, 0.0, 0.0, 0.0, 0.0, 0.0, 0.0, 0.0, 0.0, 0.0, 0.0, 0.0, 0.0, 0.0, 0.0, 0.0, 0.0, 0.0, 0.0, 0.0, 0.0, 0.0, 0.0, 0.0, 0.0, 0.0, 0.0, 0.0, 0.0, 0.0, 0.0, 0.0, 0.0, 0.0, 0.0, 0.0, 0.0, 0.0, 0.0, 0.0, 0.0, 0.0, 0.0, 0.0, 0.0, 0.0, 0.0, 0.0, 0.0, 0.0, 0.0], "avgResidual": [0.0, 0.0, 0.0], "avgMsgsSent": [42.0, 74.015625, 122.0], "avgMsgsRcvd": [413.0, 515.625, 675.0], "avgLocalIters": [42.0, 74.015625, 122.0], "avgSGDIters": [100.0, 13926.921875, 70200.0]}, "iterInterval": [42.0, 74.015625, 122.0], "avgMsgsSent": [42.0, 74.015625, 122.0], "dualUpdates": [42.0, 74.015625, 122.0], "avgMsgsRcvd": [413.0, 515.625, 675.0], "primalAvgNorm": 1.9618975502086022, "avgSGDIters": [100.0, 13926.921875, 70200.0], "iterations": 74.015625, "runtime": 20208, "consensusNorm": 1.9466890420674507}, "params": {"format": "bismarck", "algParams": {"usePorkChop": false, "lagrangianRho": 10.0, "rho0": 10.0, "maxWorkerIterations": 100000, "useLBFGS": false, "maxIterations": 1000, "eta0": 1.0, "runtimeMS": 20000, "adaptiveRho": false, "broadcastDelayMS": 100, "regParam": 10.0, "tol": 0.0, "displayIncrementalStats": false, "localTimeout": 500, "useLineSearch": false, "workerTol": 1.0E-5, "miniBatchSize": 10}, "wikipediaTargetWordToken": 4690, "dblpSplitYear": 2007, "regType": "L2", "algorithm": "AsyncADMM", "inputTokenHashKernelDimension": 100, "useLR": false, "pointCloudPoints": 10000, "pointCloudDim": 10, "pointCloudSize": 1.0, "pointCloudSkew": 0.0, "input": "/user/root/bismarck_data/forest*", "numPartitions": 128, "pointCloudNoise": 0.2}, "nDim": 54, "algorithm": "AsyncADMM", "pr": 0.7877264207561991, "totalLoss": 341519.1979416152, "nExamples": 581012, "runtimeMS": 20208, "regPenalty": 18.947991132527445, "trainingError": 0.23733416865744597, "maxW": 0.4585629758636464, "minW": -1.3409327961847501, "iterations": 74.015625, "roc": 0.8225166899515042}\n'
p1699
sg30
I10
sg31
I-1
ssVstats
p1700
(dp1701
Vstats
p1702
(dp1703
VavgMsgsRcvd
p1704
(lp1705
F413.0
aF515.625
aF675.0
asVavgMsgsSent
p1706
(lp1707
F42.0
aF74.015625
aF122.0
asVavgDualUpdates
p1708
(lp1709
F42.0
aF74.015625
aF122.0
asVavgLocalIters
p1710
(lp1711
F42.0
aF74.015625
aF122.0
asVavgResidual
p1712
(lp1713
F0.0
aF0.0
aF0.0
asVprimalAvg
p1714
(lp1715
F-1.3514088336549435
aF-0.015316239606360105
aF0.066533246182756536
aF0.23165983068595941
aF0.018419937627780505
aF0.17121494080931904
aF0.075005140669913345
aF0.28039170667395891
aF-0.011012614300302315
aF-0.01564057251077846
aF0.20679507052044763
aF0.16486045884544598
aF0.15468108586726492
aF-0.88479029782035745
aF-0.14183669858330794
aF-0.38061352454625552
aF-0.1867533615956487
aF-0.43312439653454488
aF-0.11149096918499823
aF-0.02802904704838808
aF0.46214549911258113
aF0.17331938309272668
aF0.060883746964168477
aF-0.091759614456814187
aF0.011155528890543802
aF0.089158499588235088
aF0.087542886526722249
aF-0.15571828570017854
aF0.05978395221524152
aF-0.017289274562070377
aF-0.16144787164117233
aF0.004925498007557037
aF-0.033194412734128431
aF-0.03886628784205514
aF-0.071658685919153767
aF-0.10335064331005686
aF-0.084391529871501239
aF0.02587112727142632
aF0.1075515955222684
aF0.042204825341604753
aF0.0099240056781316477
aF0.31200341384920061
aF0.14705690408476188
aF0.062227739851798657
aF0.078987574092004839
aF0.21124577810112763
aF0.11542169802650218
aF0.12026117820791875
aF-0.021826265848152861
aF-0.010150071722107802
aF-0.028991658395861437
aF-0.036437780942762552
aF-0.054160398672953206
aF-0.014578345360098312
asVdualAvg
p1716
(lp1717
F0.0
aF0.0
aF0.0
aF0.0
aF0.0
aF0.0
aF0.0
aF0.0
aF0.0
aF0.0
aF0.0
aF0.0
aF0.0
aF0.0
aF0.0
aF0.0
aF0.0
aF0.0
aF0.0
aF0.0
aF0.0
aF0.0
aF0.0
aF0.0
aF0.0
aF0.0
aF0.0
aF0.0
aF0.0
aF0.0
aF0.0
aF0.0
aF0.0
aF0.0
aF0.0
aF0.0
aF0.0
aF0.0
aF0.0
aF0.0
aF0.0
aF0.0
aF0.0
aF0.0
aF0.0
aF0.0
aF0.0
aF0.0
aF0.0
aF0.0
aF0.0
aF0.0
aF0.0
aF0.0
asVavgSGDIters
p1718
(lp1719
F100.0
aF13926.921875
aF70200.0
assVconsensusNorm
p1720
F1.9466890420674507
sVavgMsgsRcvd
p1721
(lp1722
F413.0
aF515.625
aF675.0
asVavgMsgsSent
p1723
(lp1724
F42.0
aF74.015625
aF122.0
asVdualUpdates
p1725
(lp1726
F42.0
aF74.015625
aF122.0
asVdualAvgNorm
p1727
F0.0
sVprimalAvgNorm
p1728
F1.9618975502086022
sViterInterval
p1729
(lp1730
F42.0
aF74.015625
aF122.0
asViterations
p1731
F74.015625
sVruntime
p1732
I20208
sVavgSGDIters
p1733
(lp1734
F100.0
aF13926.921875
aF70200.0
assVtotalLoss
p1735
F341519.19794161519
sValgorithm
p1736
VAsyncADMM
p1737
sVregPenalty
p1738
F18.947991132527445
sVroc
p1739
F0.82251668995150418
sVmaxW
p1740
F0.45856297586364642
sVnExamples
p1741
I581012
sVruntimeMS
p1742
I20208
sVparams
p1743
(dp1744
VpointCloudDim
p1745
I10
sVinput
p1746
V/user/root/bismarck_data/forest*
p1747
sValgorithm
p1748
VAsyncADMM
p1749
sVformat
p1750
Vbismarck
p1751
sVpointCloudSize
p1752
F1.0
sVwikipediaTargetWordToken
p1753
I4690
sVdblpSplitYear
p1754
I2007
sVnumPartitions
p1755
I128
sValgParams
p1756
(dp1757
VregParam
p1758
F10.0
sVmaxIterations
p1759
I1000
sVusePorkChop
p1760
I00
sVtol
p1761
F0.0
sVworkerTol
p1762
F1.0000000000000001e-05
sVadaptiveRho
p1763
I00
sVuseLBFGS
p1764
I00
sVrho0
p1765
F10.0
sVdisplayIncrementalStats
p1766
I00
sVminiBatchSize
p1767
I10
sVlocalTimeout
p1768
I500
sVmaxWorkerIterations
p1769
I100000
sVruntimeMS
p1770
I20000
sVbroadcastDelayMS
p1771
I100
sVeta0
p1772
F1.0
sVlagrangianRho
p1773
F10.0
sVuseLineSearch
p1774
I00
ssVinputTokenHashKernelDimension
p1775
I100
sVpointCloudPoints
p1776
I10000
sVregType
p1777
VL2
p1778
sVuseLR
p1779
I00
sVpointCloudNoise
p1780
F0.20000000000000001
sVpointCloudSkew
p1781
F0.0
ssViterations
p1782
F74.015625
sVtrainingLoss
p1783
F341500.24995048268
sVminW
p1784
F-1.3409327961847501
sVtrainingError
p1785
F0.23733416865744597
sa(dp1786
VnDim
p1787
I54
sVpr
p1788
F0.78873588699325692
sg4
(dp1789
g6
F0.001
sg7
I10
sg8
I-1
sg9
g10
sg11
I10
sg12
I128
sg13
I4690
sg14
I2007
sg15
I-1
sg16
g17
sg18
I100000
sg19
g20
sg21
S'cd /mnt/spark; sbin/stop-all.sh; sleep 5; sbin/start-all.sh; sleep 3;./bin/spark-submit --driver-memory 52g --class org.apache.spark.examples.mllib.research.SynchronousADMMTests examples/target/scala-*/spark-examples-*.jar --algorithm PORKCHOP --regType L2 --regParam 10 --format bismarck --numPartitions 128 --runtimeMS 40000 --ADMMmaxLocalIterations 100000 --ADMMepsilon 0.0 --ADMMLocalepsilon 0.001 --ADMMrho 10 --ADMMLagrangianrho 10 --broadcastDelayMs 10 --dblpSplitYear 2007 --wikipediaTargetWordToken 4690 --inputTokenHashKernelDimension 100 --localTimeout -1  --input /user/root/bismarck_data/forest*   '
p1790
sg23
I10
sg24
F0.0
sg25
I100
sg26
g27
sg28
S'RESULT: {"trainingLoss": 342028.05353703635, "stats": {"dualAvgNorm": 3.0644998668262105, "stats": {"avgDualUpdates": [321.0, 506.953125, 702.0], "primalAvg": [-1.532240149487234, -0.012763958039889268, 0.0696487881982431, 0.27016072171973887, 0.02158332656101939, 0.19215438749697233, 0.07852827364819027, 0.3301449506061189, -0.021385266335968312, -0.022009095919921208, 0.24161936994625757, 0.17851623269284078, 0.17425174892085424, -1.007806541371204, -0.18705885119037186, -0.43356199150718827, -0.19762440072295, -0.49819327899087185, -0.13773862843214515, -0.03282922389910432, 1.1477526811647152, 0.14105328626441005, 0.012077092265185066, -0.10381496889799426, 0.009278580959735012, 0.11129562278470848, 0.10051283740483508, -0.19882488251963776, 0.1170124879197856, -0.009922198327882934, -0.19906898169639203, -0.03411806929296099, -0.033751586167439826, -0.03719912772288694, -0.08755404925979351, -0.1147721717899061, -0.09522010768936069, 0.033530573671624105, 0.09917980703713905, 0.047627941685356646, -0.00807317610407254, 0.2612732810225319, 0.1733213859878964, 0.07471766127860191, 0.09010876004905433, 0.23700884734524993, 0.13517735026567895, 0.10276776188125498, -0.027672347689069603, -0.0050418928144426705, -0.03589651499706614, -0.03882329205295149, -0.06374959937121599, -0.0194724821644078], "dualAvg": [-1.9381628214829738, -0.05765662272452887, 0.08540548948510113, 0.325022867725537, 0.02886871413582004, 0.25124393723936317, 0.09652814617405762, 0.39168068059130523, -0.031778729657596066, -0.0395260099649917, 0.31865752069107156, 0.23692288073388978, 0.21079416821062635, -1.2918578720555611, -0.25700728499891756, -0.5494140354906616, -0.2344050383612394, -0.5946908350485656, -0.16607378711944737, -0.04117280106738676, 1.4310005600194482, 0.08655850958895522, 0.01922422488335493, -0.14749656098813657, 0.016281505328582413, 0.10823403407112145, 0.13102494001249543, -0.18197897856204504, 0.16026437966443596, -0.04566806631010767, -0.24843278422277104, -0.027302617586118627, -0.06187918940851911, -0.043013014098706115, -0.10822947415100381, -0.12902410702065134, -0.13134612548572558, 0.008574691653641081, 0.06230124241178665, 0.09690596820607127, 0.00593739192250109, 0.2395079645253336, 0.2085207442261942, 0.10633585090307307, 0.11113110677674831, 0.30293622268552745, 0.1897833450438116, 0.152199385089198, -0.026435212950559436, -0.1898718298564709, -0.0272422308163542, -0.04025686564562175, -0.05379552390440809, 0.018966175295028725], "avgResidual": [0.0, 0.0, 0.0], "avgMsgsSent": [0.0, 0.0, 0.0], "avgMsgsRcvd": [3001.0, 3470.1171875, 4078.0], "avgLocalIters": [321.0, 506.953125, 702.0], "avgSGDIters": [100.0, 5710.5, 33800.0]}, "iterInterval": [321.0, 506.953125, 702.0], "avgMsgsSent": [0.0, 0.0, 0.0], "dualUpdates": [321.0, 506.953125, 702.0], "avgMsgsRcvd": [3001.0, 3470.1171875, 4078.0], "primalAvgNorm": 2.4416019704869876, "avgSGDIters": [100.0, 5710.5, 33800.0], "iterations": 506.953125, "runtime": 40204, "consensusNorm": 2.7256746823074045}, "params": {"format": "bismarck", "algParams": {"usePorkChop": true, "lagrangianRho": 10.0, "rho0": 10.0, "maxWorkerIterations": 100000, "useLBFGS": false, "maxIterations": 1000, "eta0": 1.0, "runtimeMS": 40000, "adaptiveRho": false, "broadcastDelayMS": 10, "regParam": 10.0, "tol": 0.0, "displayIncrementalStats": false, "localTimeout": -1, "useLineSearch": false, "workerTol": 0.001, "miniBatchSize": 10}, "wikipediaTargetWordToken": 4690, "dblpSplitYear": 2007, "regType": "L2", "algorithm": "PORKCHOP", "inputTokenHashKernelDimension": 100, "useLR": false, "pointCloudPoints": 10000, "pointCloudDim": 10, "pointCloudSize": 1.0, "pointCloudSkew": 0.0, "input": "/user/root/bismarck_data/forest*", "numPartitions": 128, "pointCloudNoise": 0.2}, "nDim": 54, "algorithm": "PORKCHOP", "pr": 0.7887358869932569, "totalLoss": 342065.2000494052, "nExamples": 581012, "runtimeMS": 40204, "regPenalty": 37.14651236885785, "trainingError": 0.23740989859073477, "maxW": 1.280846126801027, "minW": -1.712676149219752, "iterations": 506.953125, "roc": 0.8226952983723759}\n'
p1791
sg30
I10
sg31
I-1
ssVstats
p1792
(dp1793
Vstats
p1794
(dp1795
VavgMsgsRcvd
p1796
(lp1797
F3001.0
aF3470.1171875
aF4078.0
asVavgMsgsSent
p1798
(lp1799
F0.0
aF0.0
aF0.0
asVavgDualUpdates
p1800
(lp1801
F321.0
aF506.953125
aF702.0
asVavgLocalIters
p1802
(lp1803
F321.0
aF506.953125
aF702.0
asVavgResidual
p1804
(lp1805
F0.0
aF0.0
aF0.0
asVprimalAvg
p1806
(lp1807
F-1.532240149487234
aF-0.012763958039889268
aF0.069648788198243106
aF0.27016072171973887
aF0.021583326561019391
aF0.19215438749697233
aF0.078528273648190275
aF0.33014495060611893
aF-0.021385266335968312
aF-0.022009095919921208
aF0.24161936994625757
aF0.17851623269284078
aF0.17425174892085424
aF-1.0078065413712041
aF-0.18705885119037186
aF-0.43356199150718827
aF-0.19762440072295001
aF-0.49819327899087185
aF-0.13773862843214515
aF-0.032829223899104323
aF1.1477526811647152
aF0.14105328626441005
aF0.012077092265185066
aF-0.10381496889799426
aF0.0092785809597350118
aF0.11129562278470848
aF0.10051283740483508
aF-0.19882488251963776
aF0.11701248791978559
aF-0.0099221983278829345
aF-0.19906898169639203
aF-0.03411806929296099
aF-0.033751586167439826
aF-0.037199127722886943
aF-0.087554049259793515
aF-0.11477217178990611
aF-0.095220107689360692
aF0.033530573671624105
aF0.099179807037139051
aF0.047627941685356646
aF-0.0080731761040725401
aF0.26127328102253189
aF0.1733213859878964
aF0.07471766127860191
aF0.090108760049054326
aF0.23700884734524993
aF0.13517735026567895
aF0.10276776188125498
aF-0.027672347689069603
aF-0.0050418928144426705
aF-0.035896514997066142
aF-0.038823292052951493
aF-0.063749599371215993
aF-0.019472482164407799
asVdualAvg
p1808
(lp1809
F-1.9381628214829738
aF-0.057656622724528872
aF0.085405489485101127
aF0.32502286772553701
aF0.028868714135820039
aF0.25124393723936317
aF0.096528146174057625
aF0.39168068059130523
aF-0.031778729657596066
aF-0.039526009964991698
aF0.31865752069107156
aF0.23692288073388978
aF0.21079416821062635
aF-1.2918578720555611
aF-0.25700728499891756
aF-0.54941403549066159
aF-0.23440503836123941
aF-0.59469083504856557
aF-0.16607378711944737
aF-0.041172801067386758
aF1.4310005600194482
aF0.086558509588955224
aF0.019224224883354929
aF-0.14749656098813657
aF0.016281505328582413
aF0.10823403407112145
aF0.13102494001249543
aF-0.18197897856204504
aF0.16026437966443596
aF-0.045668066310107669
aF-0.24843278422277104
aF-0.027302617586118627
aF-0.061879189408519109
aF-0.043013014098706115
aF-0.10822947415100381
aF-0.12902410702065134
aF-0.13134612548572558
aF0.0085746916536410811
aF0.062301242411786653
aF0.096905968206071266
aF0.0059373919225010896
aF0.2395079645253336
aF0.20852074422619421
aF0.10633585090307307
aF0.11113110677674831
aF0.30293622268552745
aF0.18978334504381161
aF0.152199385089198
aF-0.026435212950559436
aF-0.18987182985647089
aF-0.027242230816354199
aF-0.040256865645621753
aF-0.053795523904408088
aF0.018966175295028725
asVavgSGDIters
p1810
(lp1811
F100.0
aF5710.5
aF33800.0
assVconsensusNorm
p1812
F2.7256746823074045
sVavgMsgsRcvd
p1813
(lp1814
F3001.0
aF3470.1171875
aF4078.0
asVavgMsgsSent
p1815
(lp1816
F0.0
aF0.0
aF0.0
asVdualUpdates
p1817
(lp1818
F321.0
aF506.953125
aF702.0
asVdualAvgNorm
p1819
F3.0644998668262105
sVprimalAvgNorm
p1820
F2.4416019704869876
sViterInterval
p1821
(lp1822
F321.0
aF506.953125
aF702.0
asViterations
p1823
F506.953125
sVruntime
p1824
I40204
sVavgSGDIters
p1825
(lp1826
F100.0
aF5710.5
aF33800.0
assVtotalLoss
p1827
F342065.20004940522
sValgorithm
p1828
VPORKCHOP
p1829
sVregPenalty
p1830
F37.146512368857849
sVroc
p1831
F0.82269529837237587
sVmaxW
p1832
F1.2808461268010269
sVnExamples
p1833
I581012
sVruntimeMS
p1834
I40204
sVparams
p1835
(dp1836
VpointCloudDim
p1837
I10
sVinput
p1838
V/user/root/bismarck_data/forest*
p1839
sValgorithm
p1840
VPORKCHOP
p1841
sVformat
p1842
Vbismarck
p1843
sVpointCloudSize
p1844
F1.0
sVwikipediaTargetWordToken
p1845
I4690
sVdblpSplitYear
p1846
I2007
sVnumPartitions
p1847
I128
sValgParams
p1848
(dp1849
VregParam
p1850
F10.0
sVmaxIterations
p1851
I1000
sVusePorkChop
p1852
I01
sVtol
p1853
F0.0
sVworkerTol
p1854
F0.001
sVadaptiveRho
p1855
I00
sVuseLBFGS
p1856
I00
sVrho0
p1857
F10.0
sVdisplayIncrementalStats
p1858
I00
sVminiBatchSize
p1859
I10
sVlocalTimeout
p1860
I-1
sVmaxWorkerIterations
p1861
I100000
sVruntimeMS
p1862
I40000
sVbroadcastDelayMS
p1863
I10
sVeta0
p1864
F1.0
sVlagrangianRho
p1865
F10.0
sVuseLineSearch
p1866
I00
ssVinputTokenHashKernelDimension
p1867
I100
sVpointCloudPoints
p1868
I10000
sVregType
p1869
VL2
p1870
sVuseLR
p1871
I00
sVpointCloudNoise
p1872
F0.20000000000000001
sVpointCloudSkew
p1873
F0.0
ssViterations
p1874
F506.953125
sVtrainingLoss
p1875
F342028.05353703635
sVminW
p1876
F-1.712676149219752
sVtrainingError
p1877
F0.23740989859073477
sa(dp1878
VnDim
p1879
I54
sVpr
p1880
F0.79335006337049729
sg4
(dp1881
g6
F1.0000000000000001e-05
sg7
I10
sg8
I-1
sg9
g122
sg11
I10
sg12
I128
sg13
I4690
sg14
I2007
sg15
I-1
sg16
g17
sg18
I10
sg19
g20
sg21
S'cd /mnt/spark; sbin/stop-all.sh; sleep 5; sbin/start-all.sh; sleep 3;./bin/spark-submit --driver-memory 52g --class org.apache.spark.examples.mllib.research.SynchronousADMMTests examples/target/scala-*/spark-examples-*.jar --algorithm HOGWILD --regType L2 --regParam 10 --format bismarck --numPartitions 128 --runtimeMS 40000 --ADMMmaxLocalIterations 10 --ADMMepsilon 0.0 --ADMMLocalepsilon 1e-05 --ADMMrho 10 --ADMMLagrangianrho 10 --broadcastDelayMs 10 --dblpSplitYear 2007 --wikipediaTargetWordToken 4690 --inputTokenHashKernelDimension 100 --localTimeout -1  --input /user/root/bismarck_data/forest*   '
p1882
sg23
I10
sg24
F0.0
sg25
I100
sg26
g27
sg28
S'RESULT: {"trainingLoss": 350526.74246651615, "stats": {"stats": {"avgDualUpdates": [0.0, 0.0, 0.0], "primalAvg": [-1.9447254079626877, -0.03613901481169885, 0.14124199728513465, 0.3806005208193467, 0.06242272322809887, 0.1898073271819245, 0.03238950603657194, 0.5444019258099803, -0.08586424790117063, 0.03289327309218779, 0.26283107301354475, 0.2905262927507719, 0.3218181873507927, -1.1962217360422556, -0.3402107110206018, -0.570614378797727, -0.29058100546765997, -0.6119387600817068, -0.26982885698933234, -0.06984331392960845, 3.1432841561407527, 0.12335844725232789, 0.018688901811859785, -0.2016869861024031, -0.005175711289014954, 0.2156567324161609, 0.13419481508668532, -0.26339374811666566, 0.11609738649648287, -0.0075008697405829616, -0.23132312983430822, 0.014815529362890642, -0.034716564473018546, -0.0605129122412888, -0.11494433398140888, -0.12027876012558458, -0.08987365932998509, 0.055510145679159316, 0.1004920804689602, 0.07807275487708289, -0.024971562437307394, 0.41126398259642294, 0.23800267280145382, 0.11127881105575188, 0.11391756985840189, 0.2759965763124802, 0.16040792242586557, 0.13399143757049045, -0.072500008294606, 0.0048800452331253154, -0.02923866987248287, -0.1235282978362566, -0.15039320609792367, -0.09560445723945124], "dualAvg": [0.0, 0.0, 0.0, 0.0, 0.0, 0.0, 0.0, 0.0, 0.0, 0.0, 0.0, 0.0, 0.0, 0.0, 0.0, 0.0, 0.0, 0.0, 0.0, 0.0, 0.0, 0.0, 0.0, 0.0, 0.0, 0.0, 0.0, 0.0, 0.0, 0.0, 0.0, 0.0, 0.0, 0.0, 0.0, 0.0, 0.0, 0.0, 0.0, 0.0, 0.0, 0.0, 0.0, 0.0, 0.0, 0.0, 0.0, 0.0, 0.0, 0.0, 0.0, 0.0, 0.0, 0.0], "avgResidual": [0.0, 0.0, 0.0], "avgMsgsSent": [3760.0, 3795.734375, 3823.0], "avgMsgsRcvd": [26374.0, 26570.140625, 26719.0], "avgLocalIters": [3231410.0, 3548713.484375, 3772236.0], "avgSGDIters": [0.0, 0.0, 0.0]}, "avgMsgsSent": [3760.0, 3795.734375, 3823.0], "avgMsgsRcvd": [26374.0, 26570.140625, 26719.0], "iterations": 3548713.484375, "runtime": 40511}, "params": {"format": "bismarck", "algParams": {"usePorkChop": false, "lagrangianRho": 10.0, "rho0": 10.0, "maxWorkerIterations": 10, "useLBFGS": false, "maxIterations": 1000, "eta0": 1.0, "runtimeMS": 40000, "adaptiveRho": false, "broadcastDelayMS": 10, "regParam": 10.0, "tol": 0.0, "displayIncrementalStats": false, "localTimeout": -1, "useLineSearch": false, "workerTol": 1.0E-5, "miniBatchSize": 10}, "wikipediaTargetWordToken": 4690, "dblpSplitYear": 2007, "regType": "L2", "algorithm": "HOGWILD", "inputTokenHashKernelDimension": 100, "useLR": false, "pointCloudPoints": 10000, "pointCloudDim": 10, "pointCloudSize": 1.0, "pointCloudSkew": 0.0, "input": "/user/root/bismarck_data/forest*", "numPartitions": 128, "pointCloudNoise": 0.2}, "nDim": 54, "algorithm": "HOGWILD", "pr": 0.7933500633704973, "totalLoss": 350614.65319294407, "nExamples": 581012, "runtimeMS": 40511, "regPenalty": 87.91072642790942, "trainingError": 0.24037541393293083, "maxW": 3.1432841561407527, "minW": -1.9447254079626877, "iterations": 3548713.484375, "roc": 0.8250807926672792}\n'
p1883
sg30
I10
sg31
I-1
ssVstats
p1884
(dp1885
Vruntime
p1886
I40511
sVstats
p1887
(dp1888
VavgMsgsRcvd
p1889
(lp1890
F26374.0
aF26570.140625
aF26719.0
asVavgMsgsSent
p1891
(lp1892
F3760.0
aF3795.734375
aF3823.0
asVavgDualUpdates
p1893
(lp1894
F0.0
aF0.0
aF0.0
asVavgLocalIters
p1895
(lp1896
F3231410.0
aF3548713.484375
aF3772236.0
asVavgResidual
p1897
(lp1898
F0.0
aF0.0
aF0.0
asVprimalAvg
p1899
(lp1900
F-1.9447254079626877
aF-0.036139014811698851
aF0.14124199728513465
aF0.3806005208193467
aF0.062422723228098873
aF0.1898073271819245
aF0.032389506036571938
aF0.54440192580998026
aF-0.085864247901170629
aF0.032893273092187793
aF0.26283107301354475
aF0.29052629275077191
aF0.32181818735079271
aF-1.1962217360422556
aF-0.3402107110206018
aF-0.57061437879772703
aF-0.29058100546765997
aF-0.61193876008170678
aF-0.26982885698933234
aF-0.06984331392960845
aF3.1432841561407527
aF0.12335844725232789
aF0.018688901811859785
aF-0.2016869861024031
aF-0.0051757112890149538
aF0.2156567324161609
aF0.13419481508668532
aF-0.26339374811666566
aF0.11609738649648287
aF-0.0075008697405829616
aF-0.23132312983430822
aF0.014815529362890642
aF-0.034716564473018546
aF-0.060512912241288797
aF-0.11494433398140888
aF-0.12027876012558458
aF-0.089873659329985089
aF0.055510145679159316
aF0.1004920804689602
aF0.078072754877082887
aF-0.024971562437307394
aF0.41126398259642294
aF0.23800267280145382
aF0.11127881105575188
aF0.11391756985840189
aF0.2759965763124802
aF0.16040792242586557
aF0.13399143757049045
aF-0.072500008294605997
aF0.0048800452331253154
aF-0.029238669872482869
aF-0.1235282978362566
aF-0.15039320609792367
aF-0.09560445723945124
asVdualAvg
p1901
(lp1902
F0.0
aF0.0
aF0.0
aF0.0
aF0.0
aF0.0
aF0.0
aF0.0
aF0.0
aF0.0
aF0.0
aF0.0
aF0.0
aF0.0
aF0.0
aF0.0
aF0.0
aF0.0
aF0.0
aF0.0
aF0.0
aF0.0
aF0.0
aF0.0
aF0.0
aF0.0
aF0.0
aF0.0
aF0.0
aF0.0
aF0.0
aF0.0
aF0.0
aF0.0
aF0.0
aF0.0
aF0.0
aF0.0
aF0.0
aF0.0
aF0.0
aF0.0
aF0.0
aF0.0
aF0.0
aF0.0
aF0.0
aF0.0
aF0.0
aF0.0
aF0.0
aF0.0
aF0.0
aF0.0
asVavgSGDIters
p1903
(lp1904
F0.0
aF0.0
aF0.0
assViterations
p1905
F3548713.484375
sVavgMsgsRcvd
p1906
(lp1907
F26374.0
aF26570.140625
aF26719.0
asVavgMsgsSent
p1908
(lp1909
F3760.0
aF3795.734375
aF3823.0
assVtotalLoss
p1910
F350614.65319294407
sValgorithm
p1911
VHOGWILD
p1912
sVregPenalty
p1913
F87.910726427909424
sVroc
p1914
F0.82508079266727918
sVmaxW
p1915
F3.1432841561407527
sVnExamples
p1916
I581012
sVruntimeMS
p1917
I40511
sVparams
p1918
(dp1919
VpointCloudDim
p1920
I10
sVinput
p1921
V/user/root/bismarck_data/forest*
p1922
sValgorithm
p1923
VHOGWILD
p1924
sVformat
p1925
Vbismarck
p1926
sVpointCloudSize
p1927
F1.0
sVwikipediaTargetWordToken
p1928
I4690
sVdblpSplitYear
p1929
I2007
sVnumPartitions
p1930
I128
sValgParams
p1931
(dp1932
VregParam
p1933
F10.0
sVmaxIterations
p1934
I1000
sVusePorkChop
p1935
I00
sVtol
p1936
F0.0
sVworkerTol
p1937
F1.0000000000000001e-05
sVadaptiveRho
p1938
I00
sVuseLBFGS
p1939
I00
sVrho0
p1940
F10.0
sVdisplayIncrementalStats
p1941
I00
sVminiBatchSize
p1942
I10
sVlocalTimeout
p1943
I-1
sVmaxWorkerIterations
p1944
I10
sVruntimeMS
p1945
I40000
sVbroadcastDelayMS
p1946
I10
sVeta0
p1947
F1.0
sVlagrangianRho
p1948
F10.0
sVuseLineSearch
p1949
I00
ssVinputTokenHashKernelDimension
p1950
I100
sVpointCloudPoints
p1951
I10000
sVregType
p1952
VL2
p1953
sVuseLR
p1954
I00
sVpointCloudNoise
p1955
F0.20000000000000001
sVpointCloudSkew
p1956
F0.0
ssViterations
p1957
F3548713.484375
sVtrainingLoss
p1958
F350526.74246651615
sVminW
p1959
F-1.9447254079626877
sVtrainingError
p1960
F0.24037541393293083
sa(dp1961
VnDim
p1962
I54
sVpr
p1963
F0.78833155858399973
sg4
(dp1964
g6
F1.0000000000000001e-05
sg7
I-1
sg8
I-1
sg9
g206
sg11
I10
sg12
I128
sg13
I4690
sg14
I2007
sg15
I100000000
sg16
g17
sg18
I100000
sg19
g20
sg21
S'cd /mnt/spark; sbin/stop-all.sh; sleep 5; sbin/start-all.sh; sleep 3;./bin/spark-submit --driver-memory 52g --class org.apache.spark.examples.mllib.research.SynchronousADMMTests examples/target/scala-*/spark-examples-*.jar --algorithm ADMM --regType L2 --regParam 10 --format bismarck --numPartitions 128 --runtimeMS 40000 --ADMMmaxLocalIterations 100000 --ADMMepsilon 0.0 --ADMMLocalepsilon 1e-05 --ADMMrho 10 --ADMMLagrangianrho 10 --broadcastDelayMs -1 --dblpSplitYear 2007 --wikipediaTargetWordToken 4690 --inputTokenHashKernelDimension 100 --localTimeout 100000000  --input /user/root/bismarck_data/forest*   '
p1965
sg23
I10
sg24
F0.0
sg25
I100
sg26
g27
sg28
S'RESULT: {"trainingLoss": 339270.9239145349, "stats": {"dualAvgNorm": 0.0, "stats": {"avgDualUpdates": [49.0, 49.0, 49.0], "primalAvg": [-1.5236185566724418, -0.016540578447658195, 0.0658794048537934, 0.2629829131573364, 0.02543254839537385, 0.1971334973617728, 0.04613692222722494, 0.34041855837077584, -0.061642179138408366, -0.017951007167832548, 0.2394599937226589, 0.1787802951485789, 0.17077953165922222, -0.9964999806074449, -0.15407107355849955, -0.42994162756637855, -0.2155179749772615, -0.49271249165805114, -0.11431751217964475, -0.03396946691983101, 2.1986869390405586, 0.10852078202846521, 0.028700102424211296, -0.10812869623413351, 0.009469061393918829, 0.0967758032049955, 0.10015385423823957, -0.16790733856133463, -0.0029218717629971767, -0.017384095095986367, -0.18649855075855115, -0.02100796921214632, -0.02936657790381439, -0.03683389714314621, -0.0702757565339158, -0.12250321179573713, -0.10133820687576589, 0.0250971908731695, 0.08975412422606735, 0.046268499561571315, -2.490371021016098E-4, 0.2484295810741213, 0.16055608160678947, 0.0636195833397089, 0.08577588522661639, 0.23004975822358872, 0.12437167835105026, 0.11837129612697353, -0.0063696250413277705, 0.03431583441775422, -0.01483590337413259, -0.041994178459331184, -0.0639115882354706, -0.015604188991784512], "dualAvg": [0.0, 0.0, 0.0, 0.0, 0.0, 0.0, 0.0, 0.0, 0.0, 0.0, 0.0, 0.0, 0.0, 0.0, 0.0, 0.0, 0.0, 0.0, 0.0, 0.0, 0.0, 0.0, 0.0, 0.0, 0.0, 0.0, 0.0, 0.0, 0.0, 0.0, 0.0, 0.0, 0.0, 0.0, 0.0, 0.0, 0.0, 0.0, 0.0, 0.0, 0.0, 0.0, 0.0, 0.0, 0.0, 0.0, 0.0, 0.0, 0.0, 0.0, 0.0, 0.0, 0.0, 0.0], "avgResidual": [4.628426658787241E-6, 8.243785544173216E-6, 9.996175092876569E-6], "avgMsgsSent": [0.0, 0.0, 0.0], "avgMsgsRcvd": [0.0, 0.0, 0.0], "avgLocalIters": [0.0, 0.0, 0.0], "avgSGDIters": [4990.0, 16744.453125, 64150.0]}, "dualUpdates": [49.0, 49.0, 49.0], "primalAvgNorm": 3.0584570414664936, "avgSGDIters": [4990.0, 16744.453125, 64150.0], "iterations": 49, "runtime": 40032, "consensusNorm": 3.0347480721528006}, "params": {"format": "bismarck", "algParams": {"usePorkChop": false, "lagrangianRho": 10.0, "rho0": 10.0, "maxWorkerIterations": 100000, "useLBFGS": false, "maxIterations": 1000, "eta0": 1.0, "runtimeMS": 40000, "adaptiveRho": false, "broadcastDelayMS": -1, "regParam": 10.0, "tol": 0.0, "displayIncrementalStats": false, "localTimeout": 100000000, "useLineSearch": false, "workerTol": 1.0E-5, "miniBatchSize": 10}, "wikipediaTargetWordToken": 4690, "dblpSplitYear": 2007, "regType": "L2", "algorithm": "ADMM", "inputTokenHashKernelDimension": 100, "useLR": false, "pointCloudPoints": 10000, "pointCloudDim": 10, "pointCloudSize": 1.0, "pointCloudSkew": 0.0, "input": "/user/root/bismarck_data/forest*", "numPartitions": 128, "pointCloudNoise": 0.2}, "nDim": 54, "algorithm": "ADMM", "pr": 0.7883315585839997, "totalLoss": 339316.97239384206, "nExamples": 581012, "runtimeMS": 40032, "regPenalty": 46.0484793071757, "trainingError": 0.2377592889647718, "maxW": 2.1816428542417947, "minW": -1.5118075601090897, "iterations": 49, "roc": 0.8222532443921916}\n'
p1966
sg30
I10
sg31
I-1
ssVstats
p1967
(dp1968
Vstats
p1969
(dp1970
VavgMsgsRcvd
p1971
(lp1972
F0.0
aF0.0
aF0.0
asVavgMsgsSent
p1973
(lp1974
F0.0
aF0.0
aF0.0
asVavgDualUpdates
p1975
(lp1976
F49.0
aF49.0
aF49.0
asVavgLocalIters
p1977
(lp1978
F0.0
aF0.0
aF0.0
asVavgResidual
p1979
(lp1980
F4.6284266587872413e-06
aF8.2437855441732164e-06
aF9.996175092876569e-06
asVprimalAvg
p1981
(lp1982
F-1.5236185566724418
aF-0.016540578447658195
aF0.0658794048537934
aF0.26298291315733641
aF0.025432548395373851
aF0.1971334973617728
aF0.046136922227224937
aF0.34041855837077584
aF-0.061642179138408366
aF-0.017951007167832548
aF0.23945999372265889
aF0.1787802951485789
aF0.17077953165922222
aF-0.99649998060744494
aF-0.15407107355849955
aF-0.42994162756637855
aF-0.21551797497726149
aF-0.49271249165805114
aF-0.11431751217964475
aF-0.033969466919831007
aF2.1986869390405586
aF0.10852078202846521
aF0.028700102424211296
aF-0.10812869623413351
aF0.009469061393918829
aF0.0967758032049955
aF0.10015385423823957
aF-0.16790733856133463
aF-0.0029218717629971767
aF-0.017384095095986367
aF-0.18649855075855115
aF-0.021007969212146319
aF-0.029366577903814389
aF-0.036833897143146208
aF-0.070275756533915795
aF-0.12250321179573713
aF-0.10133820687576589
aF0.0250971908731695
aF0.08975412422606735
aF0.046268499561571315
aF-0.00024903710210160979
aF0.2484295810741213
aF0.16055608160678947
aF0.063619583339708893
aF0.085775885226616388
aF0.23004975822358872
aF0.12437167835105026
aF0.11837129612697353
aF-0.0063696250413277705
aF0.034315834417754217
aF-0.01483590337413259
aF-0.041994178459331184
aF-0.063911588235470607
aF-0.015604188991784512
asVdualAvg
p1983
(lp1984
F0.0
aF0.0
aF0.0
aF0.0
aF0.0
aF0.0
aF0.0
aF0.0
aF0.0
aF0.0
aF0.0
aF0.0
aF0.0
aF0.0
aF0.0
aF0.0
aF0.0
aF0.0
aF0.0
aF0.0
aF0.0
aF0.0
aF0.0
aF0.0
aF0.0
aF0.0
aF0.0
aF0.0
aF0.0
aF0.0
aF0.0
aF0.0
aF0.0
aF0.0
aF0.0
aF0.0
aF0.0
aF0.0
aF0.0
aF0.0
aF0.0
aF0.0
aF0.0
aF0.0
aF0.0
aF0.0
aF0.0
aF0.0
aF0.0
aF0.0
aF0.0
aF0.0
aF0.0
aF0.0
asVavgSGDIters
p1985
(lp1986
F4990.0
aF16744.453125
aF64150.0
assVconsensusNorm
p1987
F3.0347480721528006
sVdualUpdates
p1988
(lp1989
F49.0
aF49.0
aF49.0
asVdualAvgNorm
p1990
F0.0
sVprimalAvgNorm
p1991
F3.0584570414664936
sViterations
p1992
I49
sVruntime
p1993
I40032
sVavgSGDIters
p1994
(lp1995
F4990.0
aF16744.453125
aF64150.0
assVtotalLoss
p1996
F339316.97239384206
sValgorithm
p1997
VADMM
p1998
sVregPenalty
p1999
F46.048479307175697
sVroc
p2000
F0.82225324439219161
sVmaxW
p2001
F2.1816428542417947
sVnExamples
p2002
I581012
sVruntimeMS
p2003
I40032
sVparams
p2004
(dp2005
VpointCloudDim
p2006
I10
sVinput
p2007
V/user/root/bismarck_data/forest*
p2008
sValgorithm
p2009
VADMM
p2010
sVformat
p2011
Vbismarck
p2012
sVpointCloudSize
p2013
F1.0
sVwikipediaTargetWordToken
p2014
I4690
sVdblpSplitYear
p2015
I2007
sVnumPartitions
p2016
I128
sValgParams
p2017
(dp2018
VregParam
p2019
F10.0
sVmaxIterations
p2020
I1000
sVusePorkChop
p2021
I00
sVtol
p2022
F0.0
sVworkerTol
p2023
F1.0000000000000001e-05
sVadaptiveRho
p2024
I00
sVuseLBFGS
p2025
I00
sVrho0
p2026
F10.0
sVdisplayIncrementalStats
p2027
I00
sVminiBatchSize
p2028
I10
sVlocalTimeout
p2029
I100000000
sVmaxWorkerIterations
p2030
I100000
sVruntimeMS
p2031
I40000
sVbroadcastDelayMS
p2032
I-1
sVeta0
p2033
F1.0
sVlagrangianRho
p2034
F10.0
sVuseLineSearch
p2035
I00
ssVinputTokenHashKernelDimension
p2036
I100
sVpointCloudPoints
p2037
I10000
sVregType
p2038
VL2
p2039
sVuseLR
p2040
I00
sVpointCloudNoise
p2041
F0.20000000000000001
sVpointCloudSkew
p2042
F0.0
ssViterations
p2043
I49
sVtrainingLoss
p2044
F339270.92391453491
sVminW
p2045
F-1.5118075601090897
sVtrainingError
p2046
F0.2377592889647718
sa(dp2047
VnDim
p2048
I54
sVpr
p2049
F0.78972472505224267
sg4
(dp2050
g6
F0.001
sg7
I-1
sg8
I-1
sg9
g293
sg11
I10
sg12
I128
sg13
I4690
sg14
I2007
sg15
I500
sg16
g17
sg18
I100000000
sg19
g20
sg21
S'cd /mnt/spark; sbin/stop-all.sh; sleep 5; sbin/start-all.sh; sleep 3;./bin/spark-submit --driver-memory 52g --class org.apache.spark.examples.mllib.research.SynchronousADMMTests examples/target/scala-*/spark-examples-*.jar --algorithm MiniBatchADMM --regType L2 --regParam 10 --format bismarck --numPartitions 128 --runtimeMS 40000 --ADMMmaxLocalIterations 100000000 --ADMMepsilon 0.0 --ADMMLocalepsilon 0.001 --ADMMrho 10 --ADMMLagrangianrho 10 --broadcastDelayMs -1 --dblpSplitYear 2007 --wikipediaTargetWordToken 4690 --inputTokenHashKernelDimension 100 --localTimeout 500  --input /user/root/bismarck_data/forest*   '
p2051
sg23
I10
sg24
F0.0
sg25
I100
sg26
g27
sg28
S'RESULT: {"trainingLoss": 340167.97909610043, "stats": {"dualAvgNorm": 0.0, "stats": {"avgDualUpdates": [92.0, 92.0, 92.0], "primalAvg": [-1.5875582426531658, -0.028810907765547462, 0.07760061106733657, 0.2716473255555018, 0.02534648039994453, 0.18985808325058587, 0.03269426578255658, 0.37381663793713177, -0.06927628794205361, -0.017985434071241216, 0.250068697727065, 0.19194613830374502, 0.18338819889994773, -1.0556758985700567, -0.19397223094071017, -0.45641622949317096, -0.21175195993435275, -0.5104770895881479, -0.14175408790448293, -0.04228280611114865, 1.9328940477544039, 0.13930884597857499, 0.011692168048728349, -0.11943289755586693, 0.016440594366243448, 0.11940687071677604, 0.11314248911646717, -0.19359352968825908, -0.0718884586497705, -0.008323279750113613, -0.18907412729890896, -0.010293177297720654, -0.025857242249896748, -0.041712700202378404, -0.07455609333682306, -0.12048223453107126, -0.09595177003730211, 0.03398944488711732, 0.06577425008029308, 0.07975267869076716, -0.02776018511684113, 0.19793299849367055, 0.1717462333441259, 0.06637440569801327, 0.09958854946258212, 0.24091793517304733, 0.13523107542651094, 0.12711733180827808, -0.05226708340628837, 0.04525601033030393, -0.019210864687627935, -0.05023205507098484, -0.0764552477907922, -0.029475272294575396], "dualAvg": [0.0, 0.0, 0.0, 0.0, 0.0, 0.0, 0.0, 0.0, 0.0, 0.0, 0.0, 0.0, 0.0, 0.0, 0.0, 0.0, 0.0, 0.0, 0.0, 0.0, 0.0, 0.0, 0.0, 0.0, 0.0, 0.0, 0.0, 0.0, 0.0, 0.0, 0.0, 0.0, 0.0, 0.0, 0.0, 0.0, 0.0, 0.0, 0.0, 0.0, 0.0, 0.0, 0.0, 0.0, 0.0, 0.0, 0.0, 0.0, 0.0, 0.0, 0.0, 0.0, 0.0, 0.0], "avgResidual": [8.440128360864701E-6, 7.760622805554242E-4, 0.01932086534876819], "avgMsgsSent": [0.0, 0.0, 0.0], "avgMsgsRcvd": [0.0, 0.0, 0.0], "avgLocalIters": [0.0, 0.0, 0.0], "avgSGDIters": [23.0, 3775.359375, 16000.0]}, "dualUpdates": [92.0, 92.0, 92.0], "primalAvgNorm": 2.9519951773000774, "avgSGDIters": [23.0, 3775.359375, 16000.0], "iterations": 92, "runtime": 40061, "consensusNorm": 2.9291114937551153}, "params": {"format": "bismarck", "algParams": {"usePorkChop": false, "lagrangianRho": 10.0, "rho0": 10.0, "maxWorkerIterations": 100000000, "useLBFGS": false, "maxIterations": 1000, "eta0": 1.0, "runtimeMS": 40000, "adaptiveRho": false, "broadcastDelayMS": -1, "regParam": 10.0, "tol": 0.0, "displayIncrementalStats": false, "localTimeout": 500, "useLineSearch": false, "workerTol": 0.001, "miniBatchSize": 10}, "wikipediaTargetWordToken": 4690, "dblpSplitYear": 2007, "regType": "L2", "algorithm": "MiniBatchADMM", "inputTokenHashKernelDimension": 100, "useLR": false, "pointCloudPoints": 10000, "pointCloudDim": 10, "pointCloudSize": 1.0, "pointCloudSkew": 0.0, "input": "/user/root/bismarck_data/forest*", "numPartitions": 128, "pointCloudNoise": 0.2}, "nDim": 54, "algorithm": "MiniBatchADMM", "pr": 0.7897247250522427, "totalLoss": 340210.87756681466, "nExamples": 581012, "runtimeMS": 40061, "regPenalty": 42.89847071424162, "trainingError": 0.2372102469484279, "maxW": 1.91791037296561, "minW": -1.5752515896093429, "iterations": 92, "roc": 0.8233558450306115}\n'
p2052
sg30
I10
sg31
I-1
ssVstats
p2053
(dp2054
Vstats
p2055
(dp2056
VavgMsgsRcvd
p2057
(lp2058
F0.0
aF0.0
aF0.0
asVavgMsgsSent
p2059
(lp2060
F0.0
aF0.0
aF0.0
asVavgDualUpdates
p2061
(lp2062
F92.0
aF92.0
aF92.0
asVavgLocalIters
p2063
(lp2064
F0.0
aF0.0
aF0.0
asVavgResidual
p2065
(lp2066
F8.4401283608647015e-06
aF0.00077606228055542416
aF0.019320865348768191
asVprimalAvg
p2067
(lp2068
F-1.5875582426531658
aF-0.028810907765547462
aF0.077600611067336567
aF0.27164732555550181
aF0.02534648039994453
aF0.18985808325058587
aF0.032694265782556582
aF0.37381663793713177
aF-0.069276287942053608
aF-0.017985434071241216
aF0.25006869772706503
aF0.19194613830374502
aF0.18338819889994773
aF-1.0556758985700567
aF-0.19397223094071017
aF-0.45641622949317096
aF-0.21175195993435275
aF-0.51047708958814786
aF-0.14175408790448293
aF-0.042282806111148652
aF1.9328940477544039
aF0.13930884597857499
aF0.011692168048728349
aF-0.11943289755586693
aF0.016440594366243448
aF0.11940687071677604
aF0.11314248911646717
aF-0.19359352968825908
aF-0.071888458649770504
aF-0.008323279750113613
aF-0.18907412729890896
aF-0.010293177297720654
aF-0.025857242249896748
aF-0.041712700202378404
aF-0.074556093336823059
aF-0.12048223453107126
aF-0.095951770037302112
aF0.033989444887117318
aF0.065774250080293084
aF0.079752678690767159
aF-0.02776018511684113
aF0.19793299849367055
aF0.17174623334412589
aF0.06637440569801327
aF0.099588549462582124
aF0.24091793517304733
aF0.13523107542651094
aF0.12711733180827808
aF-0.05226708340628837
aF0.045256010330303929
aF-0.019210864687627935
aF-0.050232055070984841
aF-0.0764552477907922
aF-0.029475272294575396
asVdualAvg
p2069
(lp2070
F0.0
aF0.0
aF0.0
aF0.0
aF0.0
aF0.0
aF0.0
aF0.0
aF0.0
aF0.0
aF0.0
aF0.0
aF0.0
aF0.0
aF0.0
aF0.0
aF0.0
aF0.0
aF0.0
aF0.0
aF0.0
aF0.0
aF0.0
aF0.0
aF0.0
aF0.0
aF0.0
aF0.0
aF0.0
aF0.0
aF0.0
aF0.0
aF0.0
aF0.0
aF0.0
aF0.0
aF0.0
aF0.0
aF0.0
aF0.0
aF0.0
aF0.0
aF0.0
aF0.0
aF0.0
aF0.0
aF0.0
aF0.0
aF0.0
aF0.0
aF0.0
aF0.0
aF0.0
aF0.0
asVavgSGDIters
p2071
(lp2072
F23.0
aF3775.359375
aF16000.0
assVconsensusNorm
p2073
F2.9291114937551153
sVdualUpdates
p2074
(lp2075
F92.0
aF92.0
aF92.0
asVdualAvgNorm
p2076
F0.0
sVprimalAvgNorm
p2077
F2.9519951773000774
sViterations
p2078
I92
sVruntime
p2079
I40061
sVavgSGDIters
p2080
(lp2081
F23.0
aF3775.359375
aF16000.0
assVtotalLoss
p2082
F340210.87756681466
sValgorithm
p2083
VMiniBatchADMM
p2084
sVregPenalty
p2085
F42.898470714241618
sVroc
p2086
F0.82335584503061154
sVmaxW
p2087
F1.91791037296561
sVnExamples
p2088
I581012
sVruntimeMS
p2089
I40061
sVparams
p2090
(dp2091
VpointCloudDim
p2092
I10
sVinput
p2093
V/user/root/bismarck_data/forest*
p2094
sValgorithm
p2095
VMiniBatchADMM
p2096
sVformat
p2097
Vbismarck
p2098
sVpointCloudSize
p2099
F1.0
sVwikipediaTargetWordToken
p2100
I4690
sVdblpSplitYear
p2101
I2007
sVnumPartitions
p2102
I128
sValgParams
p2103
(dp2104
VregParam
p2105
F10.0
sVmaxIterations
p2106
I1000
sVusePorkChop
p2107
I00
sVtol
p2108
F0.0
sVworkerTol
p2109
F0.001
sVadaptiveRho
p2110
I00
sVuseLBFGS
p2111
I00
sVrho0
p2112
F10.0
sVdisplayIncrementalStats
p2113
I00
sVminiBatchSize
p2114
I10
sVlocalTimeout
p2115
I500
sVmaxWorkerIterations
p2116
I100000000
sVruntimeMS
p2117
I40000
sVbroadcastDelayMS
p2118
I-1
sVeta0
p2119
F1.0
sVlagrangianRho
p2120
F10.0
sVuseLineSearch
p2121
I00
ssVinputTokenHashKernelDimension
p2122
I100
sVpointCloudPoints
p2123
I10000
sVregType
p2124
VL2
p2125
sVuseLR
p2126
I00
sVpointCloudNoise
p2127
F0.20000000000000001
sVpointCloudSkew
p2128
F0.0
ssViterations
p2129
I92
sVtrainingLoss
p2130
F340167.97909610043
sVminW
p2131
F-1.5752515896093429
sVtrainingError
p2132
F0.23721024694842791
sa(dp2133
VnDim
p2134
I54
sVpr
p2135
F0.78839606277244245
sg4
(dp2136
g6
F1.0000000000000001e-05
sg7
I100
sg8
I-1
sg9
g380
sg11
I10
sg12
I128
sg13
I4690
sg14
I2007
sg15
I500
sg16
g17
sg18
I100000
sg19
g20
sg21
S'cd /mnt/spark; sbin/stop-all.sh; sleep 5; sbin/start-all.sh; sleep 3;./bin/spark-submit --driver-memory 52g --class org.apache.spark.examples.mllib.research.SynchronousADMMTests examples/target/scala-*/spark-examples-*.jar --algorithm AsyncADMM --regType L2 --regParam 10 --format bismarck --numPartitions 128 --runtimeMS 40000 --ADMMmaxLocalIterations 100000 --ADMMepsilon 0.0 --ADMMLocalepsilon 1e-05 --ADMMrho 10 --ADMMLagrangianrho 10 --broadcastDelayMs 100 --dblpSplitYear 2007 --wikipediaTargetWordToken 4690 --inputTokenHashKernelDimension 100 --localTimeout 500  --input /user/root/bismarck_data/forest*   '
p2137
sg23
I10
sg24
F0.0
sg25
I100
sg26
g27
sg28
S'RESULT: {"trainingLoss": 341433.9555906505, "stats": {"dualAvgNorm": 0.0, "stats": {"avgDualUpdates": [96.0, 166.171875, 274.0], "primalAvg": [-1.3438661812854282, -0.01694190460776179, 0.06364765876422608, 0.23185135739238055, 0.018121581409481797, 0.17079604095709086, 0.07492279599615417, 0.27821659931989196, -0.012140762942439515, -0.016963607946878526, 0.2098435262242036, 0.15984246866784682, 0.15019157755782642, -0.8773401780622867, -0.13785475952795984, -0.37860350625167094, -0.18195538320732424, -0.4320495153086042, -0.11515784382871168, -0.028737670816013246, 0.4619541094911205, 0.17475199672520775, 0.059556698364572204, -0.09662235084718013, 0.012602315800875013, 0.08725755865521631, 0.09021769158244362, -0.14245483412452742, 0.055240611735107255, -0.014853004630657387, -0.16261343920408025, -0.006523446584233099, -0.030079431193416807, -0.0386655102544426, -0.08113901104990308, -0.10465008957740371, -0.08176890384462275, 0.023116852456241125, 0.08465841792405972, 0.05263584462257105, 4.94143753377796E-4, 0.30425799795060193, 0.1466212709301235, 0.061543809103995734, 0.08009444445591168, 0.20800715365712552, 0.11730634576884708, 0.1220268826688015, -0.01086135475785887, -0.01127794435152287, -0.02947500148782181, -0.0347683350481577, -0.05240046454234658, -0.011996913895262157], "dualAvg": [0.0, 0.0, 0.0, 0.0, 0.0, 0.0, 0.0, 0.0, 0.0, 0.0, 0.0, 0.0, 0.0, 0.0, 0.0, 0.0, 0.0, 0.0, 0.0, 0.0, 0.0, 0.0, 0.0, 0.0, 0.0, 0.0, 0.0, 0.0, 0.0, 0.0, 0.0, 0.0, 0.0, 0.0, 0.0, 0.0, 0.0, 0.0, 0.0, 0.0, 0.0, 0.0, 0.0, 0.0, 0.0, 0.0, 0.0, 0.0, 0.0, 0.0, 0.0, 0.0, 0.0, 0.0], "avgResidual": [0.0, 0.0, 0.0], "avgMsgsSent": [96.0, 166.171875, 274.0], "avgMsgsRcvd": [930.0, 1160.859375, 1402.0], "avgLocalIters": [96.0, 166.171875, 274.0], "avgSGDIters": [0.0, 15298.703125, 61700.0]}, "iterInterval": [96.0, 166.171875, 274.0], "avgMsgsSent": [96.0, 166.171875, 274.0], "dualUpdates": [96.0, 166.171875, 274.0], "avgMsgsRcvd": [930.0, 1160.859375, 1402.0], "primalAvgNorm": 1.948429927038889, "avgSGDIters": [0.0, 15298.703125, 61700.0], "iterations": 166.171875, "runtime": 40209, "consensusNorm": 1.9333258190773468}, "params": {"format": "bismarck", "algParams": {"usePorkChop": false, "lagrangianRho": 10.0, "rho0": 10.0, "maxWorkerIterations": 100000, "useLBFGS": false, "maxIterations": 1000, "eta0": 1.0, "runtimeMS": 40000, "adaptiveRho": false, "broadcastDelayMS": 100, "regParam": 10.0, "tol": 0.0, "displayIncrementalStats": false, "localTimeout": 500, "useLineSearch": false, "workerTol": 1.0E-5, "miniBatchSize": 10}, "wikipediaTargetWordToken": 4690, "dblpSplitYear": 2007, "regType": "L2", "algorithm": "AsyncADMM", "inputTokenHashKernelDimension": 100, "useLR": false, "pointCloudPoints": 10000, "pointCloudDim": 10, "pointCloudSize": 1.0, "pointCloudSkew": 0.0, "input": "/user/root/bismarck_data/forest*", "numPartitions": 128, "pointCloudNoise": 0.2}, "nDim": 54, "algorithm": "AsyncADMM", "pr": 0.7883960627724425, "totalLoss": 341452.64433426404, "nExamples": 581012, "runtimeMS": 40209, "regPenalty": 18.68874361355547, "trainingError": 0.23772314513297488, "maxW": 0.4583730698826622, "minW": -1.333448613988642, "iterations": 166.171875, "roc": 0.8224306975143575}\n'
p2138
sg30
I10
sg31
I-1
ssVstats
p2139
(dp2140
Vstats
p2141
(dp2142
VavgMsgsRcvd
p2143
(lp2144
F930.0
aF1160.859375
aF1402.0
asVavgMsgsSent
p2145
(lp2146
F96.0
aF166.171875
aF274.0
asVavgDualUpdates
p2147
(lp2148
F96.0
aF166.171875
aF274.0
asVavgLocalIters
p2149
(lp2150
F96.0
aF166.171875
aF274.0
asVavgResidual
p2151
(lp2152
F0.0
aF0.0
aF0.0
asVprimalAvg
p2153
(lp2154
F-1.3438661812854282
aF-0.016941904607761789
aF0.063647658764226081
aF0.23185135739238055
aF0.018121581409481797
aF0.17079604095709086
aF0.074922795996154173
aF0.27821659931989196
aF-0.012140762942439515
aF-0.016963607946878526
aF0.2098435262242036
aF0.15984246866784682
aF0.15019157755782642
aF-0.8773401780622867
aF-0.13785475952795984
aF-0.37860350625167094
aF-0.18195538320732424
aF-0.43204951530860419
aF-0.11515784382871168
aF-0.028737670816013246
aF0.46195410949112048
aF0.17475199672520775
aF0.059556698364572204
aF-0.096622350847180127
aF0.012602315800875013
aF0.087257558655216311
aF0.090217691582443624
aF-0.14245483412452742
aF0.055240611735107255
aF-0.014853004630657387
aF-0.16261343920408025
aF-0.006523446584233099
aF-0.030079431193416807
aF-0.038665510254442599
aF-0.081139011049903079
aF-0.10465008957740371
aF-0.081768903844622751
aF0.023116852456241125
aF0.084658417924059717
aF0.052635844622571051
aF0.00049414375337779597
aF0.30425799795060193
aF0.1466212709301235
aF0.061543809103995734
aF0.080094444455911684
aF0.20800715365712552
aF0.11730634576884708
aF0.1220268826688015
aF-0.01086135475785887
aF-0.01127794435152287
aF-0.029475001487821811
aF-0.034768335048157697
aF-0.052400464542346578
aF-0.011996913895262157
asVdualAvg
p2155
(lp2156
F0.0
aF0.0
aF0.0
aF0.0
aF0.0
aF0.0
aF0.0
aF0.0
aF0.0
aF0.0
aF0.0
aF0.0
aF0.0
aF0.0
aF0.0
aF0.0
aF0.0
aF0.0
aF0.0
aF0.0
aF0.0
aF0.0
aF0.0
aF0.0
aF0.0
aF0.0
aF0.0
aF0.0
aF0.0
aF0.0
aF0.0
aF0.0
aF0.0
aF0.0
aF0.0
aF0.0
aF0.0
aF0.0
aF0.0
aF0.0
aF0.0
aF0.0
aF0.0
aF0.0
aF0.0
aF0.0
aF0.0
aF0.0
aF0.0
aF0.0
aF0.0
aF0.0
aF0.0
aF0.0
asVavgSGDIters
p2157
(lp2158
F0.0
aF15298.703125
aF61700.0
assVconsensusNorm
p2159
F1.9333258190773468
sVavgMsgsRcvd
p2160
(lp2161
F930.0
aF1160.859375
aF1402.0
asVavgMsgsSent
p2162
(lp2163
F96.0
aF166.171875
aF274.0
asVdualUpdates
p2164
(lp2165
F96.0
aF166.171875
aF274.0
asVdualAvgNorm
p2166
F0.0
sVprimalAvgNorm
p2167
F1.948429927038889
sViterInterval
p2168
(lp2169
F96.0
aF166.171875
aF274.0
asViterations
p2170
F166.171875
sVruntime
p2171
I40209
sVavgSGDIters
p2172
(lp2173
F0.0
aF15298.703125
aF61700.0
assVtotalLoss
p2174
F341452.64433426404
sValgorithm
p2175
VAsyncADMM
p2176
sVregPenalty
p2177
F18.68874361355547
sVroc
p2178
F0.82243069751435749
sVmaxW
p2179
F0.45837306988266219
sVnExamples
p2180
I581012
sVruntimeMS
p2181
I40209
sVparams
p2182
(dp2183
VpointCloudDim
p2184
I10
sVinput
p2185
V/user/root/bismarck_data/forest*
p2186
sValgorithm
p2187
VAsyncADMM
p2188
sVformat
p2189
Vbismarck
p2190
sVpointCloudSize
p2191
F1.0
sVwikipediaTargetWordToken
p2192
I4690
sVdblpSplitYear
p2193
I2007
sVnumPartitions
p2194
I128
sValgParams
p2195
(dp2196
VregParam
p2197
F10.0
sVmaxIterations
p2198
I1000
sVusePorkChop
p2199
I00
sVtol
p2200
F0.0
sVworkerTol
p2201
F1.0000000000000001e-05
sVadaptiveRho
p2202
I00
sVuseLBFGS
p2203
I00
sVrho0
p2204
F10.0
sVdisplayIncrementalStats
p2205
I00
sVminiBatchSize
p2206
I10
sVlocalTimeout
p2207
I500
sVmaxWorkerIterations
p2208
I100000
sVruntimeMS
p2209
I40000
sVbroadcastDelayMS
p2210
I100
sVeta0
p2211
F1.0
sVlagrangianRho
p2212
F10.0
sVuseLineSearch
p2213
I00
ssVinputTokenHashKernelDimension
p2214
I100
sVpointCloudPoints
p2215
I10000
sVregType
p2216
VL2
p2217
sVuseLR
p2218
I00
sVpointCloudNoise
p2219
F0.20000000000000001
sVpointCloudSkew
p2220
F0.0
ssViterations
p2221
F166.171875
sVtrainingLoss
p2222
F341433.9555906505
sVminW
p2223
F-1.3334486139886419
sVtrainingError
p2224
F0.23772314513297488
sa.